opt subtitle "HI-TECH Software Omniscient Code Generator (PRO mode) build 9453"

opt pagewidth 120

	opt pm

	processor	16F887
clrc	macro
	bcf	3,0
	endm
clrz	macro
	bcf	3,2
	endm
setc	macro
	bsf	3,0
	endm
setz	macro
	bsf	3,2
	endm
skipc	macro
	btfss	3,0
	endm
skipz	macro
	btfss	3,2
	endm
skipnc	macro
	btfsc	3,0
	endm
skipnz	macro
	btfsc	3,2
	endm
indf	equ	0
indf0	equ	0
pc	equ	2
pcl	equ	2
status	equ	3
fsr	equ	4
fsr0	equ	4
c	equ	1
z	equ	0
pclath	equ	10
# 6 "C:\Users\Varush\Documents\Microcontroladores\Lenguaje C\ADC_en_LCD.c"
	psect config,class=CONFIG,delta=2 ;#
# 6 "C:\Users\Varush\Documents\Microcontroladores\Lenguaje C\ADC_en_LCD.c"
	dw 0xFFFC & 0xFFF7 & 0xFFFF & 0xFFDF & 0xFFFF & 0xFFFF & 0xFCFF & 0xFBFF & 0xF7FF & 0xEFFF & 0xFFFF ;#
# 7 "C:\Users\Varush\Documents\Microcontroladores\Lenguaje C\ADC_en_LCD.c"
	psect config,class=CONFIG,delta=2 ;#
# 7 "C:\Users\Varush\Documents\Microcontroladores\Lenguaje C\ADC_en_LCD.c"
	dw 0xFFFF & 0xFFFF ;#
	FNCALL	_main,_lcd_init
	FNCALL	_main,_lcd_goto
	FNCALL	_main,_lcd_puts
	FNCALL	_main,___lwtoft
	FNCALL	_main,___ftmul
	FNCALL	_main,_sprintf
	FNCALL	_main,_pause
	FNCALL	_lcd_init,_pause
	FNCALL	_lcd_init,_lcd_write
	FNCALL	_lcd_init,_lcd_clear
	FNCALL	_lcd_clear,_lcd_write
	FNCALL	_lcd_clear,_pause
	FNCALL	_sprintf,___wmul
	FNCALL	_sprintf,_isdigit
	FNCALL	_sprintf,___ftge
	FNCALL	_sprintf,___ftneg
	FNCALL	_sprintf,___awdiv
	FNCALL	_sprintf,_scale
	FNCALL	_sprintf,___ftmul
	FNCALL	_sprintf,_fround
	FNCALL	_sprintf,___ftadd
	FNCALL	_sprintf,___fttol
	FNCALL	_sprintf,__div_to_l_
	FNCALL	_sprintf,__tdiv_to_l_
	FNCALL	_sprintf,___lltoft
	FNCALL	_sprintf,___ftsub
	FNCALL	_sprintf,___lldiv
	FNCALL	_sprintf,___llmod
	FNCALL	_lcd_puts,_lcd_write
	FNCALL	_lcd_goto,_lcd_write
	FNCALL	___ftsub,___ftadd
	FNCALL	_scale,___awmod
	FNCALL	_scale,___awdiv
	FNCALL	_scale,___ftmul
	FNCALL	_scale,___bmul
	FNCALL	_fround,___lbmod
	FNCALL	_fround,___bmul
	FNCALL	_fround,___lbdiv
	FNCALL	_fround,___ftmul
	FNCALL	_lcd_write,_pause
	FNCALL	___lltoft,___ftpack
	FNCALL	___lwtoft,___ftpack
	FNCALL	___ftmul,___ftpack
	FNCALL	___ftadd,___ftpack
	FNCALL	_pause,_msecbase
	FNROOT	_main
	global	__npowers_
psect	strings,class=STRING,delta=2
global __pstrings
__pstrings:
;	global	stringdir,stringtab,__stringbase
stringtab:
;	String table - string pointers are 1 byte each
	btfsc	(btemp+1),7
	ljmp	stringcode
	bcf	status,7
	btfsc	(btemp+1),0
	bsf	status,7
	movf	indf,w
	incf fsr
skipnz
incf btemp+1
	return
stringcode:stringdir:
movlw high(stringdir)
movwf pclath
movf fsr,w
incf fsr
	addwf pc
__stringbase:
	retlw	0
psect	strings
	file	"C:\Program Files (x86)\HI-TECH Software\PICC\9.82\sources\powers.c"
	line	39
__npowers_:
	retlw	0x0
	retlw	0x80
	retlw	0x3f

	retlw	0xcd
	retlw	0xcc
	retlw	0x3d

	retlw	0xd7
	retlw	0x23
	retlw	0x3c

	retlw	0x12
	retlw	0x83
	retlw	0x3a

	retlw	0xb7
	retlw	0xd1
	retlw	0x38

	retlw	0xc6
	retlw	0x27
	retlw	0x37

	retlw	0x38
	retlw	0x86
	retlw	0x35

	retlw	0xc0
	retlw	0xd6
	retlw	0x33

	retlw	0xcc
	retlw	0x2b
	retlw	0x32

	retlw	0x70
	retlw	0x89
	retlw	0x30

	retlw	0xe7
	retlw	0xdb
	retlw	0x2e

	retlw	0xe5
	retlw	0x3c
	retlw	0x1e

	retlw	0x42
	retlw	0xa2
	retlw	0xd

	global	__powers_
psect	strings
	file	"C:\Program Files (x86)\HI-TECH Software\PICC\9.82\sources\powers.c"
	line	7
__powers_:
	retlw	0x0
	retlw	0x80
	retlw	0x3f

	retlw	0x0
	retlw	0x20
	retlw	0x41

	retlw	0x0
	retlw	0xc8
	retlw	0x42

	retlw	0x0
	retlw	0x7a
	retlw	0x44

	retlw	0x40
	retlw	0x1c
	retlw	0x46

	retlw	0x50
	retlw	0xc3
	retlw	0x47

	retlw	0x24
	retlw	0x74
	retlw	0x49

	retlw	0x97
	retlw	0x18
	retlw	0x4b

	retlw	0xbc
	retlw	0xbe
	retlw	0x4c

	retlw	0x6b
	retlw	0x6e
	retlw	0x4e

	retlw	0x3
	retlw	0x15
	retlw	0x50

	retlw	0x79
	retlw	0xad
	retlw	0x60

	retlw	0xf3
	retlw	0x49
	retlw	0x71

	global	_dpowers
psect	strings
	file	"C:\Program Files (x86)\HI-TECH Software\PICC\9.82\lib\doprnt.c"
	line	350
_dpowers:
	retlw	01h
	retlw	0
	retlw	0
	retlw	0

	retlw	0Ah
	retlw	0
	retlw	0
	retlw	0

	retlw	064h
	retlw	0
	retlw	0
	retlw	0

	retlw	0E8h
	retlw	03h
	retlw	0
	retlw	0

	retlw	010h
	retlw	027h
	retlw	0
	retlw	0

	retlw	0A0h
	retlw	086h
	retlw	01h
	retlw	0

	retlw	040h
	retlw	042h
	retlw	0Fh
	retlw	0

	retlw	080h
	retlw	096h
	retlw	098h
	retlw	0

	retlw	0
	retlw	0E1h
	retlw	0F5h
	retlw	05h

	retlw	0
	retlw	0CAh
	retlw	09Ah
	retlw	03Bh

	global	__npowers_
	global	__powers_
	global	_dpowers
	global	_num
	global	_VAD
	global	_carac
	global	_ADCON0
_ADCON0	set	31
	global	_ADRESH
_ADRESH	set	30
	global	_PORTC
_PORTC	set	7
	global	_TMR0
_TMR0	set	1
	global	_GO_DONE
_GO_DONE	set	249
	global	_RD1
_RD1	set	65
	global	_RD2
_RD2	set	66
	global	_RD4
_RD4	set	68
	global	_T0IF
_T0IF	set	90
	global	_ADCON1
_ADCON1	set	159
	global	_ADRESL
_ADRESL	set	158
	global	_OPTION_REG
_OPTION_REG	set	129
	global	_TRISA
_TRISA	set	133
	global	_TRISB
_TRISB	set	134
	global	_TRISC
_TRISC	set	135
	global	_TRISD
_TRISD	set	136
	global	_TRISE
_TRISE	set	137
	global	_ANSEL
_ANSEL	set	392
	global	_ANSELH
_ANSELH	set	393
	
STR_4:	
	retlw	37	;'%'
	retlw	46	;'.'
	retlw	51	;'3'
	retlw	102	;'f'
	retlw	0
psect	strings
	
STR_1:	
	retlw	86	;'V'
	retlw	49	;'1'
	retlw	58	;':'
	retlw	0
psect	strings
	
STR_2:	
	retlw	86	;'V'
	retlw	50	;'2'
	retlw	58	;':'
	retlw	0
psect	strings
	
STR_3:	
	retlw	86	;'V'
	retlw	51	;'3'
	retlw	58	;':'
	retlw	0
psect	strings
STR_5	equ	STR_4+0
STR_6	equ	STR_4+0
	file	"ADC_LCD.as"
	line	#
psect cinit,class=CODE,delta=2
global start_initialization
start_initialization:

psect	bssBANK0,class=BANK0,space=1
global __pbssBANK0
__pbssBANK0:
_num:
       ds      3

_VAD:
       ds      2

_carac:
       ds      5

; Clear objects allocated to BANK0
psect cinit,class=CODE,delta=2
	clrf	((__pbssBANK0)+0)&07Fh
	clrf	((__pbssBANK0)+1)&07Fh
	clrf	((__pbssBANK0)+2)&07Fh
	clrf	((__pbssBANK0)+3)&07Fh
	clrf	((__pbssBANK0)+4)&07Fh
	clrf	((__pbssBANK0)+5)&07Fh
	clrf	((__pbssBANK0)+6)&07Fh
	clrf	((__pbssBANK0)+7)&07Fh
	clrf	((__pbssBANK0)+8)&07Fh
	clrf	((__pbssBANK0)+9)&07Fh
psect cinit,class=CODE,delta=2
global end_of_initialization

;End of C runtime variable initialization code

end_of_initialization:
clrf status
ljmp _main	;jump to C main() function
psect	cstackBANK1,class=BANK1,space=1
global __pcstackBANK1
__pcstackBANK1:
	global	_sprintf$2306
_sprintf$2306:	; 4 bytes @ 0x0
	ds	4
	global	sprintf@ap
sprintf@ap:	; 1 bytes @ 0x4
	ds	1
	global	sprintf@flag
sprintf@flag:	; 2 bytes @ 0x5
	ds	2
	global	sprintf@integ
sprintf@integ:	; 3 bytes @ 0x7
	ds	3
	global	sprintf@_val
sprintf@_val:	; 4 bytes @ 0xA
	ds	4
	global	sprintf@sp
sprintf@sp:	; 1 bytes @ 0xE
	ds	1
	global	sprintf@exp
sprintf@exp:	; 2 bytes @ 0xF
	ds	2
	global	sprintf@prec
sprintf@prec:	; 2 bytes @ 0x11
	ds	2
	global	sprintf@fval
sprintf@fval:	; 3 bytes @ 0x13
	ds	3
	global	sprintf@c
sprintf@c:	; 1 bytes @ 0x16
	ds	1
psect	cstackCOMMON,class=COMMON,space=1
global __pcstackCOMMON
__pcstackCOMMON:
	global	?_lcd_init
?_lcd_init:	; 0 bytes @ 0x0
	global	?_lcd_goto
?_lcd_goto:	; 0 bytes @ 0x0
	global	?_pause
?_pause:	; 0 bytes @ 0x0
	global	?_msecbase
?_msecbase:	; 0 bytes @ 0x0
	global	??_msecbase
??_msecbase:	; 0 bytes @ 0x0
	global	?_isdigit
?_isdigit:	; 1 bit 
	global	??_isdigit
??_isdigit:	; 0 bytes @ 0x0
	global	?_main
?_main:	; 0 bytes @ 0x0
	global	?_lcd_write
?_lcd_write:	; 0 bytes @ 0x0
	global	?_lcd_clear
?_lcd_clear:	; 0 bytes @ 0x0
	global	?___ftge
?___ftge:	; 1 bit 
	global	?___lbmod
?___lbmod:	; 1 bytes @ 0x0
	global	?___wmul
?___wmul:	; 2 bytes @ 0x0
	global	?___awmod
?___awmod:	; 2 bytes @ 0x0
	global	?___ftpack
?___ftpack:	; 3 bytes @ 0x0
	global	?___ftneg
?___ftneg:	; 3 bytes @ 0x0
	global	?__tdiv_to_l_
?__tdiv_to_l_:	; 4 bytes @ 0x0
	global	?__div_to_l_
?__div_to_l_:	; 4 bytes @ 0x0
	global	?___lldiv
?___lldiv:	; 4 bytes @ 0x0
	global	_isdigit$2814
_isdigit$2814:	; 1 bytes @ 0x0
	global	___lbmod@divisor
___lbmod@divisor:	; 1 bytes @ 0x0
	global	pause@usvalue
pause@usvalue:	; 2 bytes @ 0x0
	global	___wmul@multiplier
___wmul@multiplier:	; 2 bytes @ 0x0
	global	___awmod@divisor
___awmod@divisor:	; 2 bytes @ 0x0
	global	___ftneg@f1
___ftneg@f1:	; 3 bytes @ 0x0
	global	___ftge@ff1
___ftge@ff1:	; 3 bytes @ 0x0
	global	__tdiv_to_l_@f1
__tdiv_to_l_@f1:	; 3 bytes @ 0x0
	global	__div_to_l_@f1
__div_to_l_@f1:	; 3 bytes @ 0x0
	global	___ftpack@arg
___ftpack@arg:	; 3 bytes @ 0x0
	global	___lldiv@divisor
___lldiv@divisor:	; 4 bytes @ 0x0
	ds	1
	global	??___lbmod
??___lbmod:	; 0 bytes @ 0x1
	global	isdigit@c
isdigit@c:	; 1 bytes @ 0x1
	ds	1
	global	??_pause
??_pause:	; 0 bytes @ 0x2
	global	___lbmod@dividend
___lbmod@dividend:	; 1 bytes @ 0x2
	global	pause@x
pause@x:	; 2 bytes @ 0x2
	global	___wmul@multiplicand
___wmul@multiplicand:	; 2 bytes @ 0x2
	global	___awmod@dividend
___awmod@dividend:	; 2 bytes @ 0x2
	ds	1
	global	??___ftneg
??___ftneg:	; 0 bytes @ 0x3
	global	___lbmod@counter
___lbmod@counter:	; 1 bytes @ 0x3
	global	___ftpack@exp
___ftpack@exp:	; 1 bytes @ 0x3
	global	___ftge@ff2
___ftge@ff2:	; 3 bytes @ 0x3
	global	__tdiv_to_l_@f2
__tdiv_to_l_@f2:	; 3 bytes @ 0x3
	global	__div_to_l_@f2
__div_to_l_@f2:	; 3 bytes @ 0x3
	ds	1
	global	??_lcd_write
??_lcd_write:	; 0 bytes @ 0x4
	global	??___wmul
??___wmul:	; 0 bytes @ 0x4
	global	??___awmod
??___awmod:	; 0 bytes @ 0x4
	global	lcd_write@c
lcd_write@c:	; 1 bytes @ 0x4
	global	___lbmod@rem
___lbmod@rem:	; 1 bytes @ 0x4
	global	___awmod@counter
___awmod@counter:	; 1 bytes @ 0x4
	global	___ftpack@sign
___ftpack@sign:	; 1 bytes @ 0x4
	global	___wmul@product
___wmul@product:	; 2 bytes @ 0x4
	global	___lldiv@dividend
___lldiv@dividend:	; 4 bytes @ 0x4
	ds	1
	global	??_lcd_init
??_lcd_init:	; 0 bytes @ 0x5
	global	??_lcd_goto
??_lcd_goto:	; 0 bytes @ 0x5
	global	?_lcd_puts
?_lcd_puts:	; 0 bytes @ 0x5
	global	??___ftpack
??___ftpack:	; 0 bytes @ 0x5
	global	??_lcd_clear
??_lcd_clear:	; 0 bytes @ 0x5
	global	?___lbdiv
?___lbdiv:	; 1 bytes @ 0x5
	global	lcd_goto@pos
lcd_goto@pos:	; 1 bytes @ 0x5
	global	___lbdiv@divisor
___lbdiv@divisor:	; 1 bytes @ 0x5
	global	___awmod@sign
___awmod@sign:	; 1 bytes @ 0x5
	global	lcd_puts@s
lcd_puts@s:	; 2 bytes @ 0x5
	ds	1
	global	??__tdiv_to_l_
??__tdiv_to_l_:	; 0 bytes @ 0x6
	global	??__div_to_l_
??__div_to_l_:	; 0 bytes @ 0x6
	global	??___lbdiv
??___lbdiv:	; 0 bytes @ 0x6
	global	??___ftge
??___ftge:	; 0 bytes @ 0x6
	global	?___awdiv
?___awdiv:	; 2 bytes @ 0x6
	global	___lbdiv@dividend
___lbdiv@dividend:	; 1 bytes @ 0x6
	global	___awdiv@divisor
___awdiv@divisor:	; 2 bytes @ 0x6
	ds	1
	global	??_lcd_puts
??_lcd_puts:	; 0 bytes @ 0x7
	global	___lbdiv@counter
___lbdiv@counter:	; 1 bytes @ 0x7
	ds	1
	global	??___lldiv
??___lldiv:	; 0 bytes @ 0x8
	global	?___lwtoft
?___lwtoft:	; 3 bytes @ 0x8
	global	?___lltoft
?___lltoft:	; 3 bytes @ 0x8
	global	___lbdiv@quotient
___lbdiv@quotient:	; 1 bytes @ 0x8
	global	___awdiv@dividend
___awdiv@dividend:	; 2 bytes @ 0x8
	global	___lwtoft@c
___lwtoft@c:	; 2 bytes @ 0x8
	global	___lldiv@quotient
___lldiv@quotient:	; 4 bytes @ 0x8
	global	___lltoft@c
___lltoft@c:	; 4 bytes @ 0x8
	ds	1
	global	?___bmul
?___bmul:	; 1 bytes @ 0x9
	global	___bmul@multiplicand
___bmul@multiplicand:	; 1 bytes @ 0x9
	ds	1
	global	??___bmul
??___bmul:	; 0 bytes @ 0xA
	global	??___awdiv
??___awdiv:	; 0 bytes @ 0xA
	global	___bmul@product
___bmul@product:	; 1 bytes @ 0xA
	global	___awdiv@counter
___awdiv@counter:	; 1 bytes @ 0xA
	ds	1
	global	??___lwtoft
??___lwtoft:	; 0 bytes @ 0xB
	global	___bmul@multiplier
___bmul@multiplier:	; 1 bytes @ 0xB
	global	___awdiv@sign
___awdiv@sign:	; 1 bytes @ 0xB
	ds	1
	global	??___lltoft
??___lltoft:	; 0 bytes @ 0xC
	global	___lldiv@counter
___lldiv@counter:	; 1 bytes @ 0xC
	global	___lltoft@exp
___lltoft@exp:	; 1 bytes @ 0xC
	global	___awdiv@quotient
___awdiv@quotient:	; 2 bytes @ 0xC
	ds	1
	global	??___llmod
??___llmod:	; 0 bytes @ 0xD
	global	___llmod@counter
___llmod@counter:	; 1 bytes @ 0xD
	ds	1
	global	??_main
??_main:	; 0 bytes @ 0xE
	global	??_fround
??_fround:	; 0 bytes @ 0xE
	global	??___ftsub
??___ftsub:	; 0 bytes @ 0xE
psect	cstackBANK0,class=BANK0,space=1
global __pcstackBANK0
__pcstackBANK0:
	global	?___fttol
?___fttol:	; 4 bytes @ 0x0
	global	?___llmod
?___llmod:	; 4 bytes @ 0x0
	global	___fttol@f1
___fttol@f1:	; 3 bytes @ 0x0
	global	___llmod@divisor
___llmod@divisor:	; 4 bytes @ 0x0
	global	__tdiv_to_l_@quot
__tdiv_to_l_@quot:	; 4 bytes @ 0x0
	global	__div_to_l_@quot
__div_to_l_@quot:	; 4 bytes @ 0x0
	ds	4
	global	??___fttol
??___fttol:	; 0 bytes @ 0x4
	global	__tdiv_to_l_@cntr
__tdiv_to_l_@cntr:	; 1 bytes @ 0x4
	global	__div_to_l_@cntr
__div_to_l_@cntr:	; 1 bytes @ 0x4
	global	___llmod@dividend
___llmod@dividend:	; 4 bytes @ 0x4
	ds	1
	global	__tdiv_to_l_@exp1
__tdiv_to_l_@exp1:	; 1 bytes @ 0x5
	global	__div_to_l_@exp1
__div_to_l_@exp1:	; 1 bytes @ 0x5
	ds	2
	global	___fttol@sign1
___fttol@sign1:	; 1 bytes @ 0x7
	ds	1
	global	___fttol@lval
___fttol@lval:	; 4 bytes @ 0x8
	ds	4
	global	___fttol@exp1
___fttol@exp1:	; 1 bytes @ 0xC
	ds	1
	global	?___ftmul
?___ftmul:	; 3 bytes @ 0xD
	global	___ftmul@f1
___ftmul@f1:	; 3 bytes @ 0xD
	ds	3
	global	___ftmul@f2
___ftmul@f2:	; 3 bytes @ 0x10
	ds	3
	global	??___ftmul
??___ftmul:	; 0 bytes @ 0x13
	ds	3
	global	___ftmul@exp
___ftmul@exp:	; 1 bytes @ 0x16
	ds	1
	global	___ftmul@f3_as_product
___ftmul@f3_as_product:	; 3 bytes @ 0x17
	ds	3
	global	___ftmul@cntr
___ftmul@cntr:	; 1 bytes @ 0x1A
	ds	1
	global	___ftmul@sign
___ftmul@sign:	; 1 bytes @ 0x1B
	ds	1
	global	?_scale
?_scale:	; 3 bytes @ 0x1C
	global	?___ftadd
?___ftadd:	; 3 bytes @ 0x1C
	global	___ftadd@f1
___ftadd@f1:	; 3 bytes @ 0x1C
	ds	3
	global	??_scale
??_scale:	; 0 bytes @ 0x1F
	global	___ftadd@f2
___ftadd@f2:	; 3 bytes @ 0x1F
	ds	3
	global	??___ftadd
??___ftadd:	; 0 bytes @ 0x22
	ds	1
	global	_scale$3246
_scale$3246:	; 3 bytes @ 0x23
	ds	2
	global	___ftadd@sign
___ftadd@sign:	; 1 bytes @ 0x25
	ds	1
	global	scale@scl
scale@scl:	; 1 bytes @ 0x26
	global	___ftadd@exp2
___ftadd@exp2:	; 1 bytes @ 0x26
	ds	1
	global	___ftadd@exp1
___ftadd@exp1:	; 1 bytes @ 0x27
	ds	1
	global	?_fround
?_fround:	; 3 bytes @ 0x28
	global	?___ftsub
?___ftsub:	; 3 bytes @ 0x28
	global	___ftsub@f2
___ftsub@f2:	; 3 bytes @ 0x28
	ds	3
	global	___ftsub@f1
___ftsub@f1:	; 3 bytes @ 0x2B
	global	_fround$3245
_fround$3245:	; 3 bytes @ 0x2B
	ds	3
	global	_fround$3244
_fround$3244:	; 3 bytes @ 0x2E
	ds	3
	global	fround@prec
fround@prec:	; 1 bytes @ 0x31
	ds	1
	global	?_sprintf
?_sprintf:	; 2 bytes @ 0x32
	global	sprintf@f
sprintf@f:	; 1 bytes @ 0x32
	ds	4
	global	??_sprintf
??_sprintf:	; 0 bytes @ 0x36
	ds	5
;;Data sizes: Strings 17, constant 118, data 0, bss 10, persistent 0 stack 0
;;Auto spaces:   Size  Autos    Used
;; COMMON          14     14      14
;; BANK0           80     59      69
;; BANK1           80     23      23
;; BANK3           96      0       0
;; BANK2           96      0       0

;;
;; Pointer list with targets:

;; ?___ftpack	float  size(1) Largest target is 0
;;
;; ?___lldiv	unsigned long  size(1) Largest target is 0
;;
;; ?___llmod	unsigned long  size(1) Largest target is 0
;;
;; ?___ftsub	float  size(1) Largest target is 0
;;
;; ?___lltoft	float  size(1) Largest target is 0
;;
;; ?__tdiv_to_l_	unsigned long  size(1) Largest target is 0
;;
;; ?__div_to_l_	unsigned long  size(1) Largest target is 0
;;
;; ?___fttol	long  size(1) Largest target is 0
;;
;; ?___ftadd	float  size(1) Largest target is 0
;;
;; ?___ftneg	float  size(1) Largest target is 0
;;
;; ?___awmod	int  size(1) Largest target is 40
;;		 -> dpowers(CODE[40]), 
;;
;; ?___awdiv	int  size(1) Largest target is 0
;;
;; ?_scale	int  size(1) Largest target is 0
;;
;; ?___wmul	unsigned int  size(1) Largest target is 0
;;
;; ?_fround	unsigned int  size(1) Largest target is 0
;;
;; ?___ftmul	float  size(1) Largest target is 0
;;
;; ?___lwtoft	float  size(1) Largest target is 0
;;
;; sprintf@f	PTR const unsigned char  size(1) Largest target is 5
;;		 -> STR_6(CODE[5]), STR_5(CODE[5]), STR_4(CODE[5]), 
;;
;; sprintf@sp	PTR unsigned char  size(1) Largest target is 5
;;		 -> carac(BANK0[5]), 
;;
;; ?_sprintf	int  size(1) Largest target is 0
;;
;; sprintf@ap	PTR void [1] size(1) Largest target is 2
;;		 -> ?_sprintf(BANK0[2]), 
;;
;; S2295$_cp	PTR const unsigned char  size(1) Largest target is 0
;;
;; _val._str._cp	PTR const unsigned char  size(1) Largest target is 0
;;
;; lcd_puts@s	PTR const unsigned char  size(2) Largest target is 5
;;		 -> carac(BANK0[5]), STR_3(CODE[4]), STR_2(CODE[4]), STR_1(CODE[4]), 
;;


;;
;; Critical Paths under _main in COMMON
;;
;;   _lcd_init->_lcd_write
;;   _lcd_clear->_lcd_write
;;   _sprintf->___awdiv
;;   _sprintf->__div_to_l_
;;   _sprintf->___llmod
;;   _lcd_puts->_lcd_write
;;   _lcd_goto->_lcd_write
;;   _scale->___awdiv
;;   _lcd_write->_pause
;;   ___lltoft->___ftpack
;;   ___lwtoft->___ftpack
;;   ___ftmul->___awdiv
;;   ___llmod->___lldiv
;;   ___awdiv->___awmod
;;   ___fttol->___awdiv
;;   ___lbdiv->___lbmod
;;   ___bmul->___lbdiv
;;
;; Critical Paths under _main in BANK0
;;
;;   _main->_sprintf
;;   _sprintf->_fround
;;   ___ftsub->___ftadd
;;   _scale->___ftmul
;;   _fround->___ftadd
;;   ___ftmul->___fttol
;;   ___ftadd->___ftmul
;;
;; Critical Paths under _main in BANK1
;;
;;   _main->_sprintf
;;
;; Critical Paths under _main in BANK3
;;
;;   None.
;;
;; Critical Paths under _main in BANK2
;;
;;   None.

;;
;;Main: autosize = 0, tempsize = 0, incstack = 0, save=0
;;

;;
;;Call Graph Tables:
;;
;; ---------------------------------------------------------------------------------
;; (Depth) Function   	        Calls       Base Space   Used Autos Params    Refs
;; ---------------------------------------------------------------------------------
;; (0) _main                                                 0     0      0   10975
;;                           _lcd_init
;;                           _lcd_goto
;;                           _lcd_puts
;;                           ___lwtoft
;;                            ___ftmul
;;                            _sprintf
;;                              _pause
;; ---------------------------------------------------------------------------------
;; (1) _lcd_init                                             1     1      0     295
;;                                              5 COMMON     1     1      0
;;                              _pause
;;                          _lcd_write
;;                          _lcd_clear
;; ---------------------------------------------------------------------------------
;; (2) _lcd_clear                                            0     0      0     136
;;                          _lcd_write
;;                              _pause
;; ---------------------------------------------------------------------------------
;; (1) _sprintf                                             38    34      4    9621
;;                                             50 BANK0      9     5      4
;;                                              0 BANK1     23    23      0
;;                             ___wmul
;;                            _isdigit
;;                             ___ftge
;;                            ___ftneg
;;                            ___awdiv
;;                              _scale
;;                            ___ftmul
;;                             _fround
;;                            ___ftadd
;;                            ___fttol
;;                         __div_to_l_
;;                        __tdiv_to_l_
;;                           ___lltoft
;;                            ___ftsub
;;                            ___lldiv
;;                            ___llmod
;; ---------------------------------------------------------------------------------
;; (1) _lcd_puts                                             2     0      2     135
;;                                              5 COMMON     2     0      2
;;                          _lcd_write
;; ---------------------------------------------------------------------------------
;; (1) _lcd_goto                                             1     1      0     112
;;                                              5 COMMON     1     1      0
;;                          _lcd_write
;; ---------------------------------------------------------------------------------
;; (2) ___ftsub                                              6     0      6    1094
;;                                             40 BANK0      6     0      6
;;                            ___ftadd
;;                           ___lltoft (ARG)
;; ---------------------------------------------------------------------------------
;; (2) _scale                                               14    11      3    1688
;;                                             28 BANK0     11     8      3
;;                            ___awmod
;;                            ___awdiv
;;                            ___ftmul
;;                             ___bmul
;;                            ___fttol (ARG)
;; ---------------------------------------------------------------------------------
;; (2) _fround                                              13    10      3    1215
;;                                             40 BANK0     10     7      3
;;                            ___lbmod
;;                             ___bmul
;;                            ___lbdiv
;;                            ___ftmul
;;                            ___ftadd (ARG)
;; ---------------------------------------------------------------------------------
;; (2) _lcd_write                                            1     1      0      90
;;                                              4 COMMON     1     1      0
;;                              _pause
;; ---------------------------------------------------------------------------------
;; (2) ___lltoft                                             5     1      4     278
;;                                              8 COMMON     5     1      4
;;                           ___ftpack
;; ---------------------------------------------------------------------------------
;; (1) ___lwtoft                                             3     0      3     231
;;                                              8 COMMON     3     0      3
;;                           ___ftpack
;; ---------------------------------------------------------------------------------
;; (3) ___ftmul                                             15     9      6     535
;;                                             13 BANK0     15     9      6
;;                           ___ftpack
;;                           ___lwtoft (ARG)
;;                            ___fttol (ARG)
;;                            ___awdiv (ARG)
;;                            ___awmod (ARG)
;;                             ___bmul (ARG)
;;                            ___lbdiv (ARG)
;;                            ___lbmod (ARG)
;; ---------------------------------------------------------------------------------
;; (3) ___ftadd                                             12     6      6    1049
;;                                             28 BANK0     12     6      6
;;                           ___ftpack
;;                            ___lbmod (ARG)
;;                             ___bmul (ARG)
;;                            ___lbdiv (ARG)
;;                            ___ftmul (ARG)
;; ---------------------------------------------------------------------------------
;; (1) _pause                                                4     2      2      46
;;                                              0 COMMON     4     2      2
;;                           _msecbase
;; ---------------------------------------------------------------------------------
;; (3) ___awmod                                              6     2      4     296
;;                                              0 COMMON     6     2      4
;; ---------------------------------------------------------------------------------
;; (2) ___lldiv                                             13     5      8     162
;;                                              0 COMMON    13     5      8
;; ---------------------------------------------------------------------------------
;; (2) ___ftge                                               6     0      6     136
;;                                              0 COMMON     6     0      6
;; ---------------------------------------------------------------------------------
;; (2) ___ftneg                                              3     0      3      45
;;                                              0 COMMON     3     0      3
;; ---------------------------------------------------------------------------------
;; (2) ___llmod                                              9     1      8     159
;;                                             13 COMMON     1     1      0
;;                                              0 BANK0      8     0      8
;;                            ___lldiv (ARG)
;; ---------------------------------------------------------------------------------
;; (3) ___awdiv                                              8     4      4     300
;;                                              6 COMMON     8     4      4
;;                            ___awmod (ARG)
;; ---------------------------------------------------------------------------------
;; (2) ___fttol                                             13     9      4     252
;;                                              0 BANK0     13     9      4
;;                           ___ftpack (ARG)
;;                            ___awmod (ARG)
;;                            ___awdiv (ARG)
;;                             ___bmul (ARG)
;; ---------------------------------------------------------------------------------
;; (4) ___ftpack                                             8     3      5     209
;;                                              0 COMMON     8     3      5
;; ---------------------------------------------------------------------------------
;; (3) ___lbmod                                              5     4      1     159
;;                                              0 COMMON     5     4      1
;; ---------------------------------------------------------------------------------
;; (3) ___lbdiv                                              4     3      1     162
;;                                              5 COMMON     4     3      1
;;                            ___lbmod (ARG)
;; ---------------------------------------------------------------------------------
;; (2) ___wmul                                               6     2      4      92
;;                                              0 COMMON     6     2      4
;; ---------------------------------------------------------------------------------
;; (3) ___bmul                                               3     2      1      68
;;                                              9 COMMON     3     2      1
;;                            ___lbmod (ARG)
;;                            ___lbdiv (ARG)
;; ---------------------------------------------------------------------------------
;; (2) __div_to_l_                                          20    14      6     446
;;                                              0 COMMON    14     8      6
;;                                              0 BANK0      6     6      0
;; ---------------------------------------------------------------------------------
;; (2) __tdiv_to_l_                                         15     9      6     303
;;                                              0 COMMON     9     3      6
;;                                              0 BANK0      6     6      0
;; ---------------------------------------------------------------------------------
;; (2) _isdigit                                              2     2      0      68
;;                                              0 COMMON     2     2      0
;; ---------------------------------------------------------------------------------
;; (2) _msecbase                                             0     0      0       0
;; ---------------------------------------------------------------------------------
;; Estimated maximum stack depth 4
;; ---------------------------------------------------------------------------------

;; Call Graph Graphs:

;; _main (ROOT)
;;   _lcd_init
;;     _pause
;;       _msecbase
;;     _lcd_write
;;       _pause
;;         _msecbase
;;     _lcd_clear
;;       _lcd_write
;;         _pause
;;           _msecbase
;;       _pause
;;         _msecbase
;;   _lcd_goto
;;     _lcd_write
;;       _pause
;;         _msecbase
;;   _lcd_puts
;;     _lcd_write
;;       _pause
;;         _msecbase
;;   ___lwtoft
;;     ___ftpack
;;   ___ftmul
;;     ___ftpack
;;     ___lwtoft (ARG)
;;       ___ftpack
;;     ___fttol (ARG)
;;       ___ftpack (ARG)
;;       ___awmod (ARG)
;;       ___awdiv (ARG)
;;         ___awmod (ARG)
;;       ___bmul (ARG)
;;         ___lbmod (ARG)
;;         ___lbdiv (ARG)
;;           ___lbmod (ARG)
;;     ___awdiv (ARG)
;;       ___awmod (ARG)
;;     ___awmod (ARG)
;;     ___bmul (ARG)
;;       ___lbmod (ARG)
;;       ___lbdiv (ARG)
;;         ___lbmod (ARG)
;;     ___lbdiv (ARG)
;;       ___lbmod (ARG)
;;     ___lbmod (ARG)
;;   _sprintf
;;     ___wmul
;;     _isdigit
;;     ___ftge
;;     ___ftneg
;;     ___awdiv
;;       ___awmod (ARG)
;;     _scale
;;       ___awmod
;;       ___awdiv
;;         ___awmod (ARG)
;;       ___ftmul
;;         ___ftpack
;;         ___lwtoft (ARG)
;;           ___ftpack
;;         ___fttol (ARG)
;;           ___ftpack (ARG)
;;           ___awmod (ARG)
;;           ___awdiv (ARG)
;;             ___awmod (ARG)
;;           ___bmul (ARG)
;;             ___lbmod (ARG)
;;             ___lbdiv (ARG)
;;               ___lbmod (ARG)
;;         ___awdiv (ARG)
;;           ___awmod (ARG)
;;         ___awmod (ARG)
;;         ___bmul (ARG)
;;           ___lbmod (ARG)
;;           ___lbdiv (ARG)
;;             ___lbmod (ARG)
;;         ___lbdiv (ARG)
;;           ___lbmod (ARG)
;;         ___lbmod (ARG)
;;       ___bmul
;;         ___lbmod (ARG)
;;         ___lbdiv (ARG)
;;           ___lbmod (ARG)
;;       ___fttol (ARG)
;;         ___ftpack (ARG)
;;         ___awmod (ARG)
;;         ___awdiv (ARG)
;;           ___awmod (ARG)
;;         ___bmul (ARG)
;;           ___lbmod (ARG)
;;           ___lbdiv (ARG)
;;             ___lbmod (ARG)
;;     ___ftmul
;;       ___ftpack
;;       ___lwtoft (ARG)
;;         ___ftpack
;;       ___fttol (ARG)
;;         ___ftpack (ARG)
;;         ___awmod (ARG)
;;         ___awdiv (ARG)
;;           ___awmod (ARG)
;;         ___bmul (ARG)
;;           ___lbmod (ARG)
;;           ___lbdiv (ARG)
;;             ___lbmod (ARG)
;;       ___awdiv (ARG)
;;         ___awmod (ARG)
;;       ___awmod (ARG)
;;       ___bmul (ARG)
;;         ___lbmod (ARG)
;;         ___lbdiv (ARG)
;;           ___lbmod (ARG)
;;       ___lbdiv (ARG)
;;         ___lbmod (ARG)
;;       ___lbmod (ARG)
;;     _fround
;;       ___lbmod
;;       ___bmul
;;         ___lbmod (ARG)
;;         ___lbdiv (ARG)
;;           ___lbmod (ARG)
;;       ___lbdiv
;;         ___lbmod (ARG)
;;       ___ftmul
;;         ___ftpack
;;         ___lwtoft (ARG)
;;           ___ftpack
;;         ___fttol (ARG)
;;           ___ftpack (ARG)
;;           ___awmod (ARG)
;;           ___awdiv (ARG)
;;             ___awmod (ARG)
;;           ___bmul (ARG)
;;             ___lbmod (ARG)
;;             ___lbdiv (ARG)
;;               ___lbmod (ARG)
;;         ___awdiv (ARG)
;;           ___awmod (ARG)
;;         ___awmod (ARG)
;;         ___bmul (ARG)
;;           ___lbmod (ARG)
;;           ___lbdiv (ARG)
;;             ___lbmod (ARG)
;;         ___lbdiv (ARG)
;;           ___lbmod (ARG)
;;         ___lbmod (ARG)
;;       ___ftadd (ARG)
;;         ___ftpack
;;         ___lbmod (ARG)
;;         ___bmul (ARG)
;;           ___lbmod (ARG)
;;           ___lbdiv (ARG)
;;             ___lbmod (ARG)
;;         ___lbdiv (ARG)
;;           ___lbmod (ARG)
;;         ___ftmul (ARG)
;;           ___ftpack
;;           ___lwtoft (ARG)
;;             ___ftpack
;;           ___fttol (ARG)
;;             ___ftpack (ARG)
;;             ___awmod (ARG)
;;             ___awdiv (ARG)
;;               ___awmod (ARG)
;;             ___bmul (ARG)
;;               ___lbmod (ARG)
;;               ___lbdiv (ARG)
;;                 ___lbmod (ARG)
;;           ___awdiv (ARG)
;;             ___awmod (ARG)
;;           ___awmod (ARG)
;;           ___bmul (ARG)
;;             ___lbmod (ARG)
;;             ___lbdiv (ARG)
;;               ___lbmod (ARG)
;;           ___lbdiv (ARG)
;;             ___lbmod (ARG)
;;           ___lbmod (ARG)
;;     ___ftadd
;;       ___ftpack
;;       ___lbmod (ARG)
;;       ___bmul (ARG)
;;         ___lbmod (ARG)
;;         ___lbdiv (ARG)
;;           ___lbmod (ARG)
;;       ___lbdiv (ARG)
;;         ___lbmod (ARG)
;;       ___ftmul (ARG)
;;         ___ftpack
;;         ___lwtoft (ARG)
;;           ___ftpack
;;         ___fttol (ARG)
;;           ___ftpack (ARG)
;;           ___awmod (ARG)
;;           ___awdiv (ARG)
;;             ___awmod (ARG)
;;           ___bmul (ARG)
;;             ___lbmod (ARG)
;;             ___lbdiv (ARG)
;;               ___lbmod (ARG)
;;         ___awdiv (ARG)
;;           ___awmod (ARG)
;;         ___awmod (ARG)
;;         ___bmul (ARG)
;;           ___lbmod (ARG)
;;           ___lbdiv (ARG)
;;             ___lbmod (ARG)
;;         ___lbdiv (ARG)
;;           ___lbmod (ARG)
;;         ___lbmod (ARG)
;;     ___fttol
;;       ___ftpack (ARG)
;;       ___awmod (ARG)
;;       ___awdiv (ARG)
;;         ___awmod (ARG)
;;       ___bmul (ARG)
;;         ___lbmod (ARG)
;;         ___lbdiv (ARG)
;;           ___lbmod (ARG)
;;     __div_to_l_
;;     __tdiv_to_l_
;;     ___lltoft
;;       ___ftpack
;;     ___ftsub
;;       ___ftadd
;;         ___ftpack
;;         ___lbmod (ARG)
;;         ___bmul (ARG)
;;           ___lbmod (ARG)
;;           ___lbdiv (ARG)
;;             ___lbmod (ARG)
;;         ___lbdiv (ARG)
;;           ___lbmod (ARG)
;;         ___ftmul (ARG)
;;           ___ftpack
;;           ___lwtoft (ARG)
;;             ___ftpack
;;           ___fttol (ARG)
;;             ___ftpack (ARG)
;;             ___awmod (ARG)
;;             ___awdiv (ARG)
;;               ___awmod (ARG)
;;             ___bmul (ARG)
;;               ___lbmod (ARG)
;;               ___lbdiv (ARG)
;;                 ___lbmod (ARG)
;;           ___awdiv (ARG)
;;             ___awmod (ARG)
;;           ___awmod (ARG)
;;           ___bmul (ARG)
;;             ___lbmod (ARG)
;;             ___lbdiv (ARG)
;;               ___lbmod (ARG)
;;           ___lbdiv (ARG)
;;             ___lbmod (ARG)
;;           ___lbmod (ARG)
;;       ___lltoft (ARG)
;;         ___ftpack
;;     ___lldiv
;;     ___llmod
;;       ___lldiv (ARG)
;;   _pause
;;     _msecbase
;;

;; Address spaces:

;;Name               Size   Autos  Total    Cost      Usage
;;BITCOMMON            E      0       0       0        0.0%
;;EEDATA             100      0       0       0        0.0%
;;NULL                 0      0       0       0        0.0%
;;CODE                 0      0       0       0        0.0%
;;COMMON               E      E       E       1      100.0%
;;BITSFR0              0      0       0       1        0.0%
;;SFR0                 0      0       0       1        0.0%
;;BITSFR1              0      0       0       2        0.0%
;;SFR1                 0      0       0       2        0.0%
;;STACK                0      0       5       2        0.0%
;;ABS                  0      0      6A       3        0.0%
;;BITBANK0            50      0       0       4        0.0%
;;BITSFR3              0      0       0       4        0.0%
;;SFR3                 0      0       0       4        0.0%
;;BANK0               50     3B      45       5       86.3%
;;BITSFR2              0      0       0       5        0.0%
;;SFR2                 0      0       0       5        0.0%
;;BITBANK1            50      0       0       6        0.0%
;;BANK1               50     17      17       7       28.8%
;;BITBANK3            60      0       0       8        0.0%
;;BANK3               60      0       0       9        0.0%
;;BITBANK2            60      0       0      10        0.0%
;;BANK2               60      0       0      11        0.0%
;;DATA                 0      0      6F      12        0.0%

	global	_main
psect	maintext,global,class=CODE,delta=2
global __pmaintext
__pmaintext:

;; *************** function _main *****************
;; Defined at:
;;		line 16 in file "C:\Users\Varush\Documents\Microcontroladores\Lenguaje C\ADC_en_LCD.c"
;; Parameters:    Size  Location     Type
;;		None
;; Auto vars:     Size  Location     Type
;;		None
;; Return value:  Size  Location     Type
;;		None               void
;; Registers used:
;;		wreg, fsr0l, fsr0h, status,2, status,0, btemp+1, pclath, cstack
;; Tracked objects:
;;		On entry : 17F/0
;;		On exit  : 0/0
;;		Unchanged: FFE00/0
;; Data sizes:     COMMON   BANK0   BANK1   BANK3   BANK2
;;      Params:         0       0       0       0       0
;;      Locals:         0       0       0       0       0
;;      Temps:          0       0       0       0       0
;;      Totals:         0       0       0       0       0
;;Total ram usage:        0 bytes
;; Hardware stack levels required when called:    5
;; This function calls:
;;		_lcd_init
;;		_lcd_goto
;;		_lcd_puts
;;		___lwtoft
;;		___ftmul
;;		_sprintf
;;		_pause
;; This function is called by:
;;		Startup code after reset
;; This function uses a non-reentrant model
;;
psect	maintext
	file	"C:\Users\Varush\Documents\Microcontroladores\Lenguaje C\ADC_en_LCD.c"
	line	16
	global	__size_of_main
	__size_of_main	equ	__end_of_main-_main
	
_main:	
	opt	stack 3
; Regs used in _main: [wreg-fsr0h+status,2+status,0+btemp+1+pclath+cstack]
	line	17
	
l6407:	
;ADC_en_LCD.c: 17: ANSEL = 0xE0;
	movlw	(0E0h)
	bsf	status, 5	;RP0=1, select bank3
	bsf	status, 6	;RP1=1, select bank3
	movwf	(392)^0180h	;volatile
	line	18
	
l6409:	
;ADC_en_LCD.c: 18: ANSELH = 0x00;
	clrf	(393)^0180h	;volatile
	line	20
	
l6411:	
;ADC_en_LCD.c: 20: ADCON1 = 0x80;
	movlw	(080h)
	bcf	status, 6	;RP1=0, select bank1
	movwf	(159)^080h	;volatile
	line	22
;ADC_en_LCD.c: 22: TRISA = 0x00;
	clrf	(133)^080h	;volatile
	line	23
	
l6413:	
;ADC_en_LCD.c: 23: TRISB = 0xFF;
	movlw	(0FFh)
	movwf	(134)^080h	;volatile
	line	24
	
l6415:	
;ADC_en_LCD.c: 24: TRISC = 0x00;
	clrf	(135)^080h	;volatile
	line	25
	
l6417:	
;ADC_en_LCD.c: 25: TRISD = 0x00;
	clrf	(136)^080h	;volatile
	line	26
	
l6419:	
;ADC_en_LCD.c: 26: TRISE = 0x07;
	movlw	(07h)
	movwf	(137)^080h	;volatile
	line	28
	
l6421:	
;ADC_en_LCD.c: 28: lcd_init();
	fcall	_lcd_init
	line	29
	
l6423:	
;ADC_en_LCD.c: 29: lcd_goto(0x00);
	movlw	(0)
	fcall	_lcd_goto
	line	30
	
l6425:	
;ADC_en_LCD.c: 30: lcd_puts("V1:");
	movlw	low((STR_1-__stringbase))
	movwf	(?_lcd_puts)
	movlw	80h
	movwf	(?_lcd_puts+1)
	fcall	_lcd_puts
	line	31
	
l6427:	
;ADC_en_LCD.c: 31: lcd_goto(0x08);
	movlw	(08h)
	fcall	_lcd_goto
	line	32
	
l6429:	
;ADC_en_LCD.c: 32: lcd_puts("V2:");
	movlw	low((STR_2-__stringbase))
	movwf	(?_lcd_puts)
	movlw	80h
	movwf	(?_lcd_puts+1)
	fcall	_lcd_puts
	line	33
	
l6431:	
;ADC_en_LCD.c: 33: lcd_goto(0x44);
	movlw	(044h)
	fcall	_lcd_goto
	line	34
	
l6433:	
;ADC_en_LCD.c: 34: lcd_puts("V3:");
	movlw	low((STR_3-__stringbase))
	movwf	(?_lcd_puts)
	movlw	80h
	movwf	(?_lcd_puts+1)
	fcall	_lcd_puts
	line	38
	
l6435:	
;ADC_en_LCD.c: 37: {
;ADC_en_LCD.c: 38: ADCON0 = 0xD5;
	movlw	(0D5h)
	bcf	status, 5	;RP0=0, select bank0
	bcf	status, 6	;RP1=0, select bank0
	movwf	(31)	;volatile
	line	39
	
l6437:	
;ADC_en_LCD.c: 39: GO_DONE = 1;
	bsf	(249/8),(249)&7
	line	40
;ADC_en_LCD.c: 40: while(GO_DONE);
	
l1044:	
	btfsc	(249/8),(249)&7
	goto	u2901
	goto	u2900
u2901:
	goto	l1044
u2900:
	line	41
	
l6439:	
;ADC_en_LCD.c: 41: VAD = (ADRESH<<8)|ADRESL;
	movf	(30),w	;volatile
	movwf	(_VAD+1)
	clrf	(_VAD)
	bsf	status, 5	;RP0=1, select bank1
	movf	(158)^080h,w	;volatile
	bcf	status, 5	;RP0=0, select bank0
	iorwf	(_VAD),f
	line	42
	
l6441:	
;ADC_en_LCD.c: 42: num = VAD * 0.0048875855327468;
	movlw	0x28
	movwf	(?___ftmul)
	movlw	0xa0
	movwf	(?___ftmul+1)
	movlw	0x3b
	movwf	(?___ftmul+2)
	movf	(_VAD+1),w
	movwf	(?___lwtoft+1)
	movf	(_VAD),w
	movwf	(?___lwtoft)
	fcall	___lwtoft
	movf	(0+(?___lwtoft)),w
	movwf	0+(?___ftmul)+03h
	movf	(1+(?___lwtoft)),w
	movwf	1+(?___ftmul)+03h
	movf	(2+(?___lwtoft)),w
	movwf	2+(?___ftmul)+03h
	fcall	___ftmul
	movf	(0+(?___ftmul)),w
	movwf	(_num)
	movf	(1+(?___ftmul)),w
	movwf	(_num+1)
	movf	(2+(?___ftmul)),w
	movwf	(_num+2)
	line	43
	
l6443:	
;ADC_en_LCD.c: 43: sprintf(carac,"%.3f",num);
	movlw	((STR_4-__stringbase))&0ffh
	movwf	(?_sprintf)
	movf	(_num),w
	movwf	0+(?_sprintf)+01h
	movf	(_num+1),w
	movwf	1+(?_sprintf)+01h
	movf	(_num+2),w
	movwf	2+(?_sprintf)+01h
	movlw	(_carac)&0ffh
	fcall	_sprintf
	line	44
	
l6445:	
;ADC_en_LCD.c: 44: lcd_goto(0x03);
	movlw	(03h)
	fcall	_lcd_goto
	line	45
	
l6447:	
;ADC_en_LCD.c: 45: lcd_puts(carac);
	movlw	(_carac&0ffh)
	movwf	(?_lcd_puts)
	movlw	(0x0/2)
	movwf	(?_lcd_puts+1)
	fcall	_lcd_puts
	line	48
;ADC_en_LCD.c: 48: ADCON0 = 0xD9;
	movlw	(0D9h)
	movwf	(31)	;volatile
	line	49
	
l6449:	
;ADC_en_LCD.c: 49: GO_DONE = 1;
	bsf	(249/8),(249)&7
	line	50
;ADC_en_LCD.c: 50: while(GO_DONE);
	
l1047:	
	btfsc	(249/8),(249)&7
	goto	u2911
	goto	u2910
u2911:
	goto	l1047
u2910:
	line	51
	
l6451:	
;ADC_en_LCD.c: 51: VAD = (ADRESH<<8)|ADRESL;
	movf	(30),w	;volatile
	movwf	(_VAD+1)
	clrf	(_VAD)
	bsf	status, 5	;RP0=1, select bank1
	movf	(158)^080h,w	;volatile
	bcf	status, 5	;RP0=0, select bank0
	iorwf	(_VAD),f
	line	52
	
l6453:	
;ADC_en_LCD.c: 52: num = VAD * 0.0048875855327468;
	movlw	0x28
	movwf	(?___ftmul)
	movlw	0xa0
	movwf	(?___ftmul+1)
	movlw	0x3b
	movwf	(?___ftmul+2)
	movf	(_VAD+1),w
	movwf	(?___lwtoft+1)
	movf	(_VAD),w
	movwf	(?___lwtoft)
	fcall	___lwtoft
	movf	(0+(?___lwtoft)),w
	movwf	0+(?___ftmul)+03h
	movf	(1+(?___lwtoft)),w
	movwf	1+(?___ftmul)+03h
	movf	(2+(?___lwtoft)),w
	movwf	2+(?___ftmul)+03h
	fcall	___ftmul
	movf	(0+(?___ftmul)),w
	movwf	(_num)
	movf	(1+(?___ftmul)),w
	movwf	(_num+1)
	movf	(2+(?___ftmul)),w
	movwf	(_num+2)
	line	53
	
l6455:	
;ADC_en_LCD.c: 53: sprintf(carac,"%.3f",num);
	movlw	((STR_5-__stringbase))&0ffh
	movwf	(?_sprintf)
	movf	(_num),w
	movwf	0+(?_sprintf)+01h
	movf	(_num+1),w
	movwf	1+(?_sprintf)+01h
	movf	(_num+2),w
	movwf	2+(?_sprintf)+01h
	movlw	(_carac)&0ffh
	fcall	_sprintf
	line	54
	
l6457:	
;ADC_en_LCD.c: 54: lcd_goto(0x0B);
	movlw	(0Bh)
	fcall	_lcd_goto
	line	55
	
l6459:	
;ADC_en_LCD.c: 55: lcd_puts(carac);
	movlw	(_carac&0ffh)
	movwf	(?_lcd_puts)
	movlw	(0x0/2)
	movwf	(?_lcd_puts+1)
	fcall	_lcd_puts
	line	58
;ADC_en_LCD.c: 58: ADCON0 = 0xDD;
	movlw	(0DDh)
	movwf	(31)	;volatile
	line	59
	
l6461:	
;ADC_en_LCD.c: 59: GO_DONE = 1;
	bsf	(249/8),(249)&7
	line	60
;ADC_en_LCD.c: 60: while(GO_DONE);
	
l1050:	
	btfsc	(249/8),(249)&7
	goto	u2921
	goto	u2920
u2921:
	goto	l1050
u2920:
	line	61
	
l6463:	
;ADC_en_LCD.c: 61: VAD = (ADRESH<<8)|ADRESL;
	movf	(30),w	;volatile
	movwf	(_VAD+1)
	clrf	(_VAD)
	bsf	status, 5	;RP0=1, select bank1
	movf	(158)^080h,w	;volatile
	bcf	status, 5	;RP0=0, select bank0
	iorwf	(_VAD),f
	line	62
	
l6465:	
;ADC_en_LCD.c: 62: num = VAD * 0.0048875855327468;
	movlw	0x28
	movwf	(?___ftmul)
	movlw	0xa0
	movwf	(?___ftmul+1)
	movlw	0x3b
	movwf	(?___ftmul+2)
	movf	(_VAD+1),w
	movwf	(?___lwtoft+1)
	movf	(_VAD),w
	movwf	(?___lwtoft)
	fcall	___lwtoft
	movf	(0+(?___lwtoft)),w
	movwf	0+(?___ftmul)+03h
	movf	(1+(?___lwtoft)),w
	movwf	1+(?___ftmul)+03h
	movf	(2+(?___lwtoft)),w
	movwf	2+(?___ftmul)+03h
	fcall	___ftmul
	movf	(0+(?___ftmul)),w
	movwf	(_num)
	movf	(1+(?___ftmul)),w
	movwf	(_num+1)
	movf	(2+(?___ftmul)),w
	movwf	(_num+2)
	line	63
	
l6467:	
;ADC_en_LCD.c: 63: sprintf(carac,"%.3f",num);
	movlw	((STR_6-__stringbase))&0ffh
	movwf	(?_sprintf)
	movf	(_num),w
	movwf	0+(?_sprintf)+01h
	movf	(_num+1),w
	movwf	1+(?_sprintf)+01h
	movf	(_num+2),w
	movwf	2+(?_sprintf)+01h
	movlw	(_carac)&0ffh
	fcall	_sprintf
	line	64
	
l6469:	
;ADC_en_LCD.c: 64: lcd_goto(0x47);
	movlw	(047h)
	fcall	_lcd_goto
	line	65
	
l6471:	
;ADC_en_LCD.c: 65: lcd_puts(carac);
	movlw	(_carac&0ffh)
	movwf	(?_lcd_puts)
	movlw	(0x0/2)
	movwf	(?_lcd_puts+1)
	fcall	_lcd_puts
	line	67
	
l6473:	
;ADC_en_LCD.c: 67: pause(500);
	movlw	low(01F4h)
	movwf	(?_pause)
	movlw	high(01F4h)
	movwf	((?_pause))+1
	fcall	_pause
	goto	l6435
	global	start
	ljmp	start
	opt stack 0
psect	maintext
	line	72
GLOBAL	__end_of_main
	__end_of_main:
;; =============== function _main ends ============

	signat	_main,88
	global	_lcd_init
psect	text499,local,class=CODE,delta=2
global __ptext499
__ptext499:

;; *************** function _lcd_init *****************
;; Defined at:
;;		line 74 in file "C:\Users\Varush\Documents\Microcontroladores\Lenguaje C\lcd.c"
;; Parameters:    Size  Location     Type
;;		None
;; Auto vars:     Size  Location     Type
;;  init_value      1    0        unsigned char 
;; Return value:  Size  Location     Type
;;		None               void
;; Registers used:
;;		wreg, status,2, status,0, pclath, cstack
;; Tracked objects:
;;		On entry : 17F/20
;;		On exit  : 17F/0
;;		Unchanged: FFE80/0
;; Data sizes:     COMMON   BANK0   BANK1   BANK3   BANK2
;;      Params:         0       0       0       0       0
;;      Locals:         1       0       0       0       0
;;      Temps:          0       0       0       0       0
;;      Totals:         1       0       0       0       0
;;Total ram usage:        1 bytes
;; Hardware stack levels used:    1
;; Hardware stack levels required when called:    4
;; This function calls:
;;		_pause
;;		_lcd_write
;;		_lcd_clear
;; This function is called by:
;;		_main
;; This function uses a non-reentrant model
;;
psect	text499
	file	"C:\Users\Varush\Documents\Microcontroladores\Lenguaje C\lcd.c"
	line	74
	global	__size_of_lcd_init
	__size_of_lcd_init	equ	__end_of_lcd_init-_lcd_init
	
_lcd_init:	
	opt	stack 3
; Regs used in _lcd_init: [wreg+status,2+status,0+pclath+cstack]
	line	77
	
l6357:	
;lcd.c: 75: char init_value;
;lcd.c: 77: ANSEL = 0;
	bsf	status, 6	;RP1=1, select bank3
	clrf	(392)^0180h	;volatile
	line	79
	
l6359:	
	line	80
	
l6361:	
;lcd.c: 80: TRISA=0;
	bcf	status, 6	;RP1=0, select bank1
	clrf	(133)^080h	;volatile
	line	81
	
l6363:	
;lcd.c: 81: TRISC=0;
	clrf	(135)^080h	;volatile
	line	82
	
l6365:	
;lcd.c: 82: RD2 = 0;
	bcf	status, 5	;RP0=0, select bank0
	bcf	(66/8),(66)&7
	line	83
	
l6367:	
;lcd.c: 83: RD1 = 0;
	bcf	(65/8),(65)&7
	line	84
	
l6369:	
;lcd.c: 84: RD4 = 0;
	bcf	(68/8),(68)&7
	line	86
	
l6371:	
;lcd.c: 86: pause (15);
	movlw	0Fh
	movwf	(?_pause)
	clrf	(?_pause+1)
	fcall	_pause
	line	87
	
l6373:	
;lcd.c: 87: PORTC = init_value;
	movlw	(03h)
	bcf	status, 5	;RP0=0, select bank0
	bcf	status, 6	;RP1=0, select bank0
	movwf	(7)	;volatile
	line	88
	
l6375:	
;lcd.c: 88: ((RD1 = 1),(RD1=0));
	bsf	(65/8),(65)&7
	
l6377:	
	bcf	(65/8),(65)&7
	line	89
	
l6379:	
;lcd.c: 89: pause(10);
	movlw	0Ah
	movwf	(?_pause)
	clrf	(?_pause+1)
	fcall	_pause
	line	90
	
l6381:	
;lcd.c: 90: ((RD1 = 1),(RD1=0));
	bcf	status, 5	;RP0=0, select bank0
	bcf	status, 6	;RP1=0, select bank0
	bsf	(65/8),(65)&7
	
l6383:	
	bcf	(65/8),(65)&7
	line	91
	
l6385:	
;lcd.c: 91: pause(10);
	movlw	0Ah
	movwf	(?_pause)
	clrf	(?_pause+1)
	fcall	_pause
	line	92
	
l6387:	
;lcd.c: 92: ((RD1 = 1),(RD1=0));
	bcf	status, 5	;RP0=0, select bank0
	bcf	status, 6	;RP1=0, select bank0
	bsf	(65/8),(65)&7
	
l6389:	
	bcf	(65/8),(65)&7
	line	93
	
l6391:	
;lcd.c: 93: pause(10);
	movlw	0Ah
	movwf	(?_pause)
	clrf	(?_pause+1)
	fcall	_pause
	line	94
	
l6393:	
;lcd.c: 94: PORTC = 2;
	movlw	(02h)
	bcf	status, 5	;RP0=0, select bank0
	bcf	status, 6	;RP1=0, select bank0
	movwf	(7)	;volatile
	line	95
	
l6395:	
;lcd.c: 95: ((RD1 = 1),(RD1=0));
	bsf	(65/8),(65)&7
	
l6397:	
	bcf	(65/8),(65)&7
	line	97
	
l6399:	
;lcd.c: 97: lcd_write(0x28);
	movlw	(028h)
	fcall	_lcd_write
	line	99
	
l6401:	
;lcd.c: 99: lcd_write(0xF);
	movlw	(0Fh)
	fcall	_lcd_write
	line	100
	
l6403:	
;lcd.c: 100: lcd_clear();
	fcall	_lcd_clear
	line	101
	
l6405:	
;lcd.c: 101: lcd_write(0x6);
	movlw	(06h)
	fcall	_lcd_write
	line	102
	
l1922:	
	return
	opt stack 0
GLOBAL	__end_of_lcd_init
	__end_of_lcd_init:
;; =============== function _lcd_init ends ============

	signat	_lcd_init,88
	global	_lcd_clear
psect	text500,local,class=CODE,delta=2
global __ptext500
__ptext500:

;; *************** function _lcd_clear *****************
;; Defined at:
;;		line 34 in file "C:\Users\Varush\Documents\Microcontroladores\Lenguaje C\lcd.c"
;; Parameters:    Size  Location     Type
;;		None
;; Auto vars:     Size  Location     Type
;;		None
;; Return value:  Size  Location     Type
;;		None               void
;; Registers used:
;;		wreg, status,2, status,0, pclath, cstack
;; Tracked objects:
;;		On entry : 17F/0
;;		On exit  : 11F/0
;;		Unchanged: FFE80/0
;; Data sizes:     COMMON   BANK0   BANK1   BANK3   BANK2
;;      Params:         0       0       0       0       0
;;      Locals:         0       0       0       0       0
;;      Temps:          0       0       0       0       0
;;      Totals:         0       0       0       0       0
;;Total ram usage:        0 bytes
;; Hardware stack levels used:    1
;; Hardware stack levels required when called:    3
;; This function calls:
;;		_lcd_write
;;		_pause
;; This function is called by:
;;		_lcd_init
;; This function uses a non-reentrant model
;;
psect	text500
	file	"C:\Users\Varush\Documents\Microcontroladores\Lenguaje C\lcd.c"
	line	34
	global	__size_of_lcd_clear
	__size_of_lcd_clear	equ	__end_of_lcd_clear-_lcd_clear
	
_lcd_clear:	
	opt	stack 3
; Regs used in _lcd_clear: [wreg+status,2+status,0+pclath+cstack]
	line	35
	
l6353:	
;lcd.c: 35: RD2 = 0;
	bcf	(66/8),(66)&7
	line	36
	
l6355:	
;lcd.c: 36: lcd_write(0x1);
	movlw	(01h)
	fcall	_lcd_write
	line	37
;lcd.c: 37: pause (2);
	movlw	02h
	movwf	(?_pause)
	clrf	(?_pause+1)
	fcall	_pause
	line	38
	
l1907:	
	return
	opt stack 0
GLOBAL	__end_of_lcd_clear
	__end_of_lcd_clear:
;; =============== function _lcd_clear ends ============

	signat	_lcd_clear,88
	global	_sprintf
psect	text501,local,class=CODE,delta=2
global __ptext501
__ptext501:

;; *************** function _sprintf *****************
;; Defined at:
;;		line 488 in file "C:\Program Files (x86)\HI-TECH Software\PICC\9.82\lib\doprnt.c"
;; Parameters:    Size  Location     Type
;;  sp              1    wreg     PTR unsigned char 
;;		 -> carac(5), 
;;  f               1   50[BANK0 ] PTR const unsigned char 
;;		 -> STR_6(5), STR_5(5), STR_4(5), 
;; Auto vars:     Size  Location     Type
;;  sp              1   14[BANK1 ] PTR unsigned char 
;;		 -> carac(5), 
;;  _val            4   10[BANK1 ] struct .
;;  fval            3   19[BANK1 ] struct .
;;  integ           3    7[BANK1 ] struct .
;;  ival            3    0        struct .
;;  prec            2   17[BANK1 ] int 
;;  exp             2   15[BANK1 ] int 
;;  flag            2    5[BANK1 ] unsigned short 
;;  width           2    0        int 
;;  c               1   22[BANK1 ] char 
;;  ap              1    4[BANK1 ] PTR void [1]
;;		 -> ?_sprintf(2), 
;;  d               1    0        unsigned char 
;; Return value:  Size  Location     Type
;;                  2   50[BANK0 ] int 
;; Registers used:
;;		wreg, fsr0l, fsr0h, status,2, status,0, btemp+1, pclath, cstack
;; Tracked objects:
;;		On entry : 60/0
;;		On exit  : 160/20
;;		Unchanged: FFE00/0
;; Data sizes:     COMMON   BANK0   BANK1   BANK3   BANK2
;;      Params:         0       4       0       0       0
;;      Locals:         0       0      23       0       0
;;      Temps:          0       5       0       0       0
;;      Totals:         0       9      23       0       0
;;Total ram usage:       32 bytes
;; Hardware stack levels used:    1
;; Hardware stack levels required when called:    3
;; This function calls:
;;		___wmul
;;		_isdigit
;;		___ftge
;;		___ftneg
;;		___awdiv
;;		_scale
;;		___ftmul
;;		_fround
;;		___ftadd
;;		___fttol
;;		__div_to_l_
;;		__tdiv_to_l_
;;		___lltoft
;;		___ftsub
;;		___lldiv
;;		___llmod
;; This function is called by:
;;		_main
;; This function uses a non-reentrant model
;;
psect	text501
	file	"C:\Program Files (x86)\HI-TECH Software\PICC\9.82\sources\doprnt.c"
	line	488
	global	__size_of_sprintf
	__size_of_sprintf	equ	__end_of_sprintf-_sprintf
	
_sprintf:	
	opt	stack 4
; Regs used in _sprintf: [wreg-fsr0h+status,2+status,0+btemp+1+pclath+cstack]
;sprintf@sp stored from wreg
	line	537
	bsf	status, 5	;RP0=1, select bank1
	movwf	(sprintf@sp)^080h
	
l6153:	
	movlw	(?_sprintf+01h)&0ffh
	movwf	(sprintf@ap)^080h
	line	540
	goto	l6347
	line	542
	
l6155:	
	movf	(sprintf@c)^080h,w
	xorlw	025h
	skipnz
	goto	u2581
	goto	u2580
u2581:
	goto	l6161
u2580:
	line	545
	
l6157:	
	movf	(sprintf@sp)^080h,w
	movwf	fsr0
	movf	(sprintf@c)^080h,w
	bcf	status, 7	;select IRP bank0
	movwf	indf
	
l6159:	
	incf	(sprintf@sp)^080h,f
	line	546
	goto	l6347
	line	552
	
l6161:	
	clrf	(sprintf@flag)^080h
	clrf	(sprintf@flag+1)^080h
	line	614
	
l6163:	
	bcf	status, 5	;RP0=0, select bank0
	movf	(sprintf@f),w
	movwf	fsr0
	fcall	stringdir
	xorlw	02Eh
	skipz
	goto	u2591
	goto	u2590
u2591:
	goto	l6177
u2590:
	line	615
	
l6165:	
	bsf	status, 5	;RP0=1, select bank1
	bsf	(sprintf@flag)^080h+(14/8),(14)&7
	line	616
	
l6167:	
	bcf	status, 5	;RP0=0, select bank0
	incf	(sprintf@f),f
	line	624
	
l6169:	
	bsf	status, 5	;RP0=1, select bank1
	clrf	(sprintf@prec)^080h
	clrf	(sprintf@prec+1)^080h
	line	625
	goto	l6175
	line	626
	
l6171:	
	bsf	status, 5	;RP0=1, select bank1
	movf	(sprintf@prec+1)^080h,w
	movwf	(?___wmul+1)
	movf	(sprintf@prec)^080h,w
	movwf	(?___wmul)
	movlw	0Ah
	movwf	0+(?___wmul)+02h
	clrf	1+(?___wmul)+02h
	fcall	___wmul
	bcf	status, 5	;RP0=0, select bank0
	movf	(sprintf@f),w
	movwf	fsr0
	fcall	stringdir
	addwf	(0+(?___wmul)),w
	movwf	(??_sprintf+0)+0
	movlw	0
	skipnc
	movlw	1
	addwf	(1+(?___wmul)),w
	movwf	1+(??_sprintf+0)+0
	movf	0+(??_sprintf+0)+0,w
	addlw	low(0FFD0h)
	bsf	status, 5	;RP0=1, select bank1
	movwf	(sprintf@prec)^080h
	bcf	status, 5	;RP0=0, select bank0
	movf	1+(??_sprintf+0)+0,w
	skipnc
	addlw	1
	addlw	high(0FFD0h)
	bsf	status, 5	;RP0=1, select bank1
	movwf	1+(sprintf@prec)^080h
	
l6173:	
	bcf	status, 5	;RP0=0, select bank0
	incf	(sprintf@f),f
	line	625
	
l6175:	
	bcf	status, 5	;RP0=0, select bank0
	movf	(sprintf@f),w
	movwf	fsr0
	fcall	stringdir
	fcall	_isdigit
	btfsc	status,0
	goto	u2601
	goto	u2600
u2601:
	goto	l6171
u2600:
	goto	l6183
	line	629
	
l6177:	
	bsf	status, 5	;RP0=1, select bank1
	clrf	(sprintf@prec)^080h
	clrf	(sprintf@prec+1)^080h
	line	631
	
l6179:	
	bsf	(sprintf@flag)^080h+(12/8),(12)&7
	goto	l6183
	line	665
	
l1968:	
	line	666
	bsf	(sprintf@flag)^080h+(10/8),(10)&7
	line	667
	goto	l6185
	line	638
	
l6183:	
	bcf	status, 5	;RP0=0, select bank0
	movf	(sprintf@f),w
	incf	(sprintf@f),f
	movwf	fsr0
	fcall	stringdir
	bsf	status, 5	;RP0=1, select bank1
	movwf	(sprintf@c)^080h
	; Switch size 1, requested type "space"
; Number of cases is 2, Range of values is 0 to 102
; switch strategies available:
; Name         Instructions Cycles
; simple_byte            7     4 (average)
; jumptable            260     6 (fixed)
; rangetable           107     6 (fixed)
; spacedrange          212     9 (fixed)
; locatedrange         103     3 (fixed)
;	Chosen strategy is simple_byte

	opt asmopt_off
	xorlw	0^0	; case 0
	skipnz
	goto	l6349
	xorlw	102^0	; case 102
	skipnz
	goto	l1968
	goto	l6347
	opt asmopt_on

	line	828
	
l6185:	
	movlw	low(0700h)
	andwf	(sprintf@flag)^080h,w
	bcf	status, 5	;RP0=0, select bank0
	movwf	(??_sprintf+0)+0
	movlw	high(0700h)
	bsf	status, 5	;RP0=1, select bank1
	andwf	(sprintf@flag+1)^080h,w
	bcf	status, 5	;RP0=0, select bank0
	movwf	1+(??_sprintf+0)+0
	movf	1+(??_sprintf+0)+0,w
	iorwf	0+(??_sprintf+0)+0,w
	skipnz
	goto	u2611
	goto	u2610
u2611:
	goto	l6327
u2610:
	line	830
	
l6187:	
	bsf	status, 5	;RP0=1, select bank1
	btfss	(sprintf@flag+1)^080h,(12)&7
	goto	u2621
	goto	u2620
u2621:
	goto	l6191
u2620:
	line	832
	
l6189:	
	movlw	06h
	movwf	(sprintf@prec)^080h
	clrf	(sprintf@prec+1)^080h
	line	833
	
l6191:	
	movf	(sprintf@ap)^080h,w
	movwf	fsr0
	bcf	status, 7	;select IRP bank0
	movf	indf,w
	movwf	(sprintf@fval)^080h
	incf	fsr0,f
	movf	indf,w
	movwf	(sprintf@fval+1)^080h
	incf	fsr0,f
	movf	indf,w
	movwf	(sprintf@fval+2)^080h
	
l6193:	
	movlw	(03h)
	addwf	(sprintf@ap)^080h,f
	line	834
	
l6195:	
	movf	(sprintf@fval)^080h,w
	movwf	(?___ftge)
	movf	(sprintf@fval+1)^080h,w
	movwf	(?___ftge+1)
	movf	(sprintf@fval+2)^080h,w
	movwf	(?___ftge+2)
	clrf	0+(?___ftge)+03h
	clrf	1+(?___ftge)+03h
	clrf	2+(?___ftge)+03h
	fcall	___ftge
	btfsc	status,0
	goto	u2631
	goto	u2630
u2631:
	goto	l6201
u2630:
	line	835
	
l6197:	
	movf	(sprintf@fval)^080h,w
	movwf	(?___ftneg)
	movf	(sprintf@fval+1)^080h,w
	movwf	(?___ftneg+1)
	movf	(sprintf@fval+2)^080h,w
	movwf	(?___ftneg+2)
	fcall	___ftneg
	movf	(0+(?___ftneg)),w
	movwf	(sprintf@fval)^080h
	movf	(1+(?___ftneg)),w
	movwf	(sprintf@fval+1)^080h
	movf	(2+(?___ftneg)),w
	movwf	(sprintf@fval+2)^080h
	line	836
	
l6199:	
	movlw	03h
	iorwf	(sprintf@flag)^080h,f
	line	838
	
l6201:	
	clrf	(sprintf@exp)^080h
	clrf	(sprintf@exp+1)^080h
	line	839
	
l6203:	
	movf	(sprintf@fval+2)^080h,w
	iorwf	(sprintf@fval+1)^080h,w
	iorwf	(sprintf@fval)^080h,w
	skipnz
	goto	u2641
	goto	u2640
u2641:
	goto	l6233
u2640:
	line	840
	
l6205:	
	movlw	low(sprintf@fval)
	movwf	fsr0
	movf	indf,w
	bcf	status, 5	;RP0=0, select bank0
	movwf	(??_sprintf+0)+0+0
	incf	fsr0,f
	movf	indf,w
	movwf	(??_sprintf+0)+0+1
	incf	fsr0,f
	movf	indf,w
	movwf	(??_sprintf+0)+0+2
	incf	fsr0,f
	movf	indf,w
	movwf	(??_sprintf+0)+0+3
	movlw	0Fh
u2655:
	clrc
	rrf	(??_sprintf+0)+3,f
	rrf	(??_sprintf+0)+2,f
	rrf	(??_sprintf+0)+1,f
	rrf	(??_sprintf+0)+0,f
u2650:
	addlw	-1
	skipz
	goto	u2655
	movf	1+(??_sprintf+0)+0,w
	bsf	status, 5	;RP0=1, select bank1
	movwf	(sprintf@exp+1)^080h
	bcf	status, 5	;RP0=0, select bank0
	movf	0+(??_sprintf+0)+0,w
	bsf	status, 5	;RP0=1, select bank1
	movwf	(sprintf@exp)^080h
	
l6207:	
	movlw	0FFh
	andwf	(sprintf@exp)^080h,f
	clrf	(sprintf@exp+1)^080h
	
l6209:	
	movlw	-126
	addwf	(sprintf@exp)^080h,f
	skipc
	decf	(sprintf@exp+1)^080h,f
	line	841
	
l6211:	
	movlw	-1
	addwf	(sprintf@exp)^080h,f
	skipc
	decf	(sprintf@exp+1)^080h,f
	line	842
	
l6213:	
	movlw	03h
	movwf	(?___wmul)
	clrf	(?___wmul+1)
	movf	(sprintf@exp+1)^080h,w
	movwf	1+(?___wmul)+02h
	movf	(sprintf@exp)^080h,w
	movwf	0+(?___wmul)+02h
	fcall	___wmul
	movf	(1+(?___wmul)),w
	movwf	(sprintf@exp+1)^080h
	movf	(0+(?___wmul)),w
	movwf	(sprintf@exp)^080h
	line	843
	
l6215:	
	movlw	0Ah
	movwf	(?___awdiv)
	clrf	(?___awdiv+1)
	movf	(sprintf@exp+1)^080h,w
	movwf	1+(?___awdiv)+02h
	movf	(sprintf@exp)^080h,w
	movwf	0+(?___awdiv)+02h
	fcall	___awdiv
	movf	(1+(?___awdiv)),w
	movwf	(sprintf@exp+1)^080h
	movf	(0+(?___awdiv)),w
	movwf	(sprintf@exp)^080h
	line	844
	
l6217:	
	btfss	(sprintf@exp+1)^080h,7
	goto	u2661
	goto	u2660
u2661:
	goto	l6221
u2660:
	line	845
	
l6219:	
	movlw	-1
	addwf	(sprintf@exp)^080h,f
	skipc
	decf	(sprintf@exp+1)^080h,f
	line	849
	
l6221:	
	decf	(sprintf@exp)^080h,w
	xorlw	0ffh
	fcall	_scale
	movf	(0+(?_scale)),w
	bsf	status, 5	;RP0=1, select bank1
	movwf	(sprintf@integ)^080h
	bcf	status, 5	;RP0=0, select bank0
	movf	(1+(?_scale)),w
	bsf	status, 5	;RP0=1, select bank1
	movwf	(sprintf@integ+1)^080h
	bcf	status, 5	;RP0=0, select bank0
	movf	(2+(?_scale)),w
	bsf	status, 5	;RP0=1, select bank1
	movwf	(sprintf@integ+2)^080h
	line	850
	
l6223:	
	movf	(sprintf@fval)^080h,w
	bcf	status, 5	;RP0=0, select bank0
	movwf	(?___ftmul)
	bsf	status, 5	;RP0=1, select bank1
	movf	(sprintf@fval+1)^080h,w
	bcf	status, 5	;RP0=0, select bank0
	movwf	(?___ftmul+1)
	bsf	status, 5	;RP0=1, select bank1
	movf	(sprintf@fval+2)^080h,w
	bcf	status, 5	;RP0=0, select bank0
	movwf	(?___ftmul+2)
	bsf	status, 5	;RP0=1, select bank1
	movf	(sprintf@integ)^080h,w
	bcf	status, 5	;RP0=0, select bank0
	movwf	0+(?___ftmul)+03h
	bsf	status, 5	;RP0=1, select bank1
	movf	(sprintf@integ+1)^080h,w
	bcf	status, 5	;RP0=0, select bank0
	movwf	1+(?___ftmul)+03h
	bsf	status, 5	;RP0=1, select bank1
	movf	(sprintf@integ+2)^080h,w
	bcf	status, 5	;RP0=0, select bank0
	movwf	2+(?___ftmul)+03h
	fcall	___ftmul
	movf	(0+(?___ftmul)),w
	bsf	status, 5	;RP0=1, select bank1
	movwf	(sprintf@integ)^080h
	bcf	status, 5	;RP0=0, select bank0
	movf	(1+(?___ftmul)),w
	bsf	status, 5	;RP0=1, select bank1
	movwf	(sprintf@integ+1)^080h
	bcf	status, 5	;RP0=0, select bank0
	movf	(2+(?___ftmul)),w
	bsf	status, 5	;RP0=1, select bank1
	movwf	(sprintf@integ+2)^080h
	line	851
	
l6225:	
	movf	(sprintf@integ)^080h,w
	movwf	(?___ftge)
	movf	(sprintf@integ+1)^080h,w
	movwf	(?___ftge+1)
	movf	(sprintf@integ+2)^080h,w
	movwf	(?___ftge+2)
	movlw	0x0
	movwf	0+(?___ftge)+03h
	movlw	0x80
	movwf	1+(?___ftge)+03h
	movlw	0x3f
	movwf	2+(?___ftge)+03h
	fcall	___ftge
	btfsc	status,0
	goto	u2671
	goto	u2670
u2671:
	goto	l6229
u2670:
	line	852
	
l6227:	
	movlw	-1
	addwf	(sprintf@exp)^080h,f
	skipc
	decf	(sprintf@exp+1)^080h,f
	goto	l6233
	line	853
	
l6229:	
	movf	(sprintf@integ)^080h,w
	movwf	(?___ftge)
	movf	(sprintf@integ+1)^080h,w
	movwf	(?___ftge+1)
	movf	(sprintf@integ+2)^080h,w
	movwf	(?___ftge+2)
	movlw	0x0
	movwf	0+(?___ftge)+03h
	movlw	0x20
	movwf	1+(?___ftge)+03h
	movlw	0x41
	movwf	2+(?___ftge)+03h
	fcall	___ftge
	btfss	status,0
	goto	u2681
	goto	u2680
u2681:
	goto	l6233
u2680:
	line	854
	
l6231:	
	incf	(sprintf@exp)^080h,f
	skipnz
	incf	(sprintf@exp+1)^080h,f
	line	1115
	
l6233:	
	movf	(sprintf@prec+1)^080h,w
	xorlw	80h
	movwf	btemp+1
	movlw	(high(0Dh))^80h
	subwf	btemp+1,w
	skipz
	goto	u2695
	movlw	low(0Dh)
	subwf	(sprintf@prec)^080h,w
u2695:

	skipnc
	goto	u2691
	goto	u2690
u2691:
	goto	l6237
u2690:
	line	1116
	
l6235:	
	bsf	status, 5	;RP0=1, select bank1
	bcf	status, 6	;RP1=0, select bank1
	movf	(sprintf@prec)^080h,w
	fcall	_fround
	movf	(0+(?_fround)),w
	movwf	(?___ftadd)
	movf	(1+(?_fround)),w
	movwf	(?___ftadd+1)
	movf	(2+(?_fround)),w
	movwf	(?___ftadd+2)
	bsf	status, 5	;RP0=1, select bank1
	movf	(sprintf@fval)^080h,w
	bcf	status, 5	;RP0=0, select bank0
	movwf	0+(?___ftadd)+03h
	bsf	status, 5	;RP0=1, select bank1
	movf	(sprintf@fval+1)^080h,w
	bcf	status, 5	;RP0=0, select bank0
	movwf	1+(?___ftadd)+03h
	bsf	status, 5	;RP0=1, select bank1
	movf	(sprintf@fval+2)^080h,w
	bcf	status, 5	;RP0=0, select bank0
	movwf	2+(?___ftadd)+03h
	fcall	___ftadd
	movf	(0+(?___ftadd)),w
	bsf	status, 5	;RP0=1, select bank1
	movwf	(sprintf@fval)^080h
	bcf	status, 5	;RP0=0, select bank0
	movf	(1+(?___ftadd)),w
	bsf	status, 5	;RP0=1, select bank1
	movwf	(sprintf@fval+1)^080h
	bcf	status, 5	;RP0=0, select bank0
	movf	(2+(?___ftadd)),w
	bsf	status, 5	;RP0=1, select bank1
	movwf	(sprintf@fval+2)^080h
	line	1119
	
l6237:	
	bsf	status, 5	;RP0=1, select bank1
	bcf	status, 6	;RP1=0, select bank1
	movf	(sprintf@exp+1)^080h,w
	xorlw	80h
	movwf	btemp+1
	movlw	(high(0Ah))^80h
	subwf	btemp+1,w
	skipz
	goto	u2705
	movlw	low(0Ah)
	subwf	(sprintf@exp)^080h,w
u2705:

	skipnc
	goto	u2701
	goto	u2700
u2701:
	goto	l6245
u2700:
	
l6239:	
	bsf	status, 5	;RP0=1, select bank1
	bcf	status, 6	;RP1=0, select bank1
	movf	(sprintf@fval+2)^080h,w
	iorwf	(sprintf@fval+1)^080h,w
	iorwf	(sprintf@fval)^080h,w
	skipnz
	goto	u2711
	goto	u2710
u2711:
	goto	l6261
u2710:
	
l6241:	
	movf	(sprintf@fval)^080h,w
	bcf	status, 5	;RP0=0, select bank0
	movwf	(?___fttol)
	bsf	status, 5	;RP0=1, select bank1
	movf	(sprintf@fval+1)^080h,w
	bcf	status, 5	;RP0=0, select bank0
	movwf	(?___fttol+1)
	bsf	status, 5	;RP0=1, select bank1
	movf	(sprintf@fval+2)^080h,w
	bcf	status, 5	;RP0=0, select bank0
	movwf	(?___fttol+2)
	fcall	___fttol
	movf	(3+(?___fttol)),w
	iorwf	(2+(?___fttol)),w
	iorwf	(1+(?___fttol)),w
	iorwf	(0+(?___fttol)),w
	skipz
	goto	u2721
	goto	u2720
u2721:
	goto	l6261
u2720:
	
l6243:	
	bsf	status, 5	;RP0=1, select bank1
	movf	(sprintf@exp+1)^080h,w
	xorlw	80h
	movwf	btemp+1
	movlw	(high(02h))^80h
	subwf	btemp+1,w
	skipz
	goto	u2735
	movlw	low(02h)
	subwf	(sprintf@exp)^080h,w
u2735:

	skipc
	goto	u2731
	goto	u2730
u2731:
	goto	l6261
u2730:
	line	1123
	
l6245:	
	bsf	status, 5	;RP0=1, select bank1
	bcf	status, 6	;RP1=0, select bank1
	movf	(sprintf@integ)^080h,w
	movwf	(?___ftge)
	movf	(sprintf@integ+1)^080h,w
	movwf	(?___ftge+1)
	movf	(sprintf@integ+2)^080h,w
	movwf	(?___ftge+2)
	movlw	0x70
	movwf	0+(?___ftge)+03h
	movlw	0x89
	movwf	1+(?___ftge)+03h
	movlw	0x40
	movwf	2+(?___ftge)+03h
	fcall	___ftge
	btfsc	status,0
	goto	u2741
	goto	u2740
u2741:
	goto	l6249
u2740:
	line	1124
	
l6247:	
	movlw	-9
	addwf	(sprintf@exp)^080h,f
	skipc
	decf	(sprintf@exp+1)^080h,f
	line	1125
	goto	l6251
	line	1126
	
l6249:	
	movlw	-8
	addwf	(sprintf@exp)^080h,f
	skipc
	decf	(sprintf@exp+1)^080h,f
	line	1128
	
l6251:	
	movf	(sprintf@exp)^080h,w
	fcall	_scale
	movf	(0+(?_scale)),w
	bsf	status, 5	;RP0=1, select bank1
	movwf	(sprintf@integ)^080h
	bcf	status, 5	;RP0=0, select bank0
	movf	(1+(?_scale)),w
	bsf	status, 5	;RP0=1, select bank1
	movwf	(sprintf@integ+1)^080h
	bcf	status, 5	;RP0=0, select bank0
	movf	(2+(?_scale)),w
	bsf	status, 5	;RP0=1, select bank1
	movwf	(sprintf@integ+2)^080h
	line	1129
	
l6255:	
	movf	(sprintf@fval)^080h,w
	movwf	(?__tdiv_to_l_)
	movf	(sprintf@fval+1)^080h,w
	movwf	(?__tdiv_to_l_+1)
	movf	(sprintf@fval+2)^080h,w
	movwf	(?__tdiv_to_l_+2)
	movf	(sprintf@integ)^080h,w
	movwf	0+(?__tdiv_to_l_)+03h
	movf	(sprintf@integ+1)^080h,w
	movwf	1+(?__tdiv_to_l_)+03h
	movf	(sprintf@integ+2)^080h,w
	movwf	2+(?__tdiv_to_l_)+03h
	fcall	__tdiv_to_l_
	movf	(3+(?__tdiv_to_l_)),w
	bsf	status, 5	;RP0=1, select bank1
	movwf	(_sprintf$2306+3)^080h
	movf	(2+(?__tdiv_to_l_)),w
	movwf	(_sprintf$2306+2)^080h
	movf	(1+(?__tdiv_to_l_)),w
	movwf	(_sprintf$2306+1)^080h
	movf	(0+(?__tdiv_to_l_)),w
	movwf	(_sprintf$2306)^080h

	
l6257:	
	movf	(_sprintf$2306+3)^080h,w
	movwf	(sprintf@_val+3)^080h
	movf	(_sprintf$2306+2)^080h,w
	movwf	(sprintf@_val+2)^080h
	movf	(_sprintf$2306+1)^080h,w
	movwf	(sprintf@_val+1)^080h
	movf	(_sprintf$2306)^080h,w
	movwf	(sprintf@_val)^080h

	line	1132
	
l6259:	
	clrf	(sprintf@fval)^080h
	clrf	(sprintf@fval+1)^080h
	clrf	(sprintf@fval+2)^080h
	line	1133
	goto	l6265
	line	1134
	
l6261:	
	bsf	status, 5	;RP0=1, select bank1
	bcf	status, 6	;RP1=0, select bank1
	movf	(sprintf@fval)^080h,w
	bcf	status, 5	;RP0=0, select bank0
	movwf	(?___fttol)
	bsf	status, 5	;RP0=1, select bank1
	movf	(sprintf@fval+1)^080h,w
	bcf	status, 5	;RP0=0, select bank0
	movwf	(?___fttol+1)
	bsf	status, 5	;RP0=1, select bank1
	movf	(sprintf@fval+2)^080h,w
	bcf	status, 5	;RP0=0, select bank0
	movwf	(?___fttol+2)
	fcall	___fttol
	movf	(3+(?___fttol)),w
	bsf	status, 5	;RP0=1, select bank1
	movwf	(sprintf@_val+3)^080h
	bcf	status, 5	;RP0=0, select bank0
	movf	(2+(?___fttol)),w
	bsf	status, 5	;RP0=1, select bank1
	movwf	(sprintf@_val+2)^080h
	bcf	status, 5	;RP0=0, select bank0
	movf	(1+(?___fttol)),w
	bsf	status, 5	;RP0=1, select bank1
	movwf	(sprintf@_val+1)^080h
	bcf	status, 5	;RP0=0, select bank0
	movf	(0+(?___fttol)),w
	bsf	status, 5	;RP0=1, select bank1
	movwf	(sprintf@_val)^080h

	line	1135
	movf	(sprintf@_val+3)^080h,w
	movwf	(?___lltoft+3)
	movf	(sprintf@_val+2)^080h,w
	movwf	(?___lltoft+2)
	movf	(sprintf@_val+1)^080h,w
	movwf	(?___lltoft+1)
	movf	(sprintf@_val)^080h,w
	movwf	(?___lltoft)

	fcall	___lltoft
	movf	(0+(?___lltoft)),w
	bcf	status, 5	;RP0=0, select bank0
	movwf	(?___ftsub)
	movf	(1+(?___lltoft)),w
	movwf	(?___ftsub+1)
	movf	(2+(?___lltoft)),w
	movwf	(?___ftsub+2)
	bsf	status, 5	;RP0=1, select bank1
	movf	(sprintf@fval)^080h,w
	bcf	status, 5	;RP0=0, select bank0
	movwf	0+(?___ftsub)+03h
	bsf	status, 5	;RP0=1, select bank1
	movf	(sprintf@fval+1)^080h,w
	bcf	status, 5	;RP0=0, select bank0
	movwf	1+(?___ftsub)+03h
	bsf	status, 5	;RP0=1, select bank1
	movf	(sprintf@fval+2)^080h,w
	bcf	status, 5	;RP0=0, select bank0
	movwf	2+(?___ftsub)+03h
	fcall	___ftsub
	movf	(0+(?___ftsub)),w
	bsf	status, 5	;RP0=1, select bank1
	movwf	(sprintf@fval)^080h
	bcf	status, 5	;RP0=0, select bank0
	movf	(1+(?___ftsub)),w
	bsf	status, 5	;RP0=1, select bank1
	movwf	(sprintf@fval+1)^080h
	bcf	status, 5	;RP0=0, select bank0
	movf	(2+(?___ftsub)),w
	bsf	status, 5	;RP0=1, select bank1
	movwf	(sprintf@fval+2)^080h
	line	1136
	
l6263:	
	clrf	(sprintf@exp)^080h
	clrf	(sprintf@exp+1)^080h
	line	1139
	
l6265:	
	clrf	(sprintf@c)^080h
	incf	(sprintf@c)^080h,f
	line	1140
	
l6271:	
	movf	(sprintf@c)^080h,w
	bcf	status, 5	;RP0=0, select bank0
	movwf	(??_sprintf+0)+0
	clrc
	rlf	(??_sprintf+0)+0,f
	clrc
	rlf	(??_sprintf+0)+0,w
	addlw	low((_dpowers-__stringbase))
	movwf	fsr0
	fcall	stringdir
	movwf	((??_sprintf+1)+0)
	fcall	stringdir
	movwf	((??_sprintf+1)+0+1)
	fcall	stringdir
	movwf	((??_sprintf+1)+0+2)
	fcall	stringdir
	movwf	((??_sprintf+1)+0+3)
	movf	3+(??_sprintf+1)+0,w
	bsf	status, 5	;RP0=1, select bank1
	subwf	(sprintf@_val+3)^080h,w
	skipz
	goto	u2755
	bcf	status, 5	;RP0=0, select bank0
	movf	2+(??_sprintf+1)+0,w
	bsf	status, 5	;RP0=1, select bank1
	subwf	(sprintf@_val+2)^080h,w
	skipz
	goto	u2755
	bcf	status, 5	;RP0=0, select bank0
	movf	1+(??_sprintf+1)+0,w
	bsf	status, 5	;RP0=1, select bank1
	subwf	(sprintf@_val+1)^080h,w
	skipz
	goto	u2755
	bcf	status, 5	;RP0=0, select bank0
	movf	0+(??_sprintf+1)+0,w
	bsf	status, 5	;RP0=1, select bank1
	subwf	(sprintf@_val)^080h,w
u2755:
	skipnc
	goto	u2751
	goto	u2750
u2751:
	goto	l6275
u2750:
	goto	l6279
	line	1139
	
l6275:	
	incf	(sprintf@c)^080h,f
	
l6277:	
	movf	(sprintf@c)^080h,w
	xorlw	0Ah
	skipz
	goto	u2761
	goto	u2760
u2761:
	goto	l6271
u2760:
	line	1189
	
l6279:	
	movf	(sprintf@flag)^080h,w
	andlw	03h
	btfsc	status,2
	goto	u2771
	goto	u2770
u2771:
	goto	l6289
u2770:
	line	1191
	
l6281:	
	movf	(sprintf@sp)^080h,w
	movwf	fsr0
	movlw	(02Dh)
	bcf	status, 7	;select IRP bank0
	movwf	indf
	
l6283:	
	bsf	status, 5	;RP0=1, select bank1
	incf	(sprintf@sp)^080h,f
	goto	l6289
	line	1201
	
l6285:	
	movlw	0Ah
	bcf	status, 5	;RP0=0, select bank0
	movwf	(?___llmod)
	clrf	(?___llmod+1)
	clrf	(?___llmod+2)
	clrf	(?___llmod+3)

	bsf	status, 5	;RP0=1, select bank1
	movf	(sprintf@c)^080h,w
	bcf	status, 5	;RP0=0, select bank0
	movwf	(??_sprintf+0)+0
	clrc
	rlf	(??_sprintf+0)+0,f
	clrc
	rlf	(??_sprintf+0)+0,w
	addlw	low((_dpowers-__stringbase))
	movwf	fsr0
	fcall	stringdir
	movwf	(?___lldiv)
	fcall	stringdir
	movwf	(?___lldiv+1)
	fcall	stringdir
	movwf	(?___lldiv+2)
	fcall	stringdir
	movwf	(?___lldiv+3)
	bsf	status, 5	;RP0=1, select bank1
	movf	(sprintf@_val+3)^080h,w
	movwf	3+(?___lldiv)+04h
	movf	(sprintf@_val+2)^080h,w
	movwf	2+(?___lldiv)+04h
	movf	(sprintf@_val+1)^080h,w
	movwf	1+(?___lldiv)+04h
	movf	(sprintf@_val)^080h,w
	movwf	0+(?___lldiv)+04h

	fcall	___lldiv
	movf	(3+(?___lldiv)),w
	bcf	status, 5	;RP0=0, select bank0
	movwf	3+(?___llmod)+04h
	movf	(2+(?___lldiv)),w
	movwf	2+(?___llmod)+04h
	movf	(1+(?___lldiv)),w
	movwf	1+(?___llmod)+04h
	movf	(0+(?___lldiv)),w
	movwf	0+(?___llmod)+04h

	fcall	___llmod
	movf	0+(((0+(?___llmod)))),w
	addlw	030h
	movwf	(??_sprintf+1)+0
	bsf	status, 5	;RP0=1, select bank1
	movf	(sprintf@sp)^080h,w
	movwf	fsr0
	bcf	status, 5	;RP0=0, select bank0
	movf	(??_sprintf+1)+0,w
	bcf	status, 7	;select IRP bank0
	movwf	indf
	goto	l6283
	line	1197
	
l6289:	
	decf	(sprintf@c)^080h,f
	incf	((sprintf@c)^080h),w
	skipz
	goto	u2781
	goto	u2780
u2781:
	goto	l6285
u2780:
	goto	l6297
	line	1205
	
l6291:	
	bsf	status, 5	;RP0=1, select bank1
	bcf	status, 6	;RP1=0, select bank1
	movf	(sprintf@sp)^080h,w
	movwf	fsr0
	movlw	(030h)
	bcf	status, 7	;select IRP bank0
	movwf	indf
	
l6293:	
	incf	(sprintf@sp)^080h,f
	line	1206
	
l6295:	
	movlw	-1
	addwf	(sprintf@exp)^080h,f
	skipc
	decf	(sprintf@exp+1)^080h,f
	line	1204
	
l6297:	
	movf	(sprintf@exp+1)^080h,w
	xorlw	80h
	movwf	btemp+1
	movlw	(high(01h))^80h
	subwf	btemp+1,w
	skipz
	goto	u2795
	movlw	low(01h)
	subwf	(sprintf@exp)^080h,w
u2795:

	skipnc
	goto	u2791
	goto	u2790
u2791:
	goto	l6291
u2790:
	line	1208
	
l6299:	
	bsf	status, 5	;RP0=1, select bank1
	bcf	status, 6	;RP1=0, select bank1
	movf	(sprintf@prec+1)^080h,w
	xorlw	80h
	movwf	btemp+1
	movlw	(high(09h))^80h
	subwf	btemp+1,w
	skipz
	goto	u2805
	movlw	low(09h)
	subwf	(sprintf@prec)^080h,w
u2805:

	skipc
	goto	u2801
	goto	u2800
u2801:
	goto	l6303
u2800:
	line	1209
	
l6301:	
	movlw	(08h)
	bsf	status, 5	;RP0=1, select bank1
	bcf	status, 6	;RP1=0, select bank1
	movwf	(sprintf@c)^080h
	goto	l2001
	line	1211
	
l6303:	
	bsf	status, 5	;RP0=1, select bank1
	bcf	status, 6	;RP1=0, select bank1
	movf	(sprintf@prec)^080h,w
	movwf	(sprintf@c)^080h
	
l2001:	
	line	1212
	movf	(sprintf@c)^080h,w
	bcf	status, 5	;RP0=0, select bank0
	movwf	(??_sprintf+0)+0
	clrf	(??_sprintf+0)+0+1
	btfsc	(??_sprintf+0)+0,7
	decf	(??_sprintf+0)+0+1,f
	movf	0+(??_sprintf+0)+0,w
	bsf	status, 5	;RP0=1, select bank1
	subwf	(sprintf@prec)^080h,f
	bcf	status, 5	;RP0=0, select bank0
	movf	1+(??_sprintf+0)+0,w
	bsf	status, 5	;RP0=1, select bank1
	skipc
	decf	(sprintf@prec+1)^080h,f
	subwf	(sprintf@prec+1)^080h,f
	line	1216
	movf	(sprintf@c)^080h,w
	skipz
	goto	u2810
	goto	l6309
u2810:
	line	1218
	
l6305:	
	movf	(sprintf@sp)^080h,w
	movwf	fsr0
	movlw	(02Eh)
	bcf	status, 7	;select IRP bank0
	movwf	indf
	
l6307:	
	incf	(sprintf@sp)^080h,f
	line	1224
	
l6309:	
	movf	(sprintf@c)^080h,w
	fcall	_scale
	movf	(0+(?_scale)),w
	movwf	0+(?___ftmul)+03h
	movf	(1+(?_scale)),w
	movwf	1+(?___ftmul)+03h
	movf	(2+(?_scale)),w
	movwf	2+(?___ftmul)+03h
	bsf	status, 5	;RP0=1, select bank1
	movf	(sprintf@fval)^080h,w
	bcf	status, 5	;RP0=0, select bank0
	movwf	(?___ftmul)
	bsf	status, 5	;RP0=1, select bank1
	movf	(sprintf@fval+1)^080h,w
	bcf	status, 5	;RP0=0, select bank0
	movwf	(?___ftmul+1)
	bsf	status, 5	;RP0=1, select bank1
	movf	(sprintf@fval+2)^080h,w
	bcf	status, 5	;RP0=0, select bank0
	movwf	(?___ftmul+2)
	fcall	___ftmul
	movf	(0+(?___ftmul)),w
	movwf	(?___fttol)
	movf	(1+(?___ftmul)),w
	movwf	(?___fttol+1)
	movf	(2+(?___ftmul)),w
	movwf	(?___fttol+2)
	fcall	___fttol
	movf	(3+(?___fttol)),w
	bsf	status, 5	;RP0=1, select bank1
	movwf	(sprintf@_val+3)^080h
	bcf	status, 5	;RP0=0, select bank0
	movf	(2+(?___fttol)),w
	bsf	status, 5	;RP0=1, select bank1
	movwf	(sprintf@_val+2)^080h
	bcf	status, 5	;RP0=0, select bank0
	movf	(1+(?___fttol)),w
	bsf	status, 5	;RP0=1, select bank1
	movwf	(sprintf@_val+1)^080h
	bcf	status, 5	;RP0=0, select bank0
	movf	(0+(?___fttol)),w
	bsf	status, 5	;RP0=1, select bank1
	movwf	(sprintf@_val)^080h

	line	1225
	goto	l6317
	line	1226
	
l6311:	
	movlw	0Ah
	bcf	status, 5	;RP0=0, select bank0
	movwf	(?___llmod)
	clrf	(?___llmod+1)
	clrf	(?___llmod+2)
	clrf	(?___llmod+3)

	bsf	status, 5	;RP0=1, select bank1
	movf	(sprintf@c)^080h,w
	bcf	status, 5	;RP0=0, select bank0
	movwf	(??_sprintf+0)+0
	clrc
	rlf	(??_sprintf+0)+0,f
	clrc
	rlf	(??_sprintf+0)+0,w
	addlw	low((_dpowers-__stringbase))
	movwf	fsr0
	fcall	stringdir
	movwf	(?___lldiv)
	fcall	stringdir
	movwf	(?___lldiv+1)
	fcall	stringdir
	movwf	(?___lldiv+2)
	fcall	stringdir
	movwf	(?___lldiv+3)
	bsf	status, 5	;RP0=1, select bank1
	movf	(sprintf@_val+3)^080h,w
	movwf	3+(?___lldiv)+04h
	movf	(sprintf@_val+2)^080h,w
	movwf	2+(?___lldiv)+04h
	movf	(sprintf@_val+1)^080h,w
	movwf	1+(?___lldiv)+04h
	movf	(sprintf@_val)^080h,w
	movwf	0+(?___lldiv)+04h

	fcall	___lldiv
	movf	(3+(?___lldiv)),w
	bcf	status, 5	;RP0=0, select bank0
	movwf	3+(?___llmod)+04h
	movf	(2+(?___lldiv)),w
	movwf	2+(?___llmod)+04h
	movf	(1+(?___lldiv)),w
	movwf	1+(?___llmod)+04h
	movf	(0+(?___lldiv)),w
	movwf	0+(?___llmod)+04h

	fcall	___llmod
	movf	0+(((0+(?___llmod)))),w
	addlw	030h
	movwf	(??_sprintf+1)+0
	bsf	status, 5	;RP0=1, select bank1
	movf	(sprintf@sp)^080h,w
	movwf	fsr0
	bcf	status, 5	;RP0=0, select bank0
	movf	(??_sprintf+1)+0,w
	bcf	status, 7	;select IRP bank0
	movwf	indf
	
l6313:	
	bsf	status, 5	;RP0=1, select bank1
	incf	(sprintf@sp)^080h,f
	line	1227
	
l6315:	
	movf	(sprintf@c)^080h,w
	bcf	status, 5	;RP0=0, select bank0
	movwf	(??_sprintf+0)+0
	clrc
	rlf	(??_sprintf+0)+0,f
	clrc
	rlf	(??_sprintf+0)+0,w
	addlw	low((_dpowers-__stringbase))
	movwf	fsr0
	fcall	stringdir
	movwf	(?___llmod)
	fcall	stringdir
	movwf	(?___llmod+1)
	fcall	stringdir
	movwf	(?___llmod+2)
	fcall	stringdir
	movwf	(?___llmod+3)
	bsf	status, 5	;RP0=1, select bank1
	movf	(sprintf@_val+3)^080h,w
	bcf	status, 5	;RP0=0, select bank0
	movwf	3+(?___llmod)+04h
	bsf	status, 5	;RP0=1, select bank1
	movf	(sprintf@_val+2)^080h,w
	bcf	status, 5	;RP0=0, select bank0
	movwf	2+(?___llmod)+04h
	bsf	status, 5	;RP0=1, select bank1
	movf	(sprintf@_val+1)^080h,w
	bcf	status, 5	;RP0=0, select bank0
	movwf	1+(?___llmod)+04h
	bsf	status, 5	;RP0=1, select bank1
	movf	(sprintf@_val)^080h,w
	bcf	status, 5	;RP0=0, select bank0
	movwf	0+(?___llmod)+04h

	fcall	___llmod
	movf	(3+(?___llmod)),w
	bsf	status, 5	;RP0=1, select bank1
	movwf	(sprintf@_val+3)^080h
	bcf	status, 5	;RP0=0, select bank0
	movf	(2+(?___llmod)),w
	bsf	status, 5	;RP0=1, select bank1
	movwf	(sprintf@_val+2)^080h
	bcf	status, 5	;RP0=0, select bank0
	movf	(1+(?___llmod)),w
	bsf	status, 5	;RP0=1, select bank1
	movwf	(sprintf@_val+1)^080h
	bcf	status, 5	;RP0=0, select bank0
	movf	(0+(?___llmod)),w
	bsf	status, 5	;RP0=1, select bank1
	movwf	(sprintf@_val)^080h

	line	1225
	
l6317:	
	decf	(sprintf@c)^080h,f
	incf	((sprintf@c)^080h),w
	skipz
	goto	u2821
	goto	u2820
u2821:
	goto	l6311
u2820:
	goto	l6325
	line	1231
	
l6319:	
	movf	(sprintf@sp)^080h,w
	movwf	fsr0
	movlw	(030h)
	bcf	status, 7	;select IRP bank0
	movwf	indf
	
l6321:	
	incf	(sprintf@sp)^080h,f
	line	1232
	
l6323:	
	movlw	-1
	addwf	(sprintf@prec)^080h,f
	skipc
	decf	(sprintf@prec+1)^080h,f
	line	1230
	
l6325:	
	movf	((sprintf@prec+1)^080h),w
	iorwf	((sprintf@prec)^080h),w
	skipz
	goto	u2831
	goto	u2830
u2831:
	goto	l6319
u2830:
	goto	l6347
	line	1285
	
l6327:	
	bsf	status, 5	;RP0=1, select bank1
	movf	((sprintf@prec+1)^080h),w
	iorwf	((sprintf@prec)^080h),w
	skipz
	goto	u2841
	goto	u2840
u2841:
	goto	l6333
u2840:
	
l6329:	
	movf	(sprintf@_val+3)^080h,w
	iorwf	(sprintf@_val+2)^080h,w
	iorwf	(sprintf@_val+1)^080h,w
	iorwf	(sprintf@_val)^080h,w
	skipz
	goto	u2851
	goto	u2850
u2851:
	goto	l6333
u2850:
	line	1286
	
l6331:	
	incf	(sprintf@prec)^080h,f
	skipnz
	incf	(sprintf@prec+1)^080h,f
	line	1334
	
l6333:	
	movf	(sprintf@c)^080h,w
	bcf	status, 5	;RP0=0, select bank0
	movwf	(??_sprintf+0)+0
	clrf	(??_sprintf+0)+0+1
	btfsc	(??_sprintf+0)+0,7
	decf	(??_sprintf+0)+0+1,f
	movf	1+(??_sprintf+0)+0,w
	xorlw	80h
	movwf	(??_sprintf+2)+0
	bsf	status, 5	;RP0=1, select bank1
	movf	(sprintf@prec+1)^080h,w
	xorlw	80h
	bcf	status, 5	;RP0=0, select bank0
	subwf	(??_sprintf+2)+0,w
	skipz
	goto	u2865
	bsf	status, 5	;RP0=1, select bank1
	movf	(sprintf@prec)^080h,w
	bcf	status, 5	;RP0=0, select bank0
	subwf	0+(??_sprintf+0)+0,w
u2865:

	skipnc
	goto	u2861
	goto	u2860
u2861:
	goto	l6337
u2860:
	line	1335
	
l6335:	
	goto	l6341
	line	1336
	
l6337:	
	bsf	status, 5	;RP0=1, select bank1
	bcf	status, 6	;RP1=0, select bank1
	movf	(sprintf@c)^080h,w
	bcf	status, 5	;RP0=0, select bank0
	movwf	(??_sprintf+0)+0
	clrf	(??_sprintf+0)+0+1
	btfsc	(??_sprintf+0)+0,7
	decf	(??_sprintf+0)+0+1,f
	bsf	status, 5	;RP0=1, select bank1
	movf	(sprintf@prec+1)^080h,w
	xorlw	80h
	bcf	status, 5	;RP0=0, select bank0
	movwf	(??_sprintf+2)+0
	movf	1+(??_sprintf+0)+0,w
	xorlw	80h
	subwf	(??_sprintf+2)+0,w
	skipz
	goto	u2875
	movf	0+(??_sprintf+0)+0,w
	bsf	status, 5	;RP0=1, select bank1
	subwf	(sprintf@prec)^080h,w
u2875:

	skipnc
	goto	u2871
	goto	u2870
u2871:
	goto	l6341
u2870:
	line	1337
	
l6339:	
	line	1433
	
l6341:	
	bsf	status, 5	;RP0=1, select bank1
	bcf	status, 6	;RP1=0, select bank1
	movf	(sprintf@flag)^080h,w
	andlw	03h
	btfsc	status,2
	goto	u2881
	goto	u2880
u2881:
	goto	l6347
u2880:
	line	1434
	
l6343:	
	movf	(sprintf@sp)^080h,w
	movwf	fsr0
	movlw	(02Dh)
	bcf	status, 7	;select IRP bank0
	movwf	indf
	goto	l6159
	line	540
	
l6347:	
	bcf	status, 5	;RP0=0, select bank0
	movf	(sprintf@f),w
	incf	(sprintf@f),f
	movwf	fsr0
	fcall	stringdir
	bsf	status, 5	;RP0=1, select bank1
	movwf	(sprintf@c)^080h
	movf	((sprintf@c)^080h),f
	skipz
	goto	u2891
	goto	u2890
u2891:
	goto	l6155
u2890:
	line	1530
	
l6349:	
	movf	(sprintf@sp)^080h,w
	movwf	fsr0
	bcf	status, 7	;select IRP bank0
	clrf	indf
	line	1533
	
l2015:	
	return
	opt stack 0
GLOBAL	__end_of_sprintf
	__end_of_sprintf:
;; =============== function _sprintf ends ============

	signat	_sprintf,4698
	global	_lcd_puts
psect	text502,local,class=CODE,delta=2
global __ptext502
__ptext502:

;; *************** function _lcd_puts *****************
;; Defined at:
;;		line 44 in file "C:\Users\Varush\Documents\Microcontroladores\Lenguaje C\lcd.c"
;; Parameters:    Size  Location     Type
;;  s               2    5[COMMON] PTR const unsigned char 
;;		 -> carac(5), STR_3(4), STR_2(4), STR_1(4), 
;; Auto vars:     Size  Location     Type
;;		None
;; Return value:  Size  Location     Type
;;		None               void
;; Registers used:
;;		wreg, fsr0l, fsr0h, status,2, status,0, btemp+1, pclath, cstack
;; Tracked objects:
;;		On entry : 60/0
;;		On exit  : 60/0
;;		Unchanged: FFE9F/0
;; Data sizes:     COMMON   BANK0   BANK1   BANK3   BANK2
;;      Params:         2       0       0       0       0
;;      Locals:         0       0       0       0       0
;;      Temps:          0       0       0       0       0
;;      Totals:         2       0       0       0       0
;;Total ram usage:        2 bytes
;; Hardware stack levels used:    1
;; Hardware stack levels required when called:    3
;; This function calls:
;;		_lcd_write
;; This function is called by:
;;		_main
;; This function uses a non-reentrant model
;;
psect	text502
	file	"C:\Users\Varush\Documents\Microcontroladores\Lenguaje C\lcd.c"
	line	44
	global	__size_of_lcd_puts
	__size_of_lcd_puts	equ	__end_of_lcd_puts-_lcd_puts
	
_lcd_puts:	
	opt	stack 4
; Regs used in _lcd_puts: [wreg-fsr0h+status,2+status,0+btemp+1+pclath+cstack]
	line	45
	
l6145:	
;lcd.c: 45: RD2 = 1;
	bsf	(66/8),(66)&7
	line	46
;lcd.c: 46: while(*s)
	goto	l6151
	line	47
	
l6147:	
;lcd.c: 47: lcd_write(*s++);
	movf	(lcd_puts@s+1),w
	movwf	btemp+1
	movf	(lcd_puts@s),w
	movwf	fsr0
	fcall	stringtab
	fcall	_lcd_write
	
l6149:	
	incf	(lcd_puts@s),f
	skipnz
	incf	(lcd_puts@s+1),f
	line	46
	
l6151:	
	movf	(lcd_puts@s+1),w
	movwf	btemp+1
	movf	(lcd_puts@s),w
	movwf	fsr0
	fcall	stringtab
	iorlw	0
	skipz
	goto	u2571
	goto	u2570
u2571:
	goto	l6147
u2570:
	line	48
	
l1913:	
	return
	opt stack 0
GLOBAL	__end_of_lcd_puts
	__end_of_lcd_puts:
;; =============== function _lcd_puts ends ============

	signat	_lcd_puts,4216
	global	_lcd_goto
psect	text503,local,class=CODE,delta=2
global __ptext503
__ptext503:

;; *************** function _lcd_goto *****************
;; Defined at:
;;		line 66 in file "C:\Users\Varush\Documents\Microcontroladores\Lenguaje C\lcd.c"
;; Parameters:    Size  Location     Type
;;  pos             1    wreg     unsigned char 
;; Auto vars:     Size  Location     Type
;;  pos             1    5[COMMON] unsigned char 
;; Return value:  Size  Location     Type
;;		None               void
;; Registers used:
;;		wreg, status,2, status,0, pclath, cstack
;; Tracked objects:
;;		On entry : 40/0
;;		On exit  : 60/0
;;		Unchanged: FFF9F/0
;; Data sizes:     COMMON   BANK0   BANK1   BANK3   BANK2
;;      Params:         0       0       0       0       0
;;      Locals:         1       0       0       0       0
;;      Temps:          0       0       0       0       0
;;      Totals:         1       0       0       0       0
;;Total ram usage:        1 bytes
;; Hardware stack levels used:    1
;; Hardware stack levels required when called:    3
;; This function calls:
;;		_lcd_write
;; This function is called by:
;;		_main
;; This function uses a non-reentrant model
;;
psect	text503
	file	"C:\Users\Varush\Documents\Microcontroladores\Lenguaje C\lcd.c"
	line	66
	global	__size_of_lcd_goto
	__size_of_lcd_goto	equ	__end_of_lcd_goto-_lcd_goto
	
_lcd_goto:	
	opt	stack 4
; Regs used in _lcd_goto: [wreg+status,2+status,0+pclath+cstack]
;lcd_goto@pos stored from wreg
	movwf	(lcd_goto@pos)
	line	67
	
l6141:	
;lcd.c: 67: RD2 = 0;
	bcf	status, 5	;RP0=0, select bank0
	bcf	(66/8),(66)&7
	line	68
	
l6143:	
;lcd.c: 68: lcd_write(0x80+pos);
	movf	(lcd_goto@pos),w
	addlw	080h
	fcall	_lcd_write
	line	69
	
l1919:	
	return
	opt stack 0
GLOBAL	__end_of_lcd_goto
	__end_of_lcd_goto:
;; =============== function _lcd_goto ends ============

	signat	_lcd_goto,4216
	global	___ftsub
psect	text504,local,class=CODE,delta=2
global __ptext504
__ptext504:

;; *************** function ___ftsub *****************
;; Defined at:
;;		line 17 in file "C:\Program Files (x86)\HI-TECH Software\PICC\9.82\sources\ftsub.c"
;; Parameters:    Size  Location     Type
;;  f2              3   40[BANK0 ] float 
;;  f1              3   43[BANK0 ] float 
;; Auto vars:     Size  Location     Type
;;		None
;; Return value:  Size  Location     Type
;;                  3   40[BANK0 ] float 
;; Registers used:
;;		wreg, status,2, status,0, pclath, cstack
;; Tracked objects:
;;		On entry : 60/0
;;		On exit  : 60/0
;;		Unchanged: FFF9F/0
;; Data sizes:     COMMON   BANK0   BANK1   BANK3   BANK2
;;      Params:         0       6       0       0       0
;;      Locals:         0       0       0       0       0
;;      Temps:          0       0       0       0       0
;;      Totals:         0       6       0       0       0
;;Total ram usage:        6 bytes
;; Hardware stack levels used:    1
;; Hardware stack levels required when called:    2
;; This function calls:
;;		___ftadd
;; This function is called by:
;;		_sprintf
;; This function uses a non-reentrant model
;;
psect	text504
	file	"C:\Program Files (x86)\HI-TECH Software\PICC\9.82\sources\ftsub.c"
	line	17
	global	__size_of___ftsub
	__size_of___ftsub	equ	__end_of___ftsub-___ftsub
	
___ftsub:	
	opt	stack 4
; Regs used in ___ftsub: [wreg+status,2+status,0+pclath+cstack]
	line	18
	
l6135:	
	movlw	080h
	xorwf	(___ftsub@f2+2),f
	line	19
	
l6137:	
	movf	(___ftsub@f1),w
	movwf	(?___ftadd)
	movf	(___ftsub@f1+1),w
	movwf	(?___ftadd+1)
	movf	(___ftsub@f1+2),w
	movwf	(?___ftadd+2)
	movf	(___ftsub@f2),w
	movwf	0+(?___ftadd)+03h
	movf	(___ftsub@f2+1),w
	movwf	1+(?___ftadd)+03h
	movf	(___ftsub@f2+2),w
	movwf	2+(?___ftadd)+03h
	fcall	___ftadd
	movf	(0+(?___ftadd)),w
	movwf	(?___ftsub)
	movf	(1+(?___ftadd)),w
	movwf	(?___ftsub+1)
	movf	(2+(?___ftadd)),w
	movwf	(?___ftsub+2)
	line	20
	
l3096:	
	return
	opt stack 0
GLOBAL	__end_of___ftsub
	__end_of___ftsub:
;; =============== function ___ftsub ends ============

	signat	___ftsub,8315
	global	_scale
psect	text505,local,class=CODE,delta=2
global __ptext505
__ptext505:

;; *************** function _scale *****************
;; Defined at:
;;		line 422 in file "C:\Program Files (x86)\HI-TECH Software\PICC\9.82\lib\doprnt.c"
;; Parameters:    Size  Location     Type
;;  scl             1    wreg     char 
;; Auto vars:     Size  Location     Type
;;  scl             1   38[BANK0 ] char 
;; Return value:  Size  Location     Type
;;                  3   28[BANK0 ] char 
;; Registers used:
;;		wreg, fsr0l, fsr0h, status,2, status,0, pclath, cstack
;; Tracked objects:
;;		On entry : 60/20
;;		On exit  : 60/0
;;		Unchanged: FFF9F/0
;; Data sizes:     COMMON   BANK0   BANK1   BANK3   BANK2
;;      Params:         0       3       0       0       0
;;      Locals:         0       4       0       0       0
;;      Temps:          0       4       0       0       0
;;      Totals:         0      11       0       0       0
;;Total ram usage:       11 bytes
;; Hardware stack levels used:    1
;; Hardware stack levels required when called:    2
;; This function calls:
;;		___awmod
;;		___awdiv
;;		___ftmul
;;		___bmul
;; This function is called by:
;;		_sprintf
;; This function uses a non-reentrant model
;;
psect	text505
	file	"C:\Program Files (x86)\HI-TECH Software\PICC\9.82\sources\doprnt.c"
	line	422
	global	__size_of_scale
	__size_of_scale	equ	__end_of_scale-_scale
	
_scale:	
	opt	stack 4
; Regs used in _scale: [wreg-fsr0h+status,2+status,0+pclath+cstack]
;scale@scl stored from wreg
	line	424
	bcf	status, 5	;RP0=0, select bank0
	movwf	(scale@scl)
	
l6095:	
	btfss	(scale@scl),7
	goto	u2521
	goto	u2520
u2521:
	goto	l6117
u2520:
	line	425
	
l6097:	
	comf	(scale@scl),f
	incf	(scale@scl),f
	line	426
	
l6099:	
	movf	(scale@scl),w
	xorlw	80h
	addlw	-((06Eh)^80h)
	skipc
	goto	u2531
	goto	u2530
u2531:
	goto	l6107
u2530:
	line	427
	
l6101:	
	movlw	0Ah
	movwf	(?___awdiv)
	clrf	(?___awdiv+1)
	movf	(scale@scl),w
	movwf	0+(?___awmod)+02h
	clrf	1+(?___awmod)+02h
	btfsc	0+(?___awmod)+02h,7
	decf	1+(?___awmod)+02h,f
	movlw	064h
	movwf	(?___awmod)
	clrf	(?___awmod+1)
	fcall	___awmod
	movf	(1+(?___awmod)),w
	movwf	1+(?___awdiv)+02h
	movf	(0+(?___awmod)),w
	movwf	0+(?___awdiv)+02h
	fcall	___awdiv
	movf	(0+?___awdiv),w
	movwf	(??_scale+0)+0
	movf	(1+?___awdiv),w
	movwf	((??_scale+0)+0+1)
	movf	0+(??_scale+0)+0,w
	addwf	0+(??_scale+0)+0,w
	addwf	0+(??_scale+0)+0,w
	addlw	low((__npowers_-__stringbase)+01Bh)
	movwf	fsr0
	fcall	stringdir
	movwf	(?___ftmul)
	fcall	stringdir
	movwf	(?___ftmul+1)
	fcall	stringdir
	movwf	(?___ftmul+2)
	movlw	064h
	movwf	(?___awdiv)
	clrf	(?___awdiv+1)
	movf	(scale@scl),w
	movwf	0+(?___awdiv)+02h
	clrf	1+(?___awdiv)+02h
	btfsc	0+(?___awdiv)+02h,7
	decf	1+(?___awdiv)+02h,f
	fcall	___awdiv
	movf	(0+?___awdiv),w
	movwf	(??_scale+2)+0
	movf	(1+?___awdiv),w
	movwf	((??_scale+2)+0+1)
	movf	0+(??_scale+2)+0,w
	addwf	0+(??_scale+2)+0,w
	addwf	0+(??_scale+2)+0,w
	addlw	low((__npowers_-__stringbase)+036h)
	movwf	fsr0
	fcall	stringdir
	movwf	0+(?___ftmul)+03h
	fcall	stringdir
	movwf	1+(?___ftmul)+03h
	fcall	stringdir
	movwf	2+(?___ftmul)+03h
	fcall	___ftmul
	movf	(0+(?___ftmul)),w
	movwf	(_scale$3246)
	movf	(1+(?___ftmul)),w
	movwf	(_scale$3246+1)
	movf	(2+(?___ftmul)),w
	movwf	(_scale$3246+2)
	movlw	0Ah
	movwf	(?___awmod)
	clrf	(?___awmod+1)
	movf	(scale@scl),w
	movwf	0+(?___awmod)+02h
	clrf	1+(?___awmod)+02h
	btfsc	0+(?___awmod)+02h,7
	decf	1+(?___awmod)+02h,f
	fcall	___awmod
	movf	(0+?___awmod),w
	movwf	(??_scale+0)+0
	movf	(1+?___awmod),w
	movwf	((??_scale+0)+0+1)
	movf	0+(??_scale+0)+0,w
	addwf	0+(??_scale+0)+0,w
	addwf	0+(??_scale+0)+0,w
	addlw	low((__npowers_-__stringbase))
	movwf	fsr0
	fcall	stringdir
	movwf	(?___ftmul)
	fcall	stringdir
	movwf	(?___ftmul+1)
	fcall	stringdir
	movwf	(?___ftmul+2)
	movf	(_scale$3246),w
	movwf	0+(?___ftmul)+03h
	movf	(_scale$3246+1),w
	movwf	1+(?___ftmul)+03h
	movf	(_scale$3246+2),w
	movwf	2+(?___ftmul)+03h
	fcall	___ftmul
	movf	(0+(?___ftmul)),w
	movwf	(?_scale)
	movf	(1+(?___ftmul)),w
	movwf	(?_scale+1)
	movf	(2+(?___ftmul)),w
	movwf	(?_scale+2)
	goto	l1949
	line	428
	
l6107:	
	movf	(scale@scl),w
	xorlw	80h
	addlw	-((0Bh)^80h)
	skipc
	goto	u2541
	goto	u2540
u2541:
	goto	l6113
u2540:
	line	429
	
l6109:	
	movlw	0Ah
	movwf	(?___awmod)
	clrf	(?___awmod+1)
	movf	(scale@scl),w
	movwf	0+(?___awmod)+02h
	clrf	1+(?___awmod)+02h
	btfsc	0+(?___awmod)+02h,7
	decf	1+(?___awmod)+02h,f
	fcall	___awmod
	movf	(0+?___awmod),w
	movwf	(??_scale+0)+0
	movf	(1+?___awmod),w
	movwf	((??_scale+0)+0+1)
	movf	0+(??_scale+0)+0,w
	addwf	0+(??_scale+0)+0,w
	addwf	0+(??_scale+0)+0,w
	addlw	low((__npowers_-__stringbase))
	movwf	fsr0
	fcall	stringdir
	movwf	(?___ftmul)
	fcall	stringdir
	movwf	(?___ftmul+1)
	fcall	stringdir
	movwf	(?___ftmul+2)
	movlw	0Ah
	movwf	(?___awdiv)
	clrf	(?___awdiv+1)
	movf	(scale@scl),w
	movwf	0+(?___awdiv)+02h
	clrf	1+(?___awdiv)+02h
	btfsc	0+(?___awdiv)+02h,7
	decf	1+(?___awdiv)+02h,f
	fcall	___awdiv
	movf	(0+?___awdiv),w
	movwf	(??_scale+2)+0
	movf	(1+?___awdiv),w
	movwf	((??_scale+2)+0+1)
	movf	0+(??_scale+2)+0,w
	addwf	0+(??_scale+2)+0,w
	addwf	0+(??_scale+2)+0,w
	addlw	low((__npowers_-__stringbase)+01Bh)
	movwf	fsr0
	fcall	stringdir
	movwf	0+(?___ftmul)+03h
	fcall	stringdir
	movwf	1+(?___ftmul)+03h
	fcall	stringdir
	movwf	2+(?___ftmul)+03h
	fcall	___ftmul
	movf	(0+(?___ftmul)),w
	movwf	(?_scale)
	movf	(1+(?___ftmul)),w
	movwf	(?_scale+1)
	movf	(2+(?___ftmul)),w
	movwf	(?_scale+2)
	goto	l1949
	line	430
	
l6113:	
	movlw	(03h)
	movwf	(?___bmul)
	movf	(scale@scl),w
	fcall	___bmul
	addlw	low((__npowers_-__stringbase))
	movwf	fsr0
	fcall	stringdir
	movwf	(?_scale)
	fcall	stringdir
	movwf	(?_scale+1)
	fcall	stringdir
	movwf	(?_scale+2)
	goto	l1949
	line	432
	
l6117:	
	movf	(scale@scl),w
	xorlw	80h
	addlw	-((06Eh)^80h)
	skipc
	goto	u2551
	goto	u2550
u2551:
	goto	l6125
u2550:
	line	433
	
l6119:	
	movlw	0Ah
	movwf	(?___awdiv)
	clrf	(?___awdiv+1)
	movf	(scale@scl),w
	movwf	0+(?___awmod)+02h
	clrf	1+(?___awmod)+02h
	btfsc	0+(?___awmod)+02h,7
	decf	1+(?___awmod)+02h,f
	movlw	064h
	movwf	(?___awmod)
	clrf	(?___awmod+1)
	fcall	___awmod
	movf	(1+(?___awmod)),w
	movwf	1+(?___awdiv)+02h
	movf	(0+(?___awmod)),w
	movwf	0+(?___awdiv)+02h
	fcall	___awdiv
	movf	(0+?___awdiv),w
	movwf	(??_scale+0)+0
	movf	(1+?___awdiv),w
	movwf	((??_scale+0)+0+1)
	movf	0+(??_scale+0)+0,w
	addwf	0+(??_scale+0)+0,w
	addwf	0+(??_scale+0)+0,w
	addlw	low((__powers_-__stringbase)+01Bh)
	movwf	fsr0
	fcall	stringdir
	movwf	(?___ftmul)
	fcall	stringdir
	movwf	(?___ftmul+1)
	fcall	stringdir
	movwf	(?___ftmul+2)
	movlw	064h
	movwf	(?___awdiv)
	clrf	(?___awdiv+1)
	movf	(scale@scl),w
	movwf	0+(?___awdiv)+02h
	clrf	1+(?___awdiv)+02h
	btfsc	0+(?___awdiv)+02h,7
	decf	1+(?___awdiv)+02h,f
	fcall	___awdiv
	movf	(0+?___awdiv),w
	movwf	(??_scale+2)+0
	movf	(1+?___awdiv),w
	movwf	((??_scale+2)+0+1)
	movf	0+(??_scale+2)+0,w
	addwf	0+(??_scale+2)+0,w
	addwf	0+(??_scale+2)+0,w
	addlw	low((__powers_-__stringbase)+036h)
	movwf	fsr0
	fcall	stringdir
	movwf	0+(?___ftmul)+03h
	fcall	stringdir
	movwf	1+(?___ftmul)+03h
	fcall	stringdir
	movwf	2+(?___ftmul)+03h
	fcall	___ftmul
	movf	(0+(?___ftmul)),w
	movwf	(_scale$3246)
	movf	(1+(?___ftmul)),w
	movwf	(_scale$3246+1)
	movf	(2+(?___ftmul)),w
	movwf	(_scale$3246+2)
	movlw	0Ah
	movwf	(?___awmod)
	clrf	(?___awmod+1)
	movf	(scale@scl),w
	movwf	0+(?___awmod)+02h
	clrf	1+(?___awmod)+02h
	btfsc	0+(?___awmod)+02h,7
	decf	1+(?___awmod)+02h,f
	fcall	___awmod
	movf	(0+?___awmod),w
	movwf	(??_scale+0)+0
	movf	(1+?___awmod),w
	movwf	((??_scale+0)+0+1)
	movf	0+(??_scale+0)+0,w
	addwf	0+(??_scale+0)+0,w
	addwf	0+(??_scale+0)+0,w
	addlw	low((__powers_-__stringbase))
	movwf	fsr0
	fcall	stringdir
	movwf	(?___ftmul)
	fcall	stringdir
	movwf	(?___ftmul+1)
	fcall	stringdir
	movwf	(?___ftmul+2)
	movf	(_scale$3246),w
	movwf	0+(?___ftmul)+03h
	movf	(_scale$3246+1),w
	movwf	1+(?___ftmul)+03h
	movf	(_scale$3246+2),w
	movwf	2+(?___ftmul)+03h
	fcall	___ftmul
	movf	(0+(?___ftmul)),w
	movwf	(?_scale)
	movf	(1+(?___ftmul)),w
	movwf	(?_scale+1)
	movf	(2+(?___ftmul)),w
	movwf	(?_scale+2)
	goto	l1949
	line	434
	
l6125:	
	movf	(scale@scl),w
	xorlw	80h
	addlw	-((0Bh)^80h)
	skipc
	goto	u2561
	goto	u2560
u2561:
	goto	l6131
u2560:
	line	435
	
l6127:	
	movlw	0Ah
	movwf	(?___awmod)
	clrf	(?___awmod+1)
	movf	(scale@scl),w
	movwf	0+(?___awmod)+02h
	clrf	1+(?___awmod)+02h
	btfsc	0+(?___awmod)+02h,7
	decf	1+(?___awmod)+02h,f
	fcall	___awmod
	movf	(0+?___awmod),w
	movwf	(??_scale+0)+0
	movf	(1+?___awmod),w
	movwf	((??_scale+0)+0+1)
	movf	0+(??_scale+0)+0,w
	addwf	0+(??_scale+0)+0,w
	addwf	0+(??_scale+0)+0,w
	addlw	low((__powers_-__stringbase))
	movwf	fsr0
	fcall	stringdir
	movwf	(?___ftmul)
	fcall	stringdir
	movwf	(?___ftmul+1)
	fcall	stringdir
	movwf	(?___ftmul+2)
	movlw	0Ah
	movwf	(?___awdiv)
	clrf	(?___awdiv+1)
	movf	(scale@scl),w
	movwf	0+(?___awdiv)+02h
	clrf	1+(?___awdiv)+02h
	btfsc	0+(?___awdiv)+02h,7
	decf	1+(?___awdiv)+02h,f
	fcall	___awdiv
	movf	(0+?___awdiv),w
	movwf	(??_scale+2)+0
	movf	(1+?___awdiv),w
	movwf	((??_scale+2)+0+1)
	movf	0+(??_scale+2)+0,w
	addwf	0+(??_scale+2)+0,w
	addwf	0+(??_scale+2)+0,w
	addlw	low((__powers_-__stringbase)+01Bh)
	movwf	fsr0
	fcall	stringdir
	movwf	0+(?___ftmul)+03h
	fcall	stringdir
	movwf	1+(?___ftmul)+03h
	fcall	stringdir
	movwf	2+(?___ftmul)+03h
	fcall	___ftmul
	movf	(0+(?___ftmul)),w
	movwf	(?_scale)
	movf	(1+(?___ftmul)),w
	movwf	(?_scale+1)
	movf	(2+(?___ftmul)),w
	movwf	(?_scale+2)
	goto	l1949
	line	436
	
l6131:	
	movlw	(03h)
	movwf	(?___bmul)
	movf	(scale@scl),w
	fcall	___bmul
	addlw	low((__powers_-__stringbase))
	movwf	fsr0
	fcall	stringdir
	movwf	(?_scale)
	fcall	stringdir
	movwf	(?_scale+1)
	fcall	stringdir
	movwf	(?_scale+2)
	line	437
	
l1949:	
	return
	opt stack 0
GLOBAL	__end_of_scale
	__end_of_scale:
;; =============== function _scale ends ============

	signat	_scale,4219
	global	_fround
psect	text506,local,class=CODE,delta=2
global __ptext506
__ptext506:

;; *************** function _fround *****************
;; Defined at:
;;		line 406 in file "C:\Program Files (x86)\HI-TECH Software\PICC\9.82\lib\doprnt.c"
;; Parameters:    Size  Location     Type
;;  prec            1    wreg     unsigned char 
;; Auto vars:     Size  Location     Type
;;  prec            1   49[BANK0 ] unsigned char 
;; Return value:  Size  Location     Type
;;                  3   40[BANK0 ] unsigned char 
;; Registers used:
;;		wreg, fsr0l, fsr0h, status,2, status,0, pclath, cstack
;; Tracked objects:
;;		On entry : 60/20
;;		On exit  : 60/0
;;		Unchanged: FFF9F/0
;; Data sizes:     COMMON   BANK0   BANK1   BANK3   BANK2
;;      Params:         0       3       0       0       0
;;      Locals:         0       7       0       0       0
;;      Temps:          0       0       0       0       0
;;      Totals:         0      10       0       0       0
;;Total ram usage:       10 bytes
;; Hardware stack levels used:    1
;; Hardware stack levels required when called:    2
;; This function calls:
;;		___lbmod
;;		___bmul
;;		___lbdiv
;;		___ftmul
;; This function is called by:
;;		_sprintf
;; This function uses a non-reentrant model
;;
psect	text506
	file	"C:\Program Files (x86)\HI-TECH Software\PICC\9.82\sources\doprnt.c"
	line	406
	global	__size_of_fround
	__size_of_fround	equ	__end_of_fround-_fround
	
_fround:	
	opt	stack 4
; Regs used in _fround: [wreg-fsr0h+status,2+status,0+pclath+cstack]
;fround@prec stored from wreg
	line	409
	bcf	status, 5	;RP0=0, select bank0
	movwf	(fround@prec)
	
l6073:	
	movlw	(06Eh)
	subwf	(fround@prec),w
	skipc
	goto	u2501
	goto	u2500
u2501:
	goto	l6083
u2500:
	line	410
	
l6075:	
	movlw	(03h)
	movwf	(?___bmul)
	movlw	(0Ah)
	movwf	(?___lbdiv)
	movlw	(064h)
	movwf	(?___lbmod)
	movf	(fround@prec),w
	fcall	___lbmod
	fcall	___lbdiv
	fcall	___bmul
	addlw	low((__npowers_-__stringbase)+01Bh)
	movwf	fsr0
	fcall	stringdir
	movwf	(?___ftmul)
	fcall	stringdir
	movwf	(?___ftmul+1)
	fcall	stringdir
	movwf	(?___ftmul+2)
	movlw	(03h)
	movwf	(?___bmul)
	movlw	(064h)
	movwf	(?___lbdiv)
	movf	(fround@prec),w
	fcall	___lbdiv
	fcall	___bmul
	addlw	low((__npowers_-__stringbase)+036h)
	movwf	fsr0
	fcall	stringdir
	movwf	0+(?___ftmul)+03h
	fcall	stringdir
	movwf	1+(?___ftmul)+03h
	fcall	stringdir
	movwf	2+(?___ftmul)+03h
	fcall	___ftmul
	movf	(0+(?___ftmul)),w
	movwf	(_fround$3244)
	movf	(1+(?___ftmul)),w
	movwf	(_fround$3244+1)
	movf	(2+(?___ftmul)),w
	movwf	(_fround$3244+2)
	movlw	(03h)
	movwf	(?___bmul)
	movlw	(0Ah)
	movwf	(?___lbmod)
	movf	(fround@prec),w
	fcall	___lbmod
	fcall	___bmul
	addlw	low((__npowers_-__stringbase))
	movwf	fsr0
	fcall	stringdir
	movwf	(?___ftmul)
	fcall	stringdir
	movwf	(?___ftmul+1)
	fcall	stringdir
	movwf	(?___ftmul+2)
	movf	(_fround$3244),w
	movwf	0+(?___ftmul)+03h
	movf	(_fround$3244+1),w
	movwf	1+(?___ftmul)+03h
	movf	(_fround$3244+2),w
	movwf	2+(?___ftmul)+03h
	fcall	___ftmul
	movf	(0+(?___ftmul)),w
	movwf	(_fround$3245)
	movf	(1+(?___ftmul)),w
	movwf	(_fround$3245+1)
	movf	(2+(?___ftmul)),w
	movwf	(_fround$3245+2)
	
l6077:	
	movlw	0x0
	movwf	(?___ftmul)
	movlw	0x0
	movwf	(?___ftmul+1)
	movlw	0x3f
	movwf	(?___ftmul+2)
	movf	(_fround$3245),w
	movwf	0+(?___ftmul)+03h
	movf	(_fround$3245+1),w
	movwf	1+(?___ftmul)+03h
	movf	(_fround$3245+2),w
	movwf	2+(?___ftmul)+03h
	fcall	___ftmul
	movf	(0+(?___ftmul)),w
	movwf	(?_fround)
	movf	(1+(?___ftmul)),w
	movwf	(?_fround+1)
	movf	(2+(?___ftmul)),w
	movwf	(?_fround+2)
	goto	l1942
	line	411
	
l6083:	
	movlw	(0Bh)
	subwf	(fround@prec),w
	skipc
	goto	u2511
	goto	u2510
u2511:
	goto	l6091
u2510:
	line	412
	
l6085:	
	movlw	(03h)
	movwf	(?___bmul)
	movlw	(0Ah)
	movwf	(?___lbmod)
	movf	(fround@prec),w
	fcall	___lbmod
	fcall	___bmul
	addlw	low((__npowers_-__stringbase))
	movwf	fsr0
	fcall	stringdir
	movwf	(?___ftmul)
	fcall	stringdir
	movwf	(?___ftmul+1)
	fcall	stringdir
	movwf	(?___ftmul+2)
	movlw	(03h)
	movwf	(?___bmul)
	movlw	(0Ah)
	movwf	(?___lbdiv)
	movf	(fround@prec),w
	fcall	___lbdiv
	fcall	___bmul
	addlw	low((__npowers_-__stringbase)+01Bh)
	movwf	fsr0
	fcall	stringdir
	movwf	0+(?___ftmul)+03h
	fcall	stringdir
	movwf	1+(?___ftmul)+03h
	fcall	stringdir
	movwf	2+(?___ftmul)+03h
	fcall	___ftmul
	movf	(0+(?___ftmul)),w
	movwf	(_fround$3244)
	movf	(1+(?___ftmul)),w
	movwf	(_fround$3244+1)
	movf	(2+(?___ftmul)),w
	movwf	(_fround$3244+2)
	
l6087:	
	movlw	0x0
	movwf	(?___ftmul)
	movlw	0x0
	movwf	(?___ftmul+1)
	movlw	0x3f
	movwf	(?___ftmul+2)
	movf	(_fround$3244),w
	movwf	0+(?___ftmul)+03h
	movf	(_fround$3244+1),w
	movwf	1+(?___ftmul)+03h
	movf	(_fround$3244+2),w
	movwf	2+(?___ftmul)+03h
	fcall	___ftmul
	movf	(0+(?___ftmul)),w
	movwf	(?_fround)
	movf	(1+(?___ftmul)),w
	movwf	(?_fround+1)
	movf	(2+(?___ftmul)),w
	movwf	(?_fround+2)
	goto	l1942
	line	413
	
l6091:	
	movlw	0x0
	movwf	(?___ftmul)
	movlw	0x0
	movwf	(?___ftmul+1)
	movlw	0x3f
	movwf	(?___ftmul+2)
	movlw	(03h)
	movwf	(?___bmul)
	movf	(fround@prec),w
	fcall	___bmul
	addlw	low((__npowers_-__stringbase))
	movwf	fsr0
	fcall	stringdir
	movwf	0+(?___ftmul)+03h
	fcall	stringdir
	movwf	1+(?___ftmul)+03h
	fcall	stringdir
	movwf	2+(?___ftmul)+03h
	fcall	___ftmul
	movf	(0+(?___ftmul)),w
	movwf	(?_fround)
	movf	(1+(?___ftmul)),w
	movwf	(?_fround+1)
	movf	(2+(?___ftmul)),w
	movwf	(?_fround+2)
	line	414
	
l1942:	
	return
	opt stack 0
GLOBAL	__end_of_fround
	__end_of_fround:
;; =============== function _fround ends ============

	signat	_fround,4219
	global	_lcd_write
psect	text507,local,class=CODE,delta=2
global __ptext507
__ptext507:

;; *************** function _lcd_write *****************
;; Defined at:
;;		line 19 in file "C:\Users\Varush\Documents\Microcontroladores\Lenguaje C\lcd.c"
;; Parameters:    Size  Location     Type
;;  c               1    wreg     unsigned char 
;; Auto vars:     Size  Location     Type
;;  c               1    4[COMMON] unsigned char 
;; Return value:  Size  Location     Type
;;		None               void
;; Registers used:
;;		wreg, status,2, status,0, pclath, cstack
;; Tracked objects:
;;		On entry : 0/0
;;		On exit  : 60/0
;;		Unchanged: FFF9F/0
;; Data sizes:     COMMON   BANK0   BANK1   BANK3   BANK2
;;      Params:         0       0       0       0       0
;;      Locals:         1       0       0       0       0
;;      Temps:          0       0       0       0       0
;;      Totals:         1       0       0       0       0
;;Total ram usage:        1 bytes
;; Hardware stack levels used:    1
;; Hardware stack levels required when called:    2
;; This function calls:
;;		_pause
;; This function is called by:
;;		_lcd_clear
;;		_lcd_puts
;;		_lcd_goto
;;		_lcd_init
;; This function uses a non-reentrant model
;;
psect	text507
	file	"C:\Users\Varush\Documents\Microcontroladores\Lenguaje C\lcd.c"
	line	19
	global	__size_of_lcd_write
	__size_of_lcd_write	equ	__end_of_lcd_write-_lcd_write
	
_lcd_write:	
	opt	stack 4
; Regs used in _lcd_write: [wreg+status,2+status,0+pclath+cstack]
;lcd_write@c stored from wreg
	movwf	(lcd_write@c)
	line	20
	
l6059:	
;lcd.c: 20: pause (1);
	clrf	(?_pause)
	incf	(?_pause),f
	clrf	(?_pause+1)
	fcall	_pause
	line	21
	
l6061:	
;lcd.c: 21: PORTC = ( ( c >> 4 ) & 0x0F );
	swapf	(lcd_write@c),w
	andlw	(0ffh shr 4) & 0ffh
	andlw	0Fh
	bcf	status, 5	;RP0=0, select bank0
	bcf	status, 6	;RP1=0, select bank0
	movwf	(7)	;volatile
	line	22
	
l6063:	
;lcd.c: 22: ((RD1 = 1),(RD1=0));
	bsf	(65/8),(65)&7
	
l6065:	
	bcf	(65/8),(65)&7
	line	23
	
l6067:	
;lcd.c: 23: PORTC = ( c & 0x0F );
	movf	(lcd_write@c),w
	andlw	0Fh
	movwf	(7)	;volatile
	line	24
	
l6069:	
;lcd.c: 24: ((RD1 = 1),(RD1=0));
	bsf	(65/8),(65)&7
	
l6071:	
	bcf	(65/8),(65)&7
	line	26
	
l1904:	
	return
	opt stack 0
GLOBAL	__end_of_lcd_write
	__end_of_lcd_write:
;; =============== function _lcd_write ends ============

	signat	_lcd_write,4216
	global	___lltoft
psect	text508,local,class=CODE,delta=2
global __ptext508
__ptext508:

;; *************** function ___lltoft *****************
;; Defined at:
;;		line 36 in file "C:\Program Files (x86)\HI-TECH Software\PICC\9.82\sources\lltoft.c"
;; Parameters:    Size  Location     Type
;;  c               4    8[COMMON] unsigned long 
;; Auto vars:     Size  Location     Type
;;  exp             1   12[COMMON] unsigned char 
;; Return value:  Size  Location     Type
;;                  3    8[COMMON] float 
;; Registers used:
;;		wreg, status,2, status,0, pclath, cstack
;; Tracked objects:
;;		On entry : 60/20
;;		On exit  : 60/20
;;		Unchanged: FFF9F/0
;; Data sizes:     COMMON   BANK0   BANK1   BANK3   BANK2
;;      Params:         4       0       0       0       0
;;      Locals:         1       0       0       0       0
;;      Temps:          0       0       0       0       0
;;      Totals:         5       0       0       0       0
;;Total ram usage:        5 bytes
;; Hardware stack levels used:    1
;; Hardware stack levels required when called:    1
;; This function calls:
;;		___ftpack
;; This function is called by:
;;		_sprintf
;; This function uses a non-reentrant model
;;
psect	text508
	file	"C:\Program Files (x86)\HI-TECH Software\PICC\9.82\sources\lltoft.c"
	line	36
	global	__size_of___lltoft
	__size_of___lltoft	equ	__end_of___lltoft-___lltoft
	
___lltoft:	
	opt	stack 5
; Regs used in ___lltoft: [wreg+status,2+status,0+pclath+cstack]
	line	38
	
l6049:	
	movlw	(08Eh)
	movwf	(___lltoft@exp)
	line	41
	goto	l6053
	line	42
	
l6051:	
	clrc
	rrf	(___lltoft@c+3),f
	rrf	(___lltoft@c+2),f
	rrf	(___lltoft@c+1),f
	rrf	(___lltoft@c),f
	line	43
	incf	(___lltoft@exp),f
	line	41
	
l6053:	
	movlw	high highword(-16777216)
	andwf	(___lltoft@c+3),w
	btfss	status,2
	goto	u2491
	goto	u2490
u2491:
	goto	l6051
u2490:
	line	45
	
l6055:	
	movf	(___lltoft@c),w
	movwf	(?___ftpack)
	movf	(___lltoft@c+1),w
	movwf	(?___ftpack+1)
	movf	(___lltoft@c+2),w
	movwf	(?___ftpack+2)
	movf	(___lltoft@exp),w
	movwf	0+(?___ftpack)+03h
	clrf	0+(?___ftpack)+04h
	fcall	___ftpack
	movf	(0+(?___ftpack)),w
	movwf	(?___lltoft)
	movf	(1+(?___ftpack)),w
	movwf	(?___lltoft+1)
	movf	(2+(?___ftpack)),w
	movwf	(?___lltoft+2)
	line	46
	
l3253:	
	return
	opt stack 0
GLOBAL	__end_of___lltoft
	__end_of___lltoft:
;; =============== function ___lltoft ends ============

	signat	___lltoft,4219
	global	___lwtoft
psect	text509,local,class=CODE,delta=2
global __ptext509
__ptext509:

;; *************** function ___lwtoft *****************
;; Defined at:
;;		line 29 in file "C:\Program Files (x86)\HI-TECH Software\PICC\9.82\sources\lwtoft.c"
;; Parameters:    Size  Location     Type
;;  c               2    8[COMMON] unsigned int 
;; Auto vars:     Size  Location     Type
;;		None
;; Return value:  Size  Location     Type
;;                  3    8[COMMON] float 
;; Registers used:
;;		wreg, status,2, status,0, pclath, cstack
;; Tracked objects:
;;		On entry : 60/0
;;		On exit  : 60/0
;;		Unchanged: FFF9F/0
;; Data sizes:     COMMON   BANK0   BANK1   BANK3   BANK2
;;      Params:         3       0       0       0       0
;;      Locals:         0       0       0       0       0
;;      Temps:          0       0       0       0       0
;;      Totals:         3       0       0       0       0
;;Total ram usage:        3 bytes
;; Hardware stack levels used:    1
;; Hardware stack levels required when called:    1
;; This function calls:
;;		___ftpack
;; This function is called by:
;;		_main
;; This function uses a non-reentrant model
;;
psect	text509
	file	"C:\Program Files (x86)\HI-TECH Software\PICC\9.82\sources\lwtoft.c"
	line	29
	global	__size_of___lwtoft
	__size_of___lwtoft	equ	__end_of___lwtoft-___lwtoft
	
___lwtoft:	
	opt	stack 6
; Regs used in ___lwtoft: [wreg+status,2+status,0+pclath+cstack]
	line	30
	
l6045:	
	movf	(___lwtoft@c),w
	movwf	(?___ftpack)
	movf	(___lwtoft@c+1),w
	movwf	(?___ftpack+1)
	clrf	(?___ftpack+2)
	movlw	(08Eh)
	movwf	0+(?___ftpack)+03h
	clrf	0+(?___ftpack)+04h
	fcall	___ftpack
	movf	(0+(?___ftpack)),w
	movwf	(?___lwtoft)
	movf	(1+(?___ftpack)),w
	movwf	(?___lwtoft+1)
	movf	(2+(?___ftpack)),w
	movwf	(?___lwtoft+2)
	line	31
	
l3236:	
	return
	opt stack 0
GLOBAL	__end_of___lwtoft
	__end_of___lwtoft:
;; =============== function ___lwtoft ends ============

	signat	___lwtoft,4219
	global	___ftmul
psect	text510,local,class=CODE,delta=2
global __ptext510
__ptext510:

;; *************** function ___ftmul *****************
;; Defined at:
;;		line 52 in file "C:\Program Files (x86)\HI-TECH Software\PICC\9.82\sources\ftmul.c"
;; Parameters:    Size  Location     Type
;;  f1              3   13[BANK0 ] float 
;;  f2              3   16[BANK0 ] float 
;; Auto vars:     Size  Location     Type
;;  f3_as_produc    3   23[BANK0 ] unsigned um
;;  sign            1   27[BANK0 ] unsigned char 
;;  cntr            1   26[BANK0 ] unsigned char 
;;  exp             1   22[BANK0 ] unsigned char 
;; Return value:  Size  Location     Type
;;                  3   13[BANK0 ] float 
;; Registers used:
;;		wreg, status,2, status,0, pclath, cstack
;; Tracked objects:
;;		On entry : 60/0
;;		On exit  : 60/0
;;		Unchanged: FFF9F/0
;; Data sizes:     COMMON   BANK0   BANK1   BANK3   BANK2
;;      Params:         0       6       0       0       0
;;      Locals:         0       6       0       0       0
;;      Temps:          0       3       0       0       0
;;      Totals:         0      15       0       0       0
;;Total ram usage:       15 bytes
;; Hardware stack levels used:    1
;; Hardware stack levels required when called:    1
;; This function calls:
;;		___ftpack
;; This function is called by:
;;		_main
;;		_fround
;;		_scale
;;		_sprintf
;; This function uses a non-reentrant model
;;
psect	text510
	file	"C:\Program Files (x86)\HI-TECH Software\PICC\9.82\sources\ftmul.c"
	line	52
	global	__size_of___ftmul
	__size_of___ftmul	equ	__end_of___ftmul-___ftmul
	
___ftmul:	
	opt	stack 4
; Regs used in ___ftmul: [wreg+status,2+status,0+pclath+cstack]
	line	56
	
l5989:	
	movf	(___ftmul@f1),w
	movwf	((??___ftmul+0)+0)
	movf	(___ftmul@f1+1),w
	movwf	((??___ftmul+0)+0+1)
	movf	(___ftmul@f1+2),w
	movwf	((??___ftmul+0)+0+2)
	clrc
	rlf	(??___ftmul+0)+1,w
	rlf	(??___ftmul+0)+2,w
	movwf	(___ftmul@exp)
	movf	((___ftmul@exp)),f
	skipz
	goto	u2411
	goto	u2410
u2411:
	goto	l5995
u2410:
	line	57
	
l5991:	
	clrf	(?___ftmul)
	clrf	(?___ftmul+1)
	clrf	(?___ftmul+2)
	goto	l3112
	line	58
	
l5995:	
	movf	(___ftmul@f2),w
	movwf	((??___ftmul+0)+0)
	movf	(___ftmul@f2+1),w
	movwf	((??___ftmul+0)+0+1)
	movf	(___ftmul@f2+2),w
	movwf	((??___ftmul+0)+0+2)
	clrc
	rlf	(??___ftmul+0)+1,w
	rlf	(??___ftmul+0)+2,w
	movwf	(___ftmul@sign)
	movf	((___ftmul@sign)),f
	skipz
	goto	u2421
	goto	u2420
u2421:
	goto	l6001
u2420:
	line	59
	
l5997:	
	clrf	(?___ftmul)
	clrf	(?___ftmul+1)
	clrf	(?___ftmul+2)
	goto	l3112
	line	60
	
l6001:	
	movf	(___ftmul@sign),w
	addlw	07Bh
	addwf	(___ftmul@exp),f
	line	61
	
l6003:	
	movf	0+(((___ftmul@f1))+2),w
	movwf	(___ftmul@sign)
	line	62
	
l6005:	
	movf	0+(((___ftmul@f2))+2),w
	xorwf	(___ftmul@sign),f
	line	63
	
l6007:	
	movlw	(080h)
	andwf	(___ftmul@sign),f
	line	64
	
l6009:	
	bsf	(___ftmul@f1)+(15/8),(15)&7
	line	66
	
l6011:	
	bsf	(___ftmul@f2)+(15/8),(15)&7
	line	67
	
l6013:	
	movlw	0FFh
	andwf	(___ftmul@f2),f
	movlw	0FFh
	andwf	(___ftmul@f2+1),f
	movlw	0
	andwf	(___ftmul@f2+2),f
	line	68
	
l6015:	
	clrf	(___ftmul@f3_as_product)
	clrf	(___ftmul@f3_as_product+1)
	clrf	(___ftmul@f3_as_product+2)
	line	69
	
l6017:	
	movlw	(07h)
	movwf	(___ftmul@cntr)
	line	71
	
l6019:	
	btfss	(___ftmul@f1),(0)&7
	goto	u2431
	goto	u2430
u2431:
	goto	l6023
u2430:
	line	72
	
l6021:	
	movf	(___ftmul@f2),w
	addwf	(___ftmul@f3_as_product),f
	movf	(___ftmul@f2+1),w
	clrz
	skipnc
	incf	(___ftmul@f2+1),w
	skipnz
	goto	u2441
	addwf	(___ftmul@f3_as_product+1),f
u2441:
	movf	(___ftmul@f2+2),w
	clrz
	skipnc
	incf	(___ftmul@f2+2),w
	skipnz
	goto	u2442
	addwf	(___ftmul@f3_as_product+2),f
u2442:

	line	73
	
l6023:	
	clrc
	rrf	(___ftmul@f1+2),f
	rrf	(___ftmul@f1+1),f
	rrf	(___ftmul@f1),f
	line	74
	
l6025:	
	clrc
	rlf	(___ftmul@f2),f
	rlf	(___ftmul@f2+1),f
	rlf	(___ftmul@f2+2),f
	line	75
	
l6027:	
	decfsz	(___ftmul@cntr),f
	goto	u2451
	goto	u2450
u2451:
	goto	l6019
u2450:
	line	76
	
l6029:	
	movlw	(09h)
	movwf	(___ftmul@cntr)
	line	78
	
l6031:	
	btfss	(___ftmul@f1),(0)&7
	goto	u2461
	goto	u2460
u2461:
	goto	l6035
u2460:
	line	79
	
l6033:	
	movf	(___ftmul@f2),w
	addwf	(___ftmul@f3_as_product),f
	movf	(___ftmul@f2+1),w
	clrz
	skipnc
	incf	(___ftmul@f2+1),w
	skipnz
	goto	u2471
	addwf	(___ftmul@f3_as_product+1),f
u2471:
	movf	(___ftmul@f2+2),w
	clrz
	skipnc
	incf	(___ftmul@f2+2),w
	skipnz
	goto	u2472
	addwf	(___ftmul@f3_as_product+2),f
u2472:

	line	80
	
l6035:	
	clrc
	rrf	(___ftmul@f1+2),f
	rrf	(___ftmul@f1+1),f
	rrf	(___ftmul@f1),f
	line	81
	
l6037:	
	clrc
	rrf	(___ftmul@f3_as_product+2),f
	rrf	(___ftmul@f3_as_product+1),f
	rrf	(___ftmul@f3_as_product),f
	line	82
	
l6039:	
	decfsz	(___ftmul@cntr),f
	goto	u2481
	goto	u2480
u2481:
	goto	l6031
u2480:
	line	83
	
l6041:	
	movf	(___ftmul@f3_as_product),w
	movwf	(?___ftpack)
	movf	(___ftmul@f3_as_product+1),w
	movwf	(?___ftpack+1)
	movf	(___ftmul@f3_as_product+2),w
	movwf	(?___ftpack+2)
	movf	(___ftmul@exp),w
	movwf	0+(?___ftpack)+03h
	movf	(___ftmul@sign),w
	movwf	0+(?___ftpack)+04h
	fcall	___ftpack
	movf	(0+(?___ftpack)),w
	movwf	(?___ftmul)
	movf	(1+(?___ftpack)),w
	movwf	(?___ftmul+1)
	movf	(2+(?___ftpack)),w
	movwf	(?___ftmul+2)
	line	84
	
l3112:	
	return
	opt stack 0
GLOBAL	__end_of___ftmul
	__end_of___ftmul:
;; =============== function ___ftmul ends ============

	signat	___ftmul,8315
	global	___ftadd
psect	text511,local,class=CODE,delta=2
global __ptext511
__ptext511:

;; *************** function ___ftadd *****************
;; Defined at:
;;		line 87 in file "C:\Program Files (x86)\HI-TECH Software\PICC\9.82\sources\ftadd.c"
;; Parameters:    Size  Location     Type
;;  f1              3   28[BANK0 ] float 
;;  f2              3   31[BANK0 ] float 
;; Auto vars:     Size  Location     Type
;;  exp1            1   39[BANK0 ] unsigned char 
;;  exp2            1   38[BANK0 ] unsigned char 
;;  sign            1   37[BANK0 ] unsigned char 
;; Return value:  Size  Location     Type
;;                  3   28[BANK0 ] float 
;; Registers used:
;;		wreg, status,2, status,0, pclath, cstack
;; Tracked objects:
;;		On entry : 60/0
;;		On exit  : 60/0
;;		Unchanged: FFF9F/0
;; Data sizes:     COMMON   BANK0   BANK1   BANK3   BANK2
;;      Params:         0       6       0       0       0
;;      Locals:         0       3       0       0       0
;;      Temps:          0       3       0       0       0
;;      Totals:         0      12       0       0       0
;;Total ram usage:       12 bytes
;; Hardware stack levels used:    1
;; Hardware stack levels required when called:    1
;; This function calls:
;;		___ftpack
;; This function is called by:
;;		_sprintf
;;		___ftsub
;; This function uses a non-reentrant model
;;
psect	text511
	file	"C:\Program Files (x86)\HI-TECH Software\PICC\9.82\sources\ftadd.c"
	line	87
	global	__size_of___ftadd
	__size_of___ftadd	equ	__end_of___ftadd-___ftadd
	
___ftadd:	
	opt	stack 4
; Regs used in ___ftadd: [wreg+status,2+status,0+pclath+cstack]
	line	90
	
l5911:	
	movf	(___ftadd@f1),w
	movwf	((??___ftadd+0)+0)
	movf	(___ftadd@f1+1),w
	movwf	((??___ftadd+0)+0+1)
	movf	(___ftadd@f1+2),w
	movwf	((??___ftadd+0)+0+2)
	clrc
	rlf	(??___ftadd+0)+1,w
	rlf	(??___ftadd+0)+2,w
	movwf	(___ftadd@exp1)
	line	91
	movf	(___ftadd@f2),w
	movwf	((??___ftadd+0)+0)
	movf	(___ftadd@f2+1),w
	movwf	((??___ftadd+0)+0+1)
	movf	(___ftadd@f2+2),w
	movwf	((??___ftadd+0)+0+2)
	clrc
	rlf	(??___ftadd+0)+1,w
	rlf	(??___ftadd+0)+2,w
	movwf	(___ftadd@exp2)
	line	92
	
l5913:	
	movf	(___ftadd@exp1),w
	skipz
	goto	u2210
	goto	l5919
u2210:
	
l5915:	
	movf	(___ftadd@exp2),w
	subwf	(___ftadd@exp1),w
	skipnc
	goto	u2221
	goto	u2220
u2221:
	goto	l5923
u2220:
	
l5917:	
	movf	(___ftadd@exp2),w
	movwf	(??___ftadd+0)+0
	movf	(___ftadd@exp1),w
	subwf	(??___ftadd+0)+0,f
	movlw	(019h)
	subwf	0+(??___ftadd+0)+0,w
	skipc
	goto	u2231
	goto	u2230
u2231:
	goto	l5923
u2230:
	line	93
	
l5919:	
	movf	(___ftadd@f2),w
	movwf	(?___ftadd)
	movf	(___ftadd@f2+1),w
	movwf	(?___ftadd+1)
	movf	(___ftadd@f2+2),w
	movwf	(?___ftadd+2)
	goto	l3060
	line	94
	
l5923:	
	movf	(___ftadd@exp2),w
	skipz
	goto	u2240
	goto	l3063
u2240:
	
l5925:	
	movf	(___ftadd@exp1),w
	subwf	(___ftadd@exp2),w
	skipnc
	goto	u2251
	goto	u2250
u2251:
	goto	l5929
u2250:
	
l5927:	
	movf	(___ftadd@exp1),w
	movwf	(??___ftadd+0)+0
	movf	(___ftadd@exp2),w
	subwf	(??___ftadd+0)+0,f
	movlw	(019h)
	subwf	0+(??___ftadd+0)+0,w
	skipc
	goto	u2261
	goto	u2260
u2261:
	goto	l5929
u2260:
	
l3063:	
	line	95
	goto	l3060
	line	96
	
l5929:	
	movlw	(06h)
	movwf	(___ftadd@sign)
	line	97
	
l5931:	
	btfss	(___ftadd@f1+2),(23)&7
	goto	u2271
	goto	u2270
u2271:
	goto	l3064
u2270:
	line	98
	
l5933:	
	bsf	(___ftadd@sign)+(7/8),(7)&7
	
l3064:	
	line	99
	btfss	(___ftadd@f2+2),(23)&7
	goto	u2281
	goto	u2280
u2281:
	goto	l3065
u2280:
	line	100
	
l5935:	
	bsf	(___ftadd@sign)+(6/8),(6)&7
	
l3065:	
	line	101
	bsf	(___ftadd@f1)+(15/8),(15)&7
	line	102
	
l5937:	
	movlw	0FFh
	andwf	(___ftadd@f1),f
	movlw	0FFh
	andwf	(___ftadd@f1+1),f
	movlw	0
	andwf	(___ftadd@f1+2),f
	line	103
	
l5939:	
	bsf	(___ftadd@f2)+(15/8),(15)&7
	line	104
	movlw	0FFh
	andwf	(___ftadd@f2),f
	movlw	0FFh
	andwf	(___ftadd@f2+1),f
	movlw	0
	andwf	(___ftadd@f2+2),f
	line	106
	movf	(___ftadd@exp2),w
	subwf	(___ftadd@exp1),w
	skipnc
	goto	u2291
	goto	u2290
u2291:
	goto	l5951
u2290:
	line	110
	
l5941:	
	clrc
	rlf	(___ftadd@f2),f
	rlf	(___ftadd@f2+1),f
	rlf	(___ftadd@f2+2),f
	line	111
	decf	(___ftadd@exp2),f
	line	112
	
l5943:	
	movf	(___ftadd@exp2),w
	xorwf	(___ftadd@exp1),w
	skipnz
	goto	u2301
	goto	u2300
u2301:
	goto	l5949
u2300:
	
l5945:	
	decf	(___ftadd@sign),f
	movf	((___ftadd@sign)),w
	andlw	07h
	btfss	status,2
	goto	u2311
	goto	u2310
u2311:
	goto	l5941
u2310:
	goto	l5949
	line	114
	
l5947:	
	clrc
	rrf	(___ftadd@f1+2),f
	rrf	(___ftadd@f1+1),f
	rrf	(___ftadd@f1),f
	line	115
	incf	(___ftadd@exp1),f
	line	113
	
l5949:	
	movf	(___ftadd@exp1),w
	xorwf	(___ftadd@exp2),w
	skipz
	goto	u2321
	goto	u2320
u2321:
	goto	l5947
u2320:
	goto	l3074
	line	117
	
l5951:	
	movf	(___ftadd@exp1),w
	subwf	(___ftadd@exp2),w
	skipnc
	goto	u2331
	goto	u2330
u2331:
	goto	l3074
u2330:
	line	121
	
l5953:	
	clrc
	rlf	(___ftadd@f1),f
	rlf	(___ftadd@f1+1),f
	rlf	(___ftadd@f1+2),f
	line	122
	decf	(___ftadd@exp1),f
	line	123
	
l5955:	
	movf	(___ftadd@exp2),w
	xorwf	(___ftadd@exp1),w
	skipnz
	goto	u2341
	goto	u2340
u2341:
	goto	l5961
u2340:
	
l5957:	
	decf	(___ftadd@sign),f
	movf	((___ftadd@sign)),w
	andlw	07h
	btfss	status,2
	goto	u2351
	goto	u2350
u2351:
	goto	l5953
u2350:
	goto	l5961
	line	125
	
l5959:	
	clrc
	rrf	(___ftadd@f2+2),f
	rrf	(___ftadd@f2+1),f
	rrf	(___ftadd@f2),f
	line	126
	incf	(___ftadd@exp2),f
	line	124
	
l5961:	
	movf	(___ftadd@exp1),w
	xorwf	(___ftadd@exp2),w
	skipz
	goto	u2361
	goto	u2360
u2361:
	goto	l5959
u2360:
	line	129
	
l3074:	
	btfss	(___ftadd@sign),(7)&7
	goto	u2371
	goto	u2370
u2371:
	goto	l5967
u2370:
	line	131
	
l5963:	
	movlw	0FFh
	xorwf	(___ftadd@f1),f
	movlw	0FFh
	xorwf	(___ftadd@f1+1),f
	movlw	0FFh
	xorwf	(___ftadd@f1+2),f
	line	132
	
l5965:	
	incf	(___ftadd@f1),f
	skipnz
	incf	(___ftadd@f1+1),f
	skipnz
	incf	(___ftadd@f1+2),f
	line	134
	
l5967:	
	btfss	(___ftadd@sign),(6)&7
	goto	u2381
	goto	u2380
u2381:
	goto	l5973
u2380:
	line	136
	
l5969:	
	movlw	0FFh
	xorwf	(___ftadd@f2),f
	movlw	0FFh
	xorwf	(___ftadd@f2+1),f
	movlw	0FFh
	xorwf	(___ftadd@f2+2),f
	line	137
	
l5971:	
	incf	(___ftadd@f2),f
	skipnz
	incf	(___ftadd@f2+1),f
	skipnz
	incf	(___ftadd@f2+2),f
	line	139
	
l5973:	
	clrf	(___ftadd@sign)
	line	140
	
l5975:	
	movf	(___ftadd@f1),w
	addwf	(___ftadd@f2),f
	movf	(___ftadd@f1+1),w
	clrz
	skipnc
	incf	(___ftadd@f1+1),w
	skipnz
	goto	u2391
	addwf	(___ftadd@f2+1),f
u2391:
	movf	(___ftadd@f1+2),w
	clrz
	skipnc
	incf	(___ftadd@f1+2),w
	skipnz
	goto	u2392
	addwf	(___ftadd@f2+2),f
u2392:

	line	141
	
l5977:	
	btfss	(___ftadd@f2+2),(23)&7
	goto	u2401
	goto	u2400
u2401:
	goto	l5985
u2400:
	line	142
	
l5979:	
	movlw	0FFh
	xorwf	(___ftadd@f2),f
	movlw	0FFh
	xorwf	(___ftadd@f2+1),f
	movlw	0FFh
	xorwf	(___ftadd@f2+2),f
	line	143
	
l5981:	
	incf	(___ftadd@f2),f
	skipnz
	incf	(___ftadd@f2+1),f
	skipnz
	incf	(___ftadd@f2+2),f
	line	144
	
l5983:	
	clrf	(___ftadd@sign)
	incf	(___ftadd@sign),f
	line	146
	
l5985:	
	movf	(___ftadd@f2),w
	movwf	(?___ftpack)
	movf	(___ftadd@f2+1),w
	movwf	(?___ftpack+1)
	movf	(___ftadd@f2+2),w
	movwf	(?___ftpack+2)
	movf	(___ftadd@exp1),w
	movwf	0+(?___ftpack)+03h
	movf	(___ftadd@sign),w
	movwf	0+(?___ftpack)+04h
	fcall	___ftpack
	movf	(0+(?___ftpack)),w
	movwf	(?___ftadd)
	movf	(1+(?___ftpack)),w
	movwf	(?___ftadd+1)
	movf	(2+(?___ftpack)),w
	movwf	(?___ftadd+2)
	line	148
	
l3060:	
	return
	opt stack 0
GLOBAL	__end_of___ftadd
	__end_of___ftadd:
;; =============== function ___ftadd ends ============

	signat	___ftadd,8315
	global	_pause
psect	text512,local,class=CODE,delta=2
global __ptext512
__ptext512:

;; *************** function _pause *****************
;; Defined at:
;;		line 75 in file "C:\Users\Varush\Documents\Microcontroladores\Lenguaje C\ADC_en_LCD.c"
;; Parameters:    Size  Location     Type
;;  usvalue         2    0[COMMON] unsigned short 
;; Auto vars:     Size  Location     Type
;;  x               2    2[COMMON] unsigned short 
;; Return value:  Size  Location     Type
;;		None               void
;; Registers used:
;;		wreg, status,2, status,0, pclath, cstack
;; Tracked objects:
;;		On entry : 0/0
;;		On exit  : 0/0
;;		Unchanged: FFF9F/0
;; Data sizes:     COMMON   BANK0   BANK1   BANK3   BANK2
;;      Params:         2       0       0       0       0
;;      Locals:         2       0       0       0       0
;;      Temps:          0       0       0       0       0
;;      Totals:         4       0       0       0       0
;;Total ram usage:        4 bytes
;; Hardware stack levels used:    1
;; Hardware stack levels required when called:    1
;; This function calls:
;;		_msecbase
;; This function is called by:
;;		_main
;;		_lcd_write
;;		_lcd_clear
;;		_lcd_init
;; This function uses a non-reentrant model
;;
psect	text512
	file	"C:\Users\Varush\Documents\Microcontroladores\Lenguaje C\ADC_en_LCD.c"
	line	75
	global	__size_of_pause
	__size_of_pause	equ	__end_of_pause-_pause
	
_pause:	
	opt	stack 6
; Regs used in _pause: [wreg+status,2+status,0+pclath+cstack]
	line	77
	
l5903:	
;ADC_en_LCD.c: 76: unsigned short x;
;ADC_en_LCD.c: 77: for (x=0; x<usvalue; x++)
	clrf	(pause@x)
	clrf	(pause@x+1)
	goto	l5909
	line	79
	
l5905:	
;ADC_en_LCD.c: 78: {
;ADC_en_LCD.c: 79: msecbase();
	fcall	_msecbase
	line	77
	
l5907:	
	incf	(pause@x),f
	skipnz
	incf	(pause@x+1),f
	
l5909:	
	movf	(pause@usvalue+1),w
	subwf	(pause@x+1),w
	skipz
	goto	u2205
	movf	(pause@usvalue),w
	subwf	(pause@x),w
u2205:
	skipc
	goto	u2201
	goto	u2200
u2201:
	goto	l5905
u2200:
	line	81
	
l1061:	
	return
	opt stack 0
GLOBAL	__end_of_pause
	__end_of_pause:
;; =============== function _pause ends ============

	signat	_pause,4216
	global	___awmod
psect	text513,local,class=CODE,delta=2
global __ptext513
__ptext513:

;; *************** function ___awmod *****************
;; Defined at:
;;		line 5 in file "C:\Program Files (x86)\HI-TECH Software\PICC\9.82\sources\awmod.c"
;; Parameters:    Size  Location     Type
;;  divisor         2    0[COMMON] int 
;;  dividend        2    2[COMMON] int 
;; Auto vars:     Size  Location     Type
;;  sign            1    5[COMMON] unsigned char 
;;  counter         1    4[COMMON] unsigned char 
;; Return value:  Size  Location     Type
;;                  2    0[COMMON] int 
;; Registers used:
;;		wreg, status,2, status,0
;; Tracked objects:
;;		On entry : 60/0
;;		On exit  : 60/0
;;		Unchanged: FFF9F/0
;; Data sizes:     COMMON   BANK0   BANK1   BANK3   BANK2
;;      Params:         4       0       0       0       0
;;      Locals:         2       0       0       0       0
;;      Temps:          0       0       0       0       0
;;      Totals:         6       0       0       0       0
;;Total ram usage:        6 bytes
;; Hardware stack levels used:    1
;; This function calls:
;;		Nothing
;; This function is called by:
;;		_scale
;; This function uses a non-reentrant model
;;
psect	text513
	file	"C:\Program Files (x86)\HI-TECH Software\PICC\9.82\sources\awmod.c"
	line	5
	global	__size_of___awmod
	__size_of___awmod	equ	__end_of___awmod-___awmod
	
___awmod:	
	opt	stack 5
; Regs used in ___awmod: [wreg+status,2+status,0]
	line	8
	
l5867:	
	clrf	(___awmod@sign)
	line	9
	
l5869:	
	btfss	(___awmod@dividend+1),7
	goto	u2131
	goto	u2130
u2131:
	goto	l5875
u2130:
	line	10
	
l5871:	
	comf	(___awmod@dividend),f
	comf	(___awmod@dividend+1),f
	incf	(___awmod@dividend),f
	skipnz
	incf	(___awmod@dividend+1),f
	line	11
	
l5873:	
	clrf	(___awmod@sign)
	incf	(___awmod@sign),f
	line	13
	
l5875:	
	btfss	(___awmod@divisor+1),7
	goto	u2141
	goto	u2140
u2141:
	goto	l5879
u2140:
	line	14
	
l5877:	
	comf	(___awmod@divisor),f
	comf	(___awmod@divisor+1),f
	incf	(___awmod@divisor),f
	skipnz
	incf	(___awmod@divisor+1),f
	line	15
	
l5879:	
	movf	(___awmod@divisor+1),w
	iorwf	(___awmod@divisor),w
	skipnz
	goto	u2151
	goto	u2150
u2151:
	goto	l5895
u2150:
	line	16
	
l5881:	
	clrf	(___awmod@counter)
	incf	(___awmod@counter),f
	line	17
	goto	l5885
	line	18
	
l5883:	
	clrc
	rlf	(___awmod@divisor),f
	rlf	(___awmod@divisor+1),f
	line	19
	incf	(___awmod@counter),f
	line	17
	
l5885:	
	btfss	(___awmod@divisor+1),(15)&7
	goto	u2161
	goto	u2160
u2161:
	goto	l5883
u2160:
	line	22
	
l5887:	
	movf	(___awmod@divisor+1),w
	subwf	(___awmod@dividend+1),w
	skipz
	goto	u2175
	movf	(___awmod@divisor),w
	subwf	(___awmod@dividend),w
u2175:
	skipc
	goto	u2171
	goto	u2170
u2171:
	goto	l5891
u2170:
	line	23
	
l5889:	
	movf	(___awmod@divisor),w
	subwf	(___awmod@dividend),f
	movf	(___awmod@divisor+1),w
	skipc
	decf	(___awmod@dividend+1),f
	subwf	(___awmod@dividend+1),f
	line	24
	
l5891:	
	clrc
	rrf	(___awmod@divisor+1),f
	rrf	(___awmod@divisor),f
	line	25
	
l5893:	
	decfsz	(___awmod@counter),f
	goto	u2181
	goto	u2180
u2181:
	goto	l5887
u2180:
	line	27
	
l5895:	
	movf	(___awmod@sign),w
	skipz
	goto	u2190
	goto	l5899
u2190:
	line	28
	
l5897:	
	comf	(___awmod@dividend),f
	comf	(___awmod@dividend+1),f
	incf	(___awmod@dividend),f
	skipnz
	incf	(___awmod@dividend+1),f
	line	29
	
l5899:	
	movf	(___awmod@dividend+1),w
	movwf	(?___awmod+1)
	movf	(___awmod@dividend),w
	movwf	(?___awmod)
	line	30
	
l3231:	
	return
	opt stack 0
GLOBAL	__end_of___awmod
	__end_of___awmod:
;; =============== function ___awmod ends ============

	signat	___awmod,8314
	global	___lldiv
psect	text514,local,class=CODE,delta=2
global __ptext514
__ptext514:

;; *************** function ___lldiv *****************
;; Defined at:
;;		line 5 in file "C:\Program Files (x86)\HI-TECH Software\PICC\9.82\sources\lldiv.c"
;; Parameters:    Size  Location     Type
;;  divisor         4    0[COMMON] unsigned long 
;;  dividend        4    4[COMMON] unsigned long 
;; Auto vars:     Size  Location     Type
;;  quotient        4    8[COMMON] unsigned long 
;;  counter         1   12[COMMON] unsigned char 
;; Return value:  Size  Location     Type
;;                  4    0[COMMON] unsigned long 
;; Registers used:
;;		wreg, status,2, status,0
;; Tracked objects:
;;		On entry : 60/20
;;		On exit  : 60/20
;;		Unchanged: FFF9F/0
;; Data sizes:     COMMON   BANK0   BANK1   BANK3   BANK2
;;      Params:         8       0       0       0       0
;;      Locals:         5       0       0       0       0
;;      Temps:          0       0       0       0       0
;;      Totals:        13       0       0       0       0
;;Total ram usage:       13 bytes
;; Hardware stack levels used:    1
;; This function calls:
;;		Nothing
;; This function is called by:
;;		_sprintf
;; This function uses a non-reentrant model
;;
psect	text514
	file	"C:\Program Files (x86)\HI-TECH Software\PICC\9.82\sources\lldiv.c"
	line	5
	global	__size_of___lldiv
	__size_of___lldiv	equ	__end_of___lldiv-___lldiv
	
___lldiv:	
	opt	stack 6
; Regs used in ___lldiv: [wreg+status,2+status,0]
	line	9
	
l5841:	
	clrf	(___lldiv@quotient)
	clrf	(___lldiv@quotient+1)
	clrf	(___lldiv@quotient+2)
	clrf	(___lldiv@quotient+3)
	line	10
	
l5843:	
	movf	(___lldiv@divisor+3),w
	iorwf	(___lldiv@divisor+2),w
	iorwf	(___lldiv@divisor+1),w
	iorwf	(___lldiv@divisor),w
	skipnz
	goto	u2091
	goto	u2090
u2091:
	goto	l5863
u2090:
	line	11
	
l5845:	
	clrf	(___lldiv@counter)
	incf	(___lldiv@counter),f
	line	12
	goto	l5849
	line	13
	
l5847:	
	clrc
	rlf	(___lldiv@divisor),f
	rlf	(___lldiv@divisor+1),f
	rlf	(___lldiv@divisor+2),f
	rlf	(___lldiv@divisor+3),f
	line	14
	incf	(___lldiv@counter),f
	line	12
	
l5849:	
	btfss	(___lldiv@divisor+3),(31)&7
	goto	u2101
	goto	u2100
u2101:
	goto	l5847
u2100:
	line	17
	
l5851:	
	clrc
	rlf	(___lldiv@quotient),f
	rlf	(___lldiv@quotient+1),f
	rlf	(___lldiv@quotient+2),f
	rlf	(___lldiv@quotient+3),f
	line	18
	
l5853:	
	movf	(___lldiv@divisor+3),w
	subwf	(___lldiv@dividend+3),w
	skipz
	goto	u2115
	movf	(___lldiv@divisor+2),w
	subwf	(___lldiv@dividend+2),w
	skipz
	goto	u2115
	movf	(___lldiv@divisor+1),w
	subwf	(___lldiv@dividend+1),w
	skipz
	goto	u2115
	movf	(___lldiv@divisor),w
	subwf	(___lldiv@dividend),w
u2115:
	skipc
	goto	u2111
	goto	u2110
u2111:
	goto	l5859
u2110:
	line	19
	
l5855:	
	movf	(___lldiv@divisor),w
	subwf	(___lldiv@dividend),f
	movf	(___lldiv@divisor+1),w
	skipc
	incfsz	(___lldiv@divisor+1),w
	subwf	(___lldiv@dividend+1),f
	movf	(___lldiv@divisor+2),w
	skipc
	incfsz	(___lldiv@divisor+2),w
	subwf	(___lldiv@dividend+2),f
	movf	(___lldiv@divisor+3),w
	skipc
	incfsz	(___lldiv@divisor+3),w
	subwf	(___lldiv@dividend+3),f
	line	20
	
l5857:	
	bsf	(___lldiv@quotient)+(0/8),(0)&7
	line	22
	
l5859:	
	clrc
	rrf	(___lldiv@divisor+3),f
	rrf	(___lldiv@divisor+2),f
	rrf	(___lldiv@divisor+1),f
	rrf	(___lldiv@divisor),f
	line	23
	
l5861:	
	decfsz	(___lldiv@counter),f
	goto	u2121
	goto	u2120
u2121:
	goto	l5851
u2120:
	line	25
	
l5863:	
	movf	(___lldiv@quotient+3),w
	movwf	(?___lldiv+3)
	movf	(___lldiv@quotient+2),w
	movwf	(?___lldiv+2)
	movf	(___lldiv@quotient+1),w
	movwf	(?___lldiv+1)
	movf	(___lldiv@quotient),w
	movwf	(?___lldiv)

	line	26
	
l3192:	
	return
	opt stack 0
GLOBAL	__end_of___lldiv
	__end_of___lldiv:
;; =============== function ___lldiv ends ============

	signat	___lldiv,8316
	global	___ftge
psect	text515,local,class=CODE,delta=2
global __ptext515
__ptext515:

;; *************** function ___ftge *****************
;; Defined at:
;;		line 5 in file "C:\Program Files (x86)\HI-TECH Software\PICC\9.82\sources\ftge.c"
;; Parameters:    Size  Location     Type
;;  ff1             3    0[COMMON] float 
;;  ff2             3    3[COMMON] float 
;; Auto vars:     Size  Location     Type
;;		None
;; Return value:  Size  Location     Type
;;		None               void
;; Registers used:
;;		wreg, status,2, status,0
;; Tracked objects:
;;		On entry : 60/20
;;		On exit  : 60/20
;;		Unchanged: FFF9F/0
;; Data sizes:     COMMON   BANK0   BANK1   BANK3   BANK2
;;      Params:         6       0       0       0       0
;;      Locals:         0       0       0       0       0
;;      Temps:          0       0       0       0       0
;;      Totals:         6       0       0       0       0
;;Total ram usage:        6 bytes
;; Hardware stack levels used:    1
;; This function calls:
;;		Nothing
;; This function is called by:
;;		_sprintf
;; This function uses a non-reentrant model
;;
psect	text515
	file	"C:\Program Files (x86)\HI-TECH Software\PICC\9.82\sources\ftge.c"
	line	5
	global	__size_of___ftge
	__size_of___ftge	equ	__end_of___ftge-___ftge
	
___ftge:	
	opt	stack 6
; Regs used in ___ftge: [wreg+status,2+status,0]
	line	6
	
l5821:	
	btfss	(___ftge@ff1+2),(23)&7
	goto	u2061
	goto	u2060
u2061:
	goto	l5825
u2060:
	line	7
	
l5823:	
	movf	(___ftge@ff1),w
	sublw	0
	movwf	(___ftge@ff1)
	movf	(___ftge@ff1+1),w
	skipc
	incfsz	(___ftge@ff1+1),w
	sublw	0
	movwf	1+(___ftge@ff1)
	movf	(___ftge@ff1+2),w
	skipc
	incfsz	(___ftge@ff1+2),w
	sublw	080h
	movwf	2+(___ftge@ff1)
	line	8
	
l5825:	
	btfss	(___ftge@ff2+2),(23)&7
	goto	u2071
	goto	u2070
u2071:
	goto	l5829
u2070:
	line	9
	
l5827:	
	movf	(___ftge@ff2),w
	sublw	0
	movwf	(___ftge@ff2)
	movf	(___ftge@ff2+1),w
	skipc
	incfsz	(___ftge@ff2+1),w
	sublw	0
	movwf	1+(___ftge@ff2)
	movf	(___ftge@ff2+2),w
	skipc
	incfsz	(___ftge@ff2+2),w
	sublw	080h
	movwf	2+(___ftge@ff2)
	line	10
	
l5829:	
	movlw	080h
	xorwf	(___ftge@ff1+2),f
	line	11
	
l5831:	
	movlw	080h
	xorwf	(___ftge@ff2+2),f
	line	12
	
l5833:	
	movf	(___ftge@ff2+2),w
	subwf	(___ftge@ff1+2),w
	skipz
	goto	u2085
	movf	(___ftge@ff2+1),w
	subwf	(___ftge@ff1+1),w
	skipz
	goto	u2085
	movf	(___ftge@ff2),w
	subwf	(___ftge@ff1),w
u2085:
	skipnc
	goto	u2081
	goto	u2080
u2081:
	goto	l5837
u2080:
	
l5835:	
	clrc
	
	goto	l3182
	
l5837:	
	setc
	
	line	13
	
l3182:	
	return
	opt stack 0
GLOBAL	__end_of___ftge
	__end_of___ftge:
;; =============== function ___ftge ends ============

	signat	___ftge,8312
	global	___ftneg
psect	text516,local,class=CODE,delta=2
global __ptext516
__ptext516:

;; *************** function ___ftneg *****************
;; Defined at:
;;		line 16 in file "C:\Program Files (x86)\HI-TECH Software\PICC\9.82\sources\ftneg.c"
;; Parameters:    Size  Location     Type
;;  f1              3    0[COMMON] float 
;; Auto vars:     Size  Location     Type
;;		None
;; Return value:  Size  Location     Type
;;                  3    0[COMMON] float 
;; Registers used:
;;		wreg
;; Tracked objects:
;;		On entry : 160/20
;;		On exit  : 160/20
;;		Unchanged: FFE9F/0
;; Data sizes:     COMMON   BANK0   BANK1   BANK3   BANK2
;;      Params:         3       0       0       0       0
;;      Locals:         0       0       0       0       0
;;      Temps:          0       0       0       0       0
;;      Totals:         3       0       0       0       0
;;Total ram usage:        3 bytes
;; Hardware stack levels used:    1
;; This function calls:
;;		Nothing
;; This function is called by:
;;		_sprintf
;; This function uses a non-reentrant model
;;
psect	text516
	file	"C:\Program Files (x86)\HI-TECH Software\PICC\9.82\sources\ftneg.c"
	line	16
	global	__size_of___ftneg
	__size_of___ftneg	equ	__end_of___ftneg-___ftneg
	
___ftneg:	
	opt	stack 6
; Regs used in ___ftneg: [wreg]
	line	17
	
l5813:	
	movf	(___ftneg@f1+2),w
	iorwf	(___ftneg@f1+1),w
	iorwf	(___ftneg@f1),w
	skipnz
	goto	u2051
	goto	u2050
u2051:
	goto	l5817
u2050:
	line	18
	
l5815:	
	movlw	080h
	xorwf	(___ftneg@f1+2),f
	line	19
	
l5817:	
	line	20
	
l3177:	
	return
	opt stack 0
GLOBAL	__end_of___ftneg
	__end_of___ftneg:
;; =============== function ___ftneg ends ============

	signat	___ftneg,4219
	global	___llmod
psect	text517,local,class=CODE,delta=2
global __ptext517
__ptext517:

;; *************** function ___llmod *****************
;; Defined at:
;;		line 5 in file "C:\Program Files (x86)\HI-TECH Software\PICC\9.82\sources\llmod.c"
;; Parameters:    Size  Location     Type
;;  divisor         4    0[BANK0 ] unsigned long 
;;  dividend        4    4[BANK0 ] unsigned long 
;; Auto vars:     Size  Location     Type
;;  counter         1   13[COMMON] unsigned char 
;; Return value:  Size  Location     Type
;;                  4    0[BANK0 ] unsigned long 
;; Registers used:
;;		wreg, status,2, status,0
;; Tracked objects:
;;		On entry : 60/0
;;		On exit  : 60/0
;;		Unchanged: FFF9F/0
;; Data sizes:     COMMON   BANK0   BANK1   BANK3   BANK2
;;      Params:         0       8       0       0       0
;;      Locals:         1       0       0       0       0
;;      Temps:          0       0       0       0       0
;;      Totals:         1       8       0       0       0
;;Total ram usage:        9 bytes
;; Hardware stack levels used:    1
;; This function calls:
;;		Nothing
;; This function is called by:
;;		_sprintf
;; This function uses a non-reentrant model
;;
psect	text517
	file	"C:\Program Files (x86)\HI-TECH Software\PICC\9.82\sources\llmod.c"
	line	5
	global	__size_of___llmod
	__size_of___llmod	equ	__end_of___llmod-___llmod
	
___llmod:	
	opt	stack 6
; Regs used in ___llmod: [wreg+status,2+status,0]
	line	8
	
l5793:	
	movf	(___llmod@divisor+3),w
	iorwf	(___llmod@divisor+2),w
	iorwf	(___llmod@divisor+1),w
	iorwf	(___llmod@divisor),w
	skipnz
	goto	u2011
	goto	u2010
u2011:
	goto	l5809
u2010:
	line	9
	
l5795:	
	clrf	(___llmod@counter)
	incf	(___llmod@counter),f
	line	10
	goto	l5799
	line	11
	
l5797:	
	clrc
	rlf	(___llmod@divisor),f
	rlf	(___llmod@divisor+1),f
	rlf	(___llmod@divisor+2),f
	rlf	(___llmod@divisor+3),f
	line	12
	incf	(___llmod@counter),f
	line	10
	
l5799:	
	btfss	(___llmod@divisor+3),(31)&7
	goto	u2021
	goto	u2020
u2021:
	goto	l5797
u2020:
	line	15
	
l5801:	
	movf	(___llmod@divisor+3),w
	subwf	(___llmod@dividend+3),w
	skipz
	goto	u2035
	movf	(___llmod@divisor+2),w
	subwf	(___llmod@dividend+2),w
	skipz
	goto	u2035
	movf	(___llmod@divisor+1),w
	subwf	(___llmod@dividend+1),w
	skipz
	goto	u2035
	movf	(___llmod@divisor),w
	subwf	(___llmod@dividend),w
u2035:
	skipc
	goto	u2031
	goto	u2030
u2031:
	goto	l5805
u2030:
	line	16
	
l5803:	
	movf	(___llmod@divisor),w
	subwf	(___llmod@dividend),f
	movf	(___llmod@divisor+1),w
	skipc
	incfsz	(___llmod@divisor+1),w
	subwf	(___llmod@dividend+1),f
	movf	(___llmod@divisor+2),w
	skipc
	incfsz	(___llmod@divisor+2),w
	subwf	(___llmod@dividend+2),f
	movf	(___llmod@divisor+3),w
	skipc
	incfsz	(___llmod@divisor+3),w
	subwf	(___llmod@dividend+3),f
	line	17
	
l5805:	
	clrc
	rrf	(___llmod@divisor+3),f
	rrf	(___llmod@divisor+2),f
	rrf	(___llmod@divisor+1),f
	rrf	(___llmod@divisor),f
	line	18
	
l5807:	
	decfsz	(___llmod@counter),f
	goto	u2041
	goto	u2040
u2041:
	goto	l5801
u2040:
	line	20
	
l5809:	
	movf	(___llmod@dividend+3),w
	movwf	(?___llmod+3)
	movf	(___llmod@dividend+2),w
	movwf	(?___llmod+2)
	movf	(___llmod@dividend+1),w
	movwf	(?___llmod+1)
	movf	(___llmod@dividend),w
	movwf	(?___llmod)

	line	21
	
l3173:	
	return
	opt stack 0
GLOBAL	__end_of___llmod
	__end_of___llmod:
;; =============== function ___llmod ends ============

	signat	___llmod,8316
	global	___awdiv
psect	text518,local,class=CODE,delta=2
global __ptext518
__ptext518:

;; *************** function ___awdiv *****************
;; Defined at:
;;		line 5 in file "C:\Program Files (x86)\HI-TECH Software\PICC\9.82\sources\awdiv.c"
;; Parameters:    Size  Location     Type
;;  divisor         2    6[COMMON] int 
;;  dividend        2    8[COMMON] int 
;; Auto vars:     Size  Location     Type
;;  quotient        2   12[COMMON] int 
;;  sign            1   11[COMMON] unsigned char 
;;  counter         1   10[COMMON] unsigned char 
;; Return value:  Size  Location     Type
;;                  2    6[COMMON] int 
;; Registers used:
;;		wreg, status,2, status,0
;; Tracked objects:
;;		On entry : 40/20
;;		On exit  : 40/20
;;		Unchanged: FFFBF/0
;; Data sizes:     COMMON   BANK0   BANK1   BANK3   BANK2
;;      Params:         4       0       0       0       0
;;      Locals:         4       0       0       0       0
;;      Temps:          0       0       0       0       0
;;      Totals:         8       0       0       0       0
;;Total ram usage:        8 bytes
;; Hardware stack levels used:    1
;; This function calls:
;;		Nothing
;; This function is called by:
;;		_scale
;;		_sprintf
;; This function uses a non-reentrant model
;;
psect	text518
	file	"C:\Program Files (x86)\HI-TECH Software\PICC\9.82\sources\awdiv.c"
	line	5
	global	__size_of___awdiv
	__size_of___awdiv	equ	__end_of___awdiv-___awdiv
	
___awdiv:	
	opt	stack 5
; Regs used in ___awdiv: [wreg+status,2+status,0]
	line	9
	
l5749:	
	clrf	(___awdiv@sign)
	line	10
	
l5751:	
	btfss	(___awdiv@divisor+1),7
	goto	u1941
	goto	u1940
u1941:
	goto	l5757
u1940:
	line	11
	
l5753:	
	comf	(___awdiv@divisor),f
	comf	(___awdiv@divisor+1),f
	incf	(___awdiv@divisor),f
	skipnz
	incf	(___awdiv@divisor+1),f
	line	12
	
l5755:	
	clrf	(___awdiv@sign)
	incf	(___awdiv@sign),f
	line	14
	
l5757:	
	btfss	(___awdiv@dividend+1),7
	goto	u1951
	goto	u1950
u1951:
	goto	l5763
u1950:
	line	15
	
l5759:	
	comf	(___awdiv@dividend),f
	comf	(___awdiv@dividend+1),f
	incf	(___awdiv@dividend),f
	skipnz
	incf	(___awdiv@dividend+1),f
	line	16
	
l5761:	
	movlw	(01h)
	xorwf	(___awdiv@sign),f
	line	18
	
l5763:	
	clrf	(___awdiv@quotient)
	clrf	(___awdiv@quotient+1)
	line	19
	
l5765:	
	movf	(___awdiv@divisor+1),w
	iorwf	(___awdiv@divisor),w
	skipnz
	goto	u1961
	goto	u1960
u1961:
	goto	l5785
u1960:
	line	20
	
l5767:	
	clrf	(___awdiv@counter)
	incf	(___awdiv@counter),f
	line	21
	goto	l5771
	line	22
	
l5769:	
	clrc
	rlf	(___awdiv@divisor),f
	rlf	(___awdiv@divisor+1),f
	line	23
	incf	(___awdiv@counter),f
	line	21
	
l5771:	
	btfss	(___awdiv@divisor+1),(15)&7
	goto	u1971
	goto	u1970
u1971:
	goto	l5769
u1970:
	line	26
	
l5773:	
	clrc
	rlf	(___awdiv@quotient),f
	rlf	(___awdiv@quotient+1),f
	line	27
	
l5775:	
	movf	(___awdiv@divisor+1),w
	subwf	(___awdiv@dividend+1),w
	skipz
	goto	u1985
	movf	(___awdiv@divisor),w
	subwf	(___awdiv@dividend),w
u1985:
	skipc
	goto	u1981
	goto	u1980
u1981:
	goto	l5781
u1980:
	line	28
	
l5777:	
	movf	(___awdiv@divisor),w
	subwf	(___awdiv@dividend),f
	movf	(___awdiv@divisor+1),w
	skipc
	decf	(___awdiv@dividend+1),f
	subwf	(___awdiv@dividend+1),f
	line	29
	
l5779:	
	bsf	(___awdiv@quotient)+(0/8),(0)&7
	line	31
	
l5781:	
	clrc
	rrf	(___awdiv@divisor+1),f
	rrf	(___awdiv@divisor),f
	line	32
	
l5783:	
	decfsz	(___awdiv@counter),f
	goto	u1991
	goto	u1990
u1991:
	goto	l5773
u1990:
	line	34
	
l5785:	
	movf	(___awdiv@sign),w
	skipz
	goto	u2000
	goto	l5789
u2000:
	line	35
	
l5787:	
	comf	(___awdiv@quotient),f
	comf	(___awdiv@quotient+1),f
	incf	(___awdiv@quotient),f
	skipnz
	incf	(___awdiv@quotient+1),f
	line	36
	
l5789:	
	movf	(___awdiv@quotient+1),w
	movwf	(?___awdiv+1)
	movf	(___awdiv@quotient),w
	movwf	(?___awdiv)
	line	37
	
l3163:	
	return
	opt stack 0
GLOBAL	__end_of___awdiv
	__end_of___awdiv:
;; =============== function ___awdiv ends ============

	signat	___awdiv,8314
	global	___fttol
psect	text519,local,class=CODE,delta=2
global __ptext519
__ptext519:

;; *************** function ___fttol *****************
;; Defined at:
;;		line 45 in file "C:\Program Files (x86)\HI-TECH Software\PICC\9.82\sources\fttol.c"
;; Parameters:    Size  Location     Type
;;  f1              3    0[BANK0 ] float 
;; Auto vars:     Size  Location     Type
;;  lval            4    8[BANK0 ] unsigned long 
;;  exp1            1   12[BANK0 ] unsigned char 
;;  sign1           1    7[BANK0 ] unsigned char 
;; Return value:  Size  Location     Type
;;                  4    0[BANK0 ] long 
;; Registers used:
;;		wreg, status,2, status,0
;; Tracked objects:
;;		On entry : 60/0
;;		On exit  : 60/0
;;		Unchanged: FFF9F/0
;; Data sizes:     COMMON   BANK0   BANK1   BANK3   BANK2
;;      Params:         0       4       0       0       0
;;      Locals:         0       6       0       0       0
;;      Temps:          0       3       0       0       0
;;      Totals:         0      13       0       0       0
;;Total ram usage:       13 bytes
;; Hardware stack levels used:    1
;; This function calls:
;;		Nothing
;; This function is called by:
;;		_sprintf
;; This function uses a non-reentrant model
;;
psect	text519
	file	"C:\Program Files (x86)\HI-TECH Software\PICC\9.82\sources\fttol.c"
	line	45
	global	__size_of___fttol
	__size_of___fttol	equ	__end_of___fttol-___fttol
	
___fttol:	
	opt	stack 6
; Regs used in ___fttol: [wreg+status,2+status,0]
	line	49
	
l5711:	
	movf	(___fttol@f1),w
	movwf	((??___fttol+0)+0)
	movf	(___fttol@f1+1),w
	movwf	((??___fttol+0)+0+1)
	movf	(___fttol@f1+2),w
	movwf	((??___fttol+0)+0+2)
	clrc
	rlf	(??___fttol+0)+1,w
	rlf	(??___fttol+0)+2,w
	movwf	(___fttol@exp1)
	movf	((___fttol@exp1)),f
	skipz
	goto	u1861
	goto	u1860
u1861:
	goto	l5715
u1860:
	line	50
	
l5713:	
	clrf	(?___fttol)
	clrf	(?___fttol+1)
	clrf	(?___fttol+2)
	clrf	(?___fttol+3)
	goto	l3123
	line	51
	
l5715:	
	movf	(___fttol@f1),w
	movwf	((??___fttol+0)+0)
	movf	(___fttol@f1+1),w
	movwf	((??___fttol+0)+0+1)
	movf	(___fttol@f1+2),w
	movwf	((??___fttol+0)+0+2)
	movlw	017h
u1875:
	clrc
	rrf	(??___fttol+0)+2,f
	rrf	(??___fttol+0)+1,f
	rrf	(??___fttol+0)+0,f
u1870:
	addlw	-1
	skipz
	goto	u1875
	movf	0+(??___fttol+0)+0,w
	movwf	(___fttol@sign1)
	line	52
	
l5717:	
	bsf	(___fttol@f1)+(15/8),(15)&7
	line	53
	
l5719:	
	movlw	0FFh
	andwf	(___fttol@f1),f
	movlw	0FFh
	andwf	(___fttol@f1+1),f
	movlw	0
	andwf	(___fttol@f1+2),f
	line	54
	
l5721:	
	movf	(___fttol@f1),w
	movwf	(___fttol@lval)
	movf	(___fttol@f1+1),w
	movwf	((___fttol@lval))+1
	movf	(___fttol@f1+2),w
	movwf	((___fttol@lval))+2
	clrf	((___fttol@lval))+3
	line	55
	
l5723:	
	movlw	low(08Eh)
	subwf	(___fttol@exp1),f
	line	56
	
l5725:	
	btfss	(___fttol@exp1),7
	goto	u1881
	goto	u1880
u1881:
	goto	l5735
u1880:
	line	57
	
l5727:	
	movf	(___fttol@exp1),w
	xorlw	80h
	addlw	-((-15)^80h)
	skipnc
	goto	u1891
	goto	u1890
u1891:
	goto	l5731
u1890:
	goto	l5713
	line	60
	
l5731:	
	clrc
	rrf	(___fttol@lval+3),f
	rrf	(___fttol@lval+2),f
	rrf	(___fttol@lval+1),f
	rrf	(___fttol@lval),f
	line	61
	
l5733:	
	incfsz	(___fttol@exp1),f
	goto	u1901
	goto	u1900
u1901:
	goto	l5731
u1900:
	goto	l5741
	line	63
	
l5735:	
	movlw	(018h)
	subwf	(___fttol@exp1),w
	skipc
	goto	u1911
	goto	u1910
u1911:
	goto	l3130
u1910:
	goto	l5713
	line	66
	
l5739:	
	clrc
	rlf	(___fttol@lval),f
	rlf	(___fttol@lval+1),f
	rlf	(___fttol@lval+2),f
	rlf	(___fttol@lval+3),f
	line	67
	decf	(___fttol@exp1),f
	line	68
	
l3130:	
	line	65
	movf	(___fttol@exp1),f
	skipz
	goto	u1921
	goto	u1920
u1921:
	goto	l5739
u1920:
	line	70
	
l5741:	
	movf	(___fttol@sign1),w
	skipz
	goto	u1930
	goto	l5745
u1930:
	line	71
	
l5743:	
	comf	(___fttol@lval),f
	comf	(___fttol@lval+1),f
	comf	(___fttol@lval+2),f
	comf	(___fttol@lval+3),f
	incf	(___fttol@lval),f
	skipnz
	incf	(___fttol@lval+1),f
	skipnz
	incf	(___fttol@lval+2),f
	skipnz
	incf	(___fttol@lval+3),f
	line	72
	
l5745:	
	movf	(___fttol@lval+3),w
	movwf	(?___fttol+3)
	movf	(___fttol@lval+2),w
	movwf	(?___fttol+2)
	movf	(___fttol@lval+1),w
	movwf	(?___fttol+1)
	movf	(___fttol@lval),w
	movwf	(?___fttol)

	line	73
	
l3123:	
	return
	opt stack 0
GLOBAL	__end_of___fttol
	__end_of___fttol:
;; =============== function ___fttol ends ============

	signat	___fttol,4220
	global	___ftpack
psect	text520,local,class=CODE,delta=2
global __ptext520
__ptext520:

;; *************** function ___ftpack *****************
;; Defined at:
;;		line 63 in file "C:\Program Files (x86)\HI-TECH Software\PICC\9.82\sources\float.c"
;; Parameters:    Size  Location     Type
;;  arg             3    0[COMMON] unsigned um
;;  exp             1    3[COMMON] unsigned char 
;;  sign            1    4[COMMON] unsigned char 
;; Auto vars:     Size  Location     Type
;;		None
;; Return value:  Size  Location     Type
;;                  3    0[COMMON] float 
;; Registers used:
;;		wreg, status,2, status,0
;; Tracked objects:
;;		On entry : 40/20
;;		On exit  : 40/20
;;		Unchanged: FFFBF/0
;; Data sizes:     COMMON   BANK0   BANK1   BANK3   BANK2
;;      Params:         5       0       0       0       0
;;      Locals:         0       0       0       0       0
;;      Temps:          3       0       0       0       0
;;      Totals:         8       0       0       0       0
;;Total ram usage:        8 bytes
;; Hardware stack levels used:    1
;; This function calls:
;;		Nothing
;; This function is called by:
;;		___ftadd
;;		___ftmul
;;		___lwtoft
;;		___lltoft
;; This function uses a non-reentrant model
;;
psect	text520
	file	"C:\Program Files (x86)\HI-TECH Software\PICC\9.82\sources\float.c"
	line	63
	global	__size_of___ftpack
	__size_of___ftpack	equ	__end_of___ftpack-___ftpack
	
___ftpack:	
	opt	stack 4
; Regs used in ___ftpack: [wreg+status,2+status,0]
	line	64
	
l5683:	
	movf	(___ftpack@exp),w
	skipz
	goto	u1790
	goto	l5687
u1790:
	
l5685:	
	movf	(___ftpack@arg+2),w
	iorwf	(___ftpack@arg+1),w
	iorwf	(___ftpack@arg),w
	skipz
	goto	u1801
	goto	u1800
u1801:
	goto	l5693
u1800:
	line	65
	
l5687:	
	clrf	(?___ftpack)
	clrf	(?___ftpack+1)
	clrf	(?___ftpack+2)
	goto	l3382
	line	67
	
l5691:	
	incf	(___ftpack@exp),f
	line	68
	clrc
	rrf	(___ftpack@arg+2),f
	rrf	(___ftpack@arg+1),f
	rrf	(___ftpack@arg),f
	line	66
	
l5693:	
	movlw	low highword(0FE0000h)
	andwf	(___ftpack@arg+2),w
	btfss	status,2
	goto	u1811
	goto	u1810
u1811:
	goto	l5691
u1810:
	goto	l5697
	line	71
	
l5695:	
	incf	(___ftpack@exp),f
	line	72
	incf	(___ftpack@arg),f
	skipnz
	incf	(___ftpack@arg+1),f
	skipnz
	incf	(___ftpack@arg+2),f
	line	73
	clrc
	rrf	(___ftpack@arg+2),f
	rrf	(___ftpack@arg+1),f
	rrf	(___ftpack@arg),f
	line	70
	
l5697:	
	movlw	low highword(0FF0000h)
	andwf	(___ftpack@arg+2),w
	btfss	status,2
	goto	u1821
	goto	u1820
u1821:
	goto	l5695
u1820:
	goto	l5701
	line	76
	
l5699:	
	decf	(___ftpack@exp),f
	line	77
	clrc
	rlf	(___ftpack@arg),f
	rlf	(___ftpack@arg+1),f
	rlf	(___ftpack@arg+2),f
	line	75
	
l5701:	
	btfss	(___ftpack@arg+1),(15)&7
	goto	u1831
	goto	u1830
u1831:
	goto	l5699
u1830:
	
l3391:	
	line	79
	btfsc	(___ftpack@exp),(0)&7
	goto	u1841
	goto	u1840
u1841:
	goto	l3392
u1840:
	line	80
	
l5703:	
	bcf	(___ftpack@arg)+(15/8),(15)&7
	
l3392:	
	line	81
	clrc
	rrf	(___ftpack@exp),f
	line	82
	
l5705:	
	movf	(___ftpack@exp),w
	movwf	((??___ftpack+0)+0+2)
	clrf	((??___ftpack+0)+0+1)
	clrf	((??___ftpack+0)+0+0)
	movf	0+(??___ftpack+0)+0,w
	iorwf	(___ftpack@arg),f
	movf	1+(??___ftpack+0)+0,w
	iorwf	(___ftpack@arg+1),f
	movf	2+(??___ftpack+0)+0,w
	iorwf	(___ftpack@arg+2),f
	line	83
	
l5707:	
	movf	(___ftpack@sign),w
	skipz
	goto	u1850
	goto	l3393
u1850:
	line	84
	
l5709:	
	bsf	(___ftpack@arg)+(23/8),(23)&7
	
l3393:	
	line	85
	line	86
	
l3382:	
	return
	opt stack 0
GLOBAL	__end_of___ftpack
	__end_of___ftpack:
;; =============== function ___ftpack ends ============

	signat	___ftpack,12411
	global	___lbmod
psect	text521,local,class=CODE,delta=2
global __ptext521
__ptext521:

;; *************** function ___lbmod *****************
;; Defined at:
;;		line 5 in file "C:\Program Files (x86)\HI-TECH Software\PICC\9.82\sources\lbmod.c"
;; Parameters:    Size  Location     Type
;;  dividend        1    wreg     unsigned char 
;;  divisor         1    0[COMMON] unsigned char 
;; Auto vars:     Size  Location     Type
;;  dividend        1    2[COMMON] unsigned char 
;;  rem             1    4[COMMON] unsigned char 
;;  counter         1    3[COMMON] unsigned char 
;; Return value:  Size  Location     Type
;;                  1    wreg      unsigned char 
;; Registers used:
;;		wreg, status,2, status,0
;; Tracked objects:
;;		On entry : 60/0
;;		On exit  : 60/0
;;		Unchanged: FFF9F/0
;; Data sizes:     COMMON   BANK0   BANK1   BANK3   BANK2
;;      Params:         1       0       0       0       0
;;      Locals:         3       0       0       0       0
;;      Temps:          1       0       0       0       0
;;      Totals:         5       0       0       0       0
;;Total ram usage:        5 bytes
;; Hardware stack levels used:    1
;; This function calls:
;;		Nothing
;; This function is called by:
;;		_fround
;; This function uses a non-reentrant model
;;
psect	text521
	file	"C:\Program Files (x86)\HI-TECH Software\PICC\9.82\sources\lbmod.c"
	line	5
	global	__size_of___lbmod
	__size_of___lbmod	equ	__end_of___lbmod-___lbmod
	
___lbmod:	
	opt	stack 5
; Regs used in ___lbmod: [wreg+status,2+status,0]
;___lbmod@dividend stored from wreg
	line	9
	movwf	(___lbmod@dividend)
	
l5665:	
	movlw	(08h)
	movwf	(___lbmod@counter)
	line	10
	
l5667:	
	clrf	(___lbmod@rem)
	line	12
	
l5669:	
	movf	(___lbmod@dividend),w
	movwf	(??___lbmod+0)+0
	movlw	07h
u1765:
	clrc
	rrf	(??___lbmod+0)+0,f
	addlw	-1
	skipz
	goto	u1765
	clrc
	rlf	(___lbmod@rem),w
	iorwf	0+(??___lbmod+0)+0,w
	movwf	(___lbmod@rem)
	line	13
	
l5671:	
	clrc
	rlf	(___lbmod@dividend),f
	line	14
	
l5673:	
	movf	(___lbmod@divisor),w
	subwf	(___lbmod@rem),w
	skipc
	goto	u1771
	goto	u1770
u1771:
	goto	l5677
u1770:
	line	15
	
l5675:	
	movf	(___lbmod@divisor),w
	subwf	(___lbmod@rem),f
	line	16
	
l5677:	
	decfsz	(___lbmod@counter),f
	goto	u1781
	goto	u1780
u1781:
	goto	l5669
u1780:
	line	17
	
l5679:	
	movf	(___lbmod@rem),w
	line	18
	
l3052:	
	return
	opt stack 0
GLOBAL	__end_of___lbmod
	__end_of___lbmod:
;; =============== function ___lbmod ends ============

	signat	___lbmod,8313
	global	___lbdiv
psect	text522,local,class=CODE,delta=2
global __ptext522
__ptext522:

;; *************** function ___lbdiv *****************
;; Defined at:
;;		line 5 in file "C:\Program Files (x86)\HI-TECH Software\PICC\9.82\sources\lbdiv.c"
;; Parameters:    Size  Location     Type
;;  dividend        1    wreg     unsigned char 
;;  divisor         1    5[COMMON] unsigned char 
;; Auto vars:     Size  Location     Type
;;  dividend        1    6[COMMON] unsigned char 
;;  quotient        1    8[COMMON] unsigned char 
;;  counter         1    7[COMMON] unsigned char 
;; Return value:  Size  Location     Type
;;                  1    wreg      unsigned char 
;; Registers used:
;;		wreg, status,2, status,0
;; Tracked objects:
;;		On entry : 60/0
;;		On exit  : 60/0
;;		Unchanged: FFF9F/0
;; Data sizes:     COMMON   BANK0   BANK1   BANK3   BANK2
;;      Params:         1       0       0       0       0
;;      Locals:         3       0       0       0       0
;;      Temps:          0       0       0       0       0
;;      Totals:         4       0       0       0       0
;;Total ram usage:        4 bytes
;; Hardware stack levels used:    1
;; This function calls:
;;		Nothing
;; This function is called by:
;;		_fround
;; This function uses a non-reentrant model
;;
psect	text522
	file	"C:\Program Files (x86)\HI-TECH Software\PICC\9.82\sources\lbdiv.c"
	line	5
	global	__size_of___lbdiv
	__size_of___lbdiv	equ	__end_of___lbdiv-___lbdiv
	
___lbdiv:	
	opt	stack 5
; Regs used in ___lbdiv: [wreg+status,2+status,0]
;___lbdiv@dividend stored from wreg
	line	9
	movwf	(___lbdiv@dividend)
	
l5641:	
	clrf	(___lbdiv@quotient)
	line	10
	
l5643:	
	movf	(___lbdiv@divisor),w
	skipz
	goto	u1720
	goto	l5661
u1720:
	line	11
	
l5645:	
	clrf	(___lbdiv@counter)
	incf	(___lbdiv@counter),f
	line	12
	goto	l5649
	
l3041:	
	line	13
	clrc
	rlf	(___lbdiv@divisor),f
	line	14
	
l5647:	
	incf	(___lbdiv@counter),f
	line	12
	
l5649:	
	btfss	(___lbdiv@divisor),(7)&7
	goto	u1731
	goto	u1730
u1731:
	goto	l3041
u1730:
	line	16
	
l3043:	
	line	17
	clrc
	rlf	(___lbdiv@quotient),f
	line	18
	
l5651:	
	movf	(___lbdiv@divisor),w
	subwf	(___lbdiv@dividend),w
	skipc
	goto	u1741
	goto	u1740
u1741:
	goto	l5657
u1740:
	line	19
	
l5653:	
	movf	(___lbdiv@divisor),w
	subwf	(___lbdiv@dividend),f
	line	20
	
l5655:	
	bsf	(___lbdiv@quotient)+(0/8),(0)&7
	line	22
	
l5657:	
	clrc
	rrf	(___lbdiv@divisor),f
	line	23
	
l5659:	
	decfsz	(___lbdiv@counter),f
	goto	u1751
	goto	u1750
u1751:
	goto	l3043
u1750:
	line	25
	
l5661:	
	movf	(___lbdiv@quotient),w
	line	26
	
l3046:	
	return
	opt stack 0
GLOBAL	__end_of___lbdiv
	__end_of___lbdiv:
;; =============== function ___lbdiv ends ============

	signat	___lbdiv,8313
	global	___wmul
psect	text523,local,class=CODE,delta=2
global __ptext523
__ptext523:

;; *************** function ___wmul *****************
;; Defined at:
;;		line 3 in file "C:\Program Files (x86)\HI-TECH Software\PICC\9.82\sources\wmul.c"
;; Parameters:    Size  Location     Type
;;  multiplier      2    0[COMMON] unsigned int 
;;  multiplicand    2    2[COMMON] unsigned int 
;; Auto vars:     Size  Location     Type
;;  product         2    4[COMMON] unsigned int 
;; Return value:  Size  Location     Type
;;                  2    0[COMMON] unsigned int 
;; Registers used:
;;		wreg, status,2, status,0
;; Tracked objects:
;;		On entry : 60/20
;;		On exit  : 60/20
;;		Unchanged: FFF9F/0
;; Data sizes:     COMMON   BANK0   BANK1   BANK3   BANK2
;;      Params:         4       0       0       0       0
;;      Locals:         2       0       0       0       0
;;      Temps:          0       0       0       0       0
;;      Totals:         6       0       0       0       0
;;Total ram usage:        6 bytes
;; Hardware stack levels used:    1
;; This function calls:
;;		Nothing
;; This function is called by:
;;		_fround
;;		_scale
;;		_sprintf
;; This function uses a non-reentrant model
;;
psect	text523
	file	"C:\Program Files (x86)\HI-TECH Software\PICC\9.82\sources\wmul.c"
	line	3
	global	__size_of___wmul
	__size_of___wmul	equ	__end_of___wmul-___wmul
	
___wmul:	
	opt	stack 6
; Regs used in ___wmul: [wreg+status,2+status,0]
	line	4
	
l5625:	
	clrf	(___wmul@product)
	clrf	(___wmul@product+1)
	line	7
	
l5627:	
	btfss	(___wmul@multiplier),(0)&7
	goto	u1701
	goto	u1700
u1701:
	goto	l5631
u1700:
	line	8
	
l5629:	
	movf	(___wmul@multiplicand),w
	addwf	(___wmul@product),f
	skipnc
	incf	(___wmul@product+1),f
	movf	(___wmul@multiplicand+1),w
	addwf	(___wmul@product+1),f
	line	9
	
l5631:	
	clrc
	rlf	(___wmul@multiplicand),f
	rlf	(___wmul@multiplicand+1),f
	line	10
	
l5633:	
	clrc
	rrf	(___wmul@multiplier+1),f
	rrf	(___wmul@multiplier),f
	line	11
	
l5635:	
	movf	((___wmul@multiplier+1)),w
	iorwf	((___wmul@multiplier)),w
	skipz
	goto	u1711
	goto	u1710
u1711:
	goto	l5627
u1710:
	line	12
	
l5637:	
	movf	(___wmul@product+1),w
	movwf	(?___wmul+1)
	movf	(___wmul@product),w
	movwf	(?___wmul)
	line	13
	
l3016:	
	return
	opt stack 0
GLOBAL	__end_of___wmul
	__end_of___wmul:
;; =============== function ___wmul ends ============

	signat	___wmul,8314
	global	___bmul
psect	text524,local,class=CODE,delta=2
global __ptext524
__ptext524:

;; *************** function ___bmul *****************
;; Defined at:
;;		line 3 in file "C:\Program Files (x86)\HI-TECH Software\PICC\9.82\sources\bmul.c"
;; Parameters:    Size  Location     Type
;;  multiplier      1    wreg     unsigned char 
;;  multiplicand    1    9[COMMON] unsigned char 
;; Auto vars:     Size  Location     Type
;;  multiplier      1   11[COMMON] unsigned char 
;;  product         1   10[COMMON] unsigned char 
;; Return value:  Size  Location     Type
;;                  1    wreg      unsigned char 
;; Registers used:
;;		wreg, status,2, status,0
;; Tracked objects:
;;		On entry : 60/0
;;		On exit  : 60/0
;;		Unchanged: FFF9F/0
;; Data sizes:     COMMON   BANK0   BANK1   BANK3   BANK2
;;      Params:         1       0       0       0       0
;;      Locals:         2       0       0       0       0
;;      Temps:          0       0       0       0       0
;;      Totals:         3       0       0       0       0
;;Total ram usage:        3 bytes
;; Hardware stack levels used:    1
;; This function calls:
;;		Nothing
;; This function is called by:
;;		_fround
;;		_scale
;; This function uses a non-reentrant model
;;
psect	text524
	file	"C:\Program Files (x86)\HI-TECH Software\PICC\9.82\sources\bmul.c"
	line	3
	global	__size_of___bmul
	__size_of___bmul	equ	__end_of___bmul-___bmul
	
___bmul:	
	opt	stack 5
; Regs used in ___bmul: [wreg+status,2+status,0]
;___bmul@multiplier stored from wreg
	movwf	(___bmul@multiplier)
	line	4
	
l5609:	
	clrf	(___bmul@product)
	line	7
	
l5611:	
	btfss	(___bmul@multiplier),(0)&7
	goto	u1681
	goto	u1680
u1681:
	goto	l5615
u1680:
	line	8
	
l5613:	
	movf	(___bmul@multiplicand),w
	addwf	(___bmul@product),f
	line	9
	
l5615:	
	clrc
	rlf	(___bmul@multiplicand),f
	line	10
	
l5617:	
	clrc
	rrf	(___bmul@multiplier),f
	line	11
	
l5619:	
	movf	(___bmul@multiplier),f
	skipz
	goto	u1691
	goto	u1690
u1691:
	goto	l5611
u1690:
	line	12
	
l5621:	
	movf	(___bmul@product),w
	line	13
	
l3010:	
	return
	opt stack 0
GLOBAL	__end_of___bmul
	__end_of___bmul:
;; =============== function ___bmul ends ============

	signat	___bmul,8313
	global	__div_to_l_
psect	text525,local,class=CODE,delta=2
global __ptext525
__ptext525:

;; *************** function __div_to_l_ *****************
;; Defined at:
;;		line 61 in file "C:\Program Files (x86)\HI-TECH Software\PICC\9.82\sources\fldivl.c"
;; Parameters:    Size  Location     Type
;;  f1              3    0[COMMON] unsigned char 
;;  f2              3    3[COMMON] unsigned char 
;; Auto vars:     Size  Location     Type
;;  quot            4    0[BANK0 ] unsigned long 
;;  exp1            1    5[BANK0 ] unsigned char 
;;  cntr            1    4[BANK0 ] unsigned char 
;; Return value:  Size  Location     Type
;;                  4    0[COMMON] unsigned long 
;; Registers used:
;;		wreg, fsr0l, fsr0h, status,2, status,0
;; Tracked objects:
;;		On entry : 0/0
;;		On exit  : 60/0
;;		Unchanged: FFF9F/0
;; Data sizes:     COMMON   BANK0   BANK1   BANK3   BANK2
;;      Params:         6       0       0       0       0
;;      Locals:         0       6       0       0       0
;;      Temps:          8       0       0       0       0
;;      Totals:        14       6       0       0       0
;;Total ram usage:       20 bytes
;; Hardware stack levels used:    1
;; This function calls:
;;		Nothing
;; This function is called by:
;;		_sprintf
;; This function uses a non-reentrant model
;;
psect	text525
	file	"C:\Program Files (x86)\HI-TECH Software\PICC\9.82\sources\fldivl.c"
	line	61
	global	__size_of__div_to_l_
	__size_of__div_to_l_	equ	__end_of__div_to_l_-__div_to_l_
	
__div_to_l_:	
	opt	stack 6
; Regs used in __div_to_l_: [wreg-fsr0h+status,2+status,0]
	line	66
	
l5563:	
	movlw	low(__div_to_l_@f1)
	movwf	fsr0
	movf	indf,w
	movwf	(??__div_to_l_+0)+0+0
	incf	fsr0,f
	movf	indf,w
	movwf	(??__div_to_l_+0)+0+1
	incf	fsr0,f
	movf	indf,w
	movwf	(??__div_to_l_+0)+0+2
	incf	fsr0,f
	movf	indf,w
	movwf	(??__div_to_l_+0)+0+3
	clrc
	rlf	(??__div_to_l_+0)+2,w
	rlf	(??__div_to_l_+0)+3,w
	bcf	status, 5	;RP0=0, select bank0
	bcf	status, 6	;RP1=0, select bank0
	movwf	(__div_to_l_@exp1)
	movf	((__div_to_l_@exp1)),f
	skipz
	goto	u1591
	goto	u1590
u1591:
	goto	l5567
u1590:
	line	67
	
l5565:	
	clrf	(?__div_to_l_)
	clrf	(?__div_to_l_+1)
	clrf	(?__div_to_l_+2)
	clrf	(?__div_to_l_+3)
	goto	l3300
	line	68
	
l5567:	
	movlw	low(__div_to_l_@f2)
	movwf	fsr0
	movf	indf,w
	movwf	(??__div_to_l_+0)+0+0
	incf	fsr0,f
	movf	indf,w
	movwf	(??__div_to_l_+0)+0+1
	incf	fsr0,f
	movf	indf,w
	movwf	(??__div_to_l_+0)+0+2
	incf	fsr0,f
	movf	indf,w
	movwf	(??__div_to_l_+0)+0+3
	clrc
	rlf	(??__div_to_l_+0)+2,w
	rlf	(??__div_to_l_+0)+3,w
	movwf	(__div_to_l_@cntr)
	movf	((__div_to_l_@cntr)),f
	skipz
	goto	u1601
	goto	u1600
u1601:
	goto	l5571
u1600:
	goto	l5565
	line	70
	
l5571:	
	movlw	low(__div_to_l_@f1)
	movwf	fsr0
	movlw	0
	iorwf	indf,f
	incf	fsr0,f
	movlw	0
	iorwf	indf,f
	incf	fsr0,f
	movlw	080h
	iorwf	indf,f
	incf	fsr0,f
	movlw	0
	iorwf	indf,f
	line	71
	movlw	low(__div_to_l_@f1)
	movwf	fsr0
	movlw	0FFh
	andwf	indf,f
	incf	fsr0,f
	movlw	0FFh
	andwf	indf,f
	incf	fsr0,f
	movlw	0FFh
	andwf	indf,f
	incf	fsr0,f
	movlw	0
	andwf	indf,f
	line	72
	movlw	low(__div_to_l_@f2)
	movwf	fsr0
	movlw	0
	iorwf	indf,f
	incf	fsr0,f
	movlw	0
	iorwf	indf,f
	incf	fsr0,f
	movlw	080h
	iorwf	indf,f
	incf	fsr0,f
	movlw	0
	iorwf	indf,f
	line	73
	movlw	low(__div_to_l_@f2)
	movwf	fsr0
	movlw	0FFh
	andwf	indf,f
	incf	fsr0,f
	movlw	0FFh
	andwf	indf,f
	incf	fsr0,f
	movlw	0FFh
	andwf	indf,f
	incf	fsr0,f
	movlw	0
	andwf	indf,f
	line	74
	
l5573:	
	clrf	(__div_to_l_@quot)
	clrf	(__div_to_l_@quot+1)
	clrf	(__div_to_l_@quot+2)
	clrf	(__div_to_l_@quot+3)
	line	75
	
l5575:	
	movlw	low(07Fh)
	subwf	(__div_to_l_@exp1),f
	line	76
	
l5577:	
	movlw	(0A0h)
	addwf	(__div_to_l_@cntr),w
	movwf	(??__div_to_l_+0)+0
	movf	0+(??__div_to_l_+0)+0,w
	subwf	(__div_to_l_@exp1),f
	line	77
	
l5579:	
	movlw	(020h)
	movwf	(__div_to_l_@cntr)
	line	79
	
l5581:	
	clrc
	rlf	(__div_to_l_@quot),f
	rlf	(__div_to_l_@quot+1),f
	rlf	(__div_to_l_@quot+2),f
	rlf	(__div_to_l_@quot+3),f
	line	80
	
l5583:	
	movlw	low(__div_to_l_@f2)
	movwf	fsr0
	movf	indf,w
	movwf	(??__div_to_l_+0)+0+0
	incf	fsr0,f
	movf	indf,w
	movwf	(??__div_to_l_+0)+0+1
	incf	fsr0,f
	movf	indf,w
	movwf	(??__div_to_l_+0)+0+2
	incf	fsr0,f
	movf	indf,w
	movwf	(??__div_to_l_+0)+0+3
	movlw	low(__div_to_l_@f1)
	movwf	fsr0
	movf	indf,w
	movwf	(??__div_to_l_+4)+0+0
	incf	fsr0,f
	movf	indf,w
	movwf	(??__div_to_l_+4)+0+1
	incf	fsr0,f
	movf	indf,w
	movwf	(??__div_to_l_+4)+0+2
	incf	fsr0,f
	movf	indf,w
	movwf	(??__div_to_l_+4)+0+3
	movf	3+(??__div_to_l_+0)+0,w
	subwf	3+(??__div_to_l_+4)+0,w
	skipz
	goto	u1615
	movf	2+(??__div_to_l_+0)+0,w
	subwf	2+(??__div_to_l_+4)+0,w
	skipz
	goto	u1615
	movf	1+(??__div_to_l_+0)+0,w
	subwf	1+(??__div_to_l_+4)+0,w
	skipz
	goto	u1615
	movf	0+(??__div_to_l_+0)+0,w
	subwf	0+(??__div_to_l_+4)+0,w
u1615:
	skipc
	goto	u1611
	goto	u1610
u1611:
	goto	l3303
u1610:
	line	81
	
l5585:	
	movlw	low(__div_to_l_@f2)
	movwf	fsr0
	movf	indf,w
	movwf	(??__div_to_l_+0)+0+0
	incf	fsr0,f
	movf	indf,w
	movwf	(??__div_to_l_+0)+0+1
	incf	fsr0,f
	movf	indf,w
	movwf	(??__div_to_l_+0)+0+2
	incf	fsr0,f
	movf	indf,w
	movwf	(??__div_to_l_+0)+0+3
	movlw	low(__div_to_l_@f1)
	movwf	fsr0
	movf	0+(??__div_to_l_+0)+0,w
	subwf	indf,f
	incf	fsr0
	movf	1+(??__div_to_l_+0)+0,w
	skipc
	incfsz	1+(??__div_to_l_+0)+0,w
	subwf	indf,f
	incf	fsr0
	movf	2+(??__div_to_l_+0)+0,w
	skipc
	incfsz	2+(??__div_to_l_+0)+0,w
	subwf	indf,f
	incf	fsr0
	movf	3+(??__div_to_l_+0)+0,w
	skipc
	incf	3+(??__div_to_l_+0)+0,w
	subwf	indf,f
	movlw	3
	subwf	fsr0
	line	82
	
l5587:	
	bsf	(__div_to_l_@quot)+(0/8),(0)&7
	line	83
	
l3303:	
	line	84
	movlw	low(__div_to_l_@f1)
	movwf	fsr0
	clrc
	rlf	indf,f
	incf	fsr0,f
	rlf	indf,f
	incf	fsr0,f
	rlf	indf,f
	incf	fsr0,f
	rlf	indf,f
	line	85
	
l5589:	
	decfsz	(__div_to_l_@cntr),f
	goto	u1621
	goto	u1620
u1621:
	goto	l5581
u1620:
	
l3304:	
	line	86
	btfss	(__div_to_l_@exp1),7
	goto	u1631
	goto	u1630
u1631:
	goto	l5599
u1630:
	line	87
	
l5591:	
	movf	(__div_to_l_@exp1),w
	xorlw	80h
	addlw	-((-31)^80h)
	skipnc
	goto	u1641
	goto	u1640
u1641:
	goto	l5595
u1640:
	goto	l5565
	line	90
	
l5595:	
	clrc
	rrf	(__div_to_l_@quot+3),f
	rrf	(__div_to_l_@quot+2),f
	rrf	(__div_to_l_@quot+1),f
	rrf	(__div_to_l_@quot),f
	line	91
	
l5597:	
	incfsz	(__div_to_l_@exp1),f
	goto	u1651
	goto	u1650
u1651:
	goto	l5595
u1650:
	goto	l5605
	line	93
	
l5599:	
	movlw	(020h)
	subwf	(__div_to_l_@exp1),w
	skipc
	goto	u1661
	goto	u1660
u1661:
	goto	l3311
u1660:
	goto	l5565
	line	96
	
l5603:	
	clrc
	rlf	(__div_to_l_@quot),f
	rlf	(__div_to_l_@quot+1),f
	rlf	(__div_to_l_@quot+2),f
	rlf	(__div_to_l_@quot+3),f
	line	97
	decf	(__div_to_l_@exp1),f
	line	98
	
l3311:	
	line	95
	movf	(__div_to_l_@exp1),f
	skipz
	goto	u1671
	goto	u1670
u1671:
	goto	l5603
u1670:
	line	100
	
l5605:	
	movf	(__div_to_l_@quot+3),w
	movwf	(?__div_to_l_+3)
	movf	(__div_to_l_@quot+2),w
	movwf	(?__div_to_l_+2)
	movf	(__div_to_l_@quot+1),w
	movwf	(?__div_to_l_+1)
	movf	(__div_to_l_@quot),w
	movwf	(?__div_to_l_)

	line	101
	
l3300:	
	return
	opt stack 0
GLOBAL	__end_of__div_to_l_
	__end_of__div_to_l_:
;; =============== function __div_to_l_ ends ============

	signat	__div_to_l_,8316
	global	__tdiv_to_l_
psect	text526,local,class=CODE,delta=2
global __ptext526
__ptext526:

;; *************** function __tdiv_to_l_ *****************
;; Defined at:
;;		line 61 in file "C:\Program Files (x86)\HI-TECH Software\PICC\9.82\sources\ftdivl.c"
;; Parameters:    Size  Location     Type
;;  f1              3    0[COMMON] float 
;;  f2              3    3[COMMON] float 
;; Auto vars:     Size  Location     Type
;;  quot            4    0[BANK0 ] unsigned long 
;;  exp1            1    5[BANK0 ] unsigned char 
;;  cntr            1    4[BANK0 ] unsigned char 
;; Return value:  Size  Location     Type
;;                  4    0[COMMON] unsigned long 
;; Registers used:
;;		wreg, status,2, status,0
;; Tracked objects:
;;		On entry : 60/20
;;		On exit  : 60/0
;;		Unchanged: FFF9F/0
;; Data sizes:     COMMON   BANK0   BANK1   BANK3   BANK2
;;      Params:         6       0       0       0       0
;;      Locals:         0       6       0       0       0
;;      Temps:          3       0       0       0       0
;;      Totals:         9       6       0       0       0
;;Total ram usage:       15 bytes
;; Hardware stack levels used:    1
;; This function calls:
;;		Nothing
;; This function is called by:
;;		_sprintf
;; This function uses a non-reentrant model
;;
psect	text526
	file	"C:\Program Files (x86)\HI-TECH Software\PICC\9.82\sources\ftdivl.c"
	line	61
	global	__size_of__tdiv_to_l_
	__size_of__tdiv_to_l_	equ	__end_of__tdiv_to_l_-__tdiv_to_l_
	
__tdiv_to_l_:	
	opt	stack 6
; Regs used in __tdiv_to_l_: [wreg+status,2+status,0]
	line	66
	
l5515:	
	movf	(__tdiv_to_l_@f1),w
	movwf	((??__tdiv_to_l_+0)+0)
	movf	(__tdiv_to_l_@f1+1),w
	movwf	((??__tdiv_to_l_+0)+0+1)
	movf	(__tdiv_to_l_@f1+2),w
	movwf	((??__tdiv_to_l_+0)+0+2)
	clrc
	rlf	(??__tdiv_to_l_+0)+1,w
	rlf	(??__tdiv_to_l_+0)+2,w
	bcf	status, 5	;RP0=0, select bank0
	movwf	(__tdiv_to_l_@exp1)
	movf	((__tdiv_to_l_@exp1)),f
	skipz
	goto	u1501
	goto	u1500
u1501:
	goto	l5519
u1500:
	line	67
	
l5517:	
	clrf	(?__tdiv_to_l_)
	clrf	(?__tdiv_to_l_+1)
	clrf	(?__tdiv_to_l_+2)
	clrf	(?__tdiv_to_l_+3)
	goto	l3257
	line	68
	
l5519:	
	movf	(__tdiv_to_l_@f2),w
	movwf	((??__tdiv_to_l_+0)+0)
	movf	(__tdiv_to_l_@f2+1),w
	movwf	((??__tdiv_to_l_+0)+0+1)
	movf	(__tdiv_to_l_@f2+2),w
	movwf	((??__tdiv_to_l_+0)+0+2)
	clrc
	rlf	(??__tdiv_to_l_+0)+1,w
	rlf	(??__tdiv_to_l_+0)+2,w
	movwf	(__tdiv_to_l_@cntr)
	movf	((__tdiv_to_l_@cntr)),f
	skipz
	goto	u1511
	goto	u1510
u1511:
	goto	l3258
u1510:
	goto	l5517
	line	69
	
l3258:	
	line	70
	bsf	(__tdiv_to_l_@f1)+(15/8),(15)&7
	line	71
	
l5523:	
	movlw	0FFh
	andwf	(__tdiv_to_l_@f1),f
	movlw	0FFh
	andwf	(__tdiv_to_l_@f1+1),f
	movlw	0
	andwf	(__tdiv_to_l_@f1+2),f
	line	72
	
l5525:	
	bsf	(__tdiv_to_l_@f2)+(15/8),(15)&7
	line	73
	movlw	0FFh
	andwf	(__tdiv_to_l_@f2),f
	movlw	0FFh
	andwf	(__tdiv_to_l_@f2+1),f
	movlw	0
	andwf	(__tdiv_to_l_@f2+2),f
	line	74
	
l5527:	
	clrf	(__tdiv_to_l_@quot)
	clrf	(__tdiv_to_l_@quot+1)
	clrf	(__tdiv_to_l_@quot+2)
	clrf	(__tdiv_to_l_@quot+3)
	line	75
	
l5529:	
	movlw	low(07Fh)
	subwf	(__tdiv_to_l_@exp1),f
	line	76
	
l5531:	
	movlw	(098h)
	addwf	(__tdiv_to_l_@cntr),w
	movwf	(??__tdiv_to_l_+0)+0
	movf	0+(??__tdiv_to_l_+0)+0,w
	subwf	(__tdiv_to_l_@exp1),f
	line	77
	movlw	(018h)
	movwf	(__tdiv_to_l_@cntr)
	line	79
	
l5533:	
	clrc
	rlf	(__tdiv_to_l_@quot),f
	rlf	(__tdiv_to_l_@quot+1),f
	rlf	(__tdiv_to_l_@quot+2),f
	rlf	(__tdiv_to_l_@quot+3),f
	line	80
	
l5535:	
	movf	(__tdiv_to_l_@f2+2),w
	subwf	(__tdiv_to_l_@f1+2),w
	skipz
	goto	u1525
	movf	(__tdiv_to_l_@f2+1),w
	subwf	(__tdiv_to_l_@f1+1),w
	skipz
	goto	u1525
	movf	(__tdiv_to_l_@f2),w
	subwf	(__tdiv_to_l_@f1),w
u1525:
	skipc
	goto	u1521
	goto	u1520
u1521:
	goto	l5541
u1520:
	line	81
	
l5537:	
	movf	(__tdiv_to_l_@f2),w
	subwf	(__tdiv_to_l_@f1),f
	movf	(__tdiv_to_l_@f2+1),w
	skipc
	incfsz	(__tdiv_to_l_@f2+1),w
	subwf	(__tdiv_to_l_@f1+1),f
	movf	(__tdiv_to_l_@f2+2),w
	skipc
	incf	(__tdiv_to_l_@f2+2),w
	subwf	(__tdiv_to_l_@f1+2),f
	line	82
	
l5539:	
	bsf	(__tdiv_to_l_@quot)+(0/8),(0)&7
	line	84
	
l5541:	
	clrc
	rlf	(__tdiv_to_l_@f1),f
	rlf	(__tdiv_to_l_@f1+1),f
	rlf	(__tdiv_to_l_@f1+2),f
	line	85
	
l5543:	
	decfsz	(__tdiv_to_l_@cntr),f
	goto	u1531
	goto	u1530
u1531:
	goto	l5533
u1530:
	
l3261:	
	line	86
	btfss	(__tdiv_to_l_@exp1),7
	goto	u1541
	goto	u1540
u1541:
	goto	l5553
u1540:
	line	87
	
l5545:	
	movf	(__tdiv_to_l_@exp1),w
	xorlw	80h
	addlw	-((-23)^80h)
	skipnc
	goto	u1551
	goto	u1550
u1551:
	goto	l5549
u1550:
	goto	l5517
	line	90
	
l5549:	
	clrc
	rrf	(__tdiv_to_l_@quot+3),f
	rrf	(__tdiv_to_l_@quot+2),f
	rrf	(__tdiv_to_l_@quot+1),f
	rrf	(__tdiv_to_l_@quot),f
	line	91
	
l5551:	
	incfsz	(__tdiv_to_l_@exp1),f
	goto	u1561
	goto	u1560
u1561:
	goto	l5549
u1560:
	goto	l5559
	line	93
	
l5553:	
	movlw	(018h)
	subwf	(__tdiv_to_l_@exp1),w
	skipc
	goto	u1571
	goto	u1570
u1571:
	goto	l3268
u1570:
	goto	l5517
	line	96
	
l5557:	
	clrc
	rlf	(__tdiv_to_l_@quot),f
	rlf	(__tdiv_to_l_@quot+1),f
	rlf	(__tdiv_to_l_@quot+2),f
	rlf	(__tdiv_to_l_@quot+3),f
	line	97
	decf	(__tdiv_to_l_@exp1),f
	line	98
	
l3268:	
	line	95
	movf	(__tdiv_to_l_@exp1),f
	skipz
	goto	u1581
	goto	u1580
u1581:
	goto	l5557
u1580:
	line	100
	
l5559:	
	movf	(__tdiv_to_l_@quot+3),w
	movwf	(?__tdiv_to_l_+3)
	movf	(__tdiv_to_l_@quot+2),w
	movwf	(?__tdiv_to_l_+2)
	movf	(__tdiv_to_l_@quot+1),w
	movwf	(?__tdiv_to_l_+1)
	movf	(__tdiv_to_l_@quot),w
	movwf	(?__tdiv_to_l_)

	line	101
	
l3257:	
	return
	opt stack 0
GLOBAL	__end_of__tdiv_to_l_
	__end_of__tdiv_to_l_:
;; =============== function __tdiv_to_l_ ends ============

	signat	__tdiv_to_l_,8316
	global	_isdigit
psect	text527,local,class=CODE,delta=2
global __ptext527
__ptext527:

;; *************** function _isdigit *****************
;; Defined at:
;;		line 13 in file "C:\Program Files (x86)\HI-TECH Software\PICC\9.82\sources\isdigit.c"
;; Parameters:    Size  Location     Type
;;  c               1    wreg     unsigned char 
;; Auto vars:     Size  Location     Type
;;  c               1    1[COMMON] unsigned char 
;; Return value:  Size  Location     Type
;;		None               void
;; Registers used:
;;		wreg, status,2, status,0
;; Tracked objects:
;;		On entry : 60/0
;;		On exit  : 60/0
;;		Unchanged: FFF9F/0
;; Data sizes:     COMMON   BANK0   BANK1   BANK3   BANK2
;;      Params:         0       0       0       0       0
;;      Locals:         2       0       0       0       0
;;      Temps:          0       0       0       0       0
;;      Totals:         2       0       0       0       0
;;Total ram usage:        2 bytes
;; Hardware stack levels used:    1
;; This function calls:
;;		Nothing
;; This function is called by:
;;		_sprintf
;; This function uses a non-reentrant model
;;
psect	text527
	file	"C:\Program Files (x86)\HI-TECH Software\PICC\9.82\sources\isdigit.c"
	line	13
	global	__size_of_isdigit
	__size_of_isdigit	equ	__end_of_isdigit-_isdigit
	
_isdigit:	
	opt	stack 6
; Regs used in _isdigit: [wreg+status,2+status,0]
;isdigit@c stored from wreg
	movwf	(isdigit@c)
	line	14
	
l5503:	
	clrf	(_isdigit$2814)
	
l5505:	
	movlw	(03Ah)
	subwf	(isdigit@c),w
	skipnc
	goto	u1481
	goto	u1480
u1481:
	goto	l5511
u1480:
	
l5507:	
	movlw	(030h)
	subwf	(isdigit@c),w
	skipc
	goto	u1491
	goto	u1490
u1491:
	goto	l5511
u1490:
	
l5509:	
	clrf	(_isdigit$2814)
	incf	(_isdigit$2814),f
	
l5511:	
	rrf	(_isdigit$2814),w
	
	line	15
	
l3000:	
	return
	opt stack 0
GLOBAL	__end_of_isdigit
	__end_of_isdigit:
;; =============== function _isdigit ends ============

	signat	_isdigit,4216
	global	_msecbase
psect	text528,local,class=CODE,delta=2
global __ptext528
__ptext528:

;; *************** function _msecbase *****************
;; Defined at:
;;		line 83 in file "C:\Users\Varush\Documents\Microcontroladores\Lenguaje C\ADC_en_LCD.c"
;; Parameters:    Size  Location     Type
;;		None
;; Auto vars:     Size  Location     Type
;;		None
;; Return value:  Size  Location     Type
;;		None               void
;; Registers used:
;;		wreg
;; Tracked objects:
;;		On entry : 0/0
;;		On exit  : 0/0
;;		Unchanged: FFF9F/0
;; Data sizes:     COMMON   BANK0   BANK1   BANK3   BANK2
;;      Params:         0       0       0       0       0
;;      Locals:         0       0       0       0       0
;;      Temps:          0       0       0       0       0
;;      Totals:         0       0       0       0       0
;;Total ram usage:        0 bytes
;; Hardware stack levels used:    1
;; This function calls:
;;		Nothing
;; This function is called by:
;;		_pause
;; This function uses a non-reentrant model
;;
psect	text528
	file	"C:\Users\Varush\Documents\Microcontroladores\Lenguaje C\ADC_en_LCD.c"
	line	83
	global	__size_of_msecbase
	__size_of_msecbase	equ	__end_of_msecbase-_msecbase
	
_msecbase:	
	opt	stack 6
; Regs used in _msecbase: [wreg]
	line	84
	
l5501:	
;ADC_en_LCD.c: 84: OPTION_REG = 0b00000001;
	movlw	(01h)
	bsf	status, 5	;RP0=1, select bank1
	bcf	status, 6	;RP1=0, select bank1
	movwf	(129)^080h	;volatile
	line	85
;ADC_en_LCD.c: 85: TMR0 = 0xD;
	movlw	(0Dh)
	bcf	status, 5	;RP0=0, select bank0
	movwf	(1)	;volatile
	line	86
;ADC_en_LCD.c: 86: while(!T0IF);
	
l1064:	
	btfss	(90/8),(90)&7
	goto	u1471
	goto	u1470
u1471:
	goto	l1064
u1470:
	
l1066:	
	line	87
;ADC_en_LCD.c: 87: T0IF = 0;
	bcf	(90/8),(90)&7
	line	88
	
l1067:	
	return
	opt stack 0
GLOBAL	__end_of_msecbase
	__end_of_msecbase:
;; =============== function _msecbase ends ============

	signat	_msecbase,88
psect	text529,local,class=CODE,delta=2
global __ptext529
__ptext529:
	global	btemp
	btemp set 07Eh

	DABS	1,126,2	;btemp
	global	wtemp0
	wtemp0 set btemp
	end
