HI-TECH Software C Compiler 

Linker command line:

--edf=C:\Program Files (x86)\HI-TECH Software\PICC\9.82\dat\en_msgs.txt -cs \
  -h+SRPROG.sym -z -Q16F887 -ol.obj -MSRPROG.map -E1 -ACONST=00h-0FFhx32 \
  -ACODE=00h-07FFhx4 -ASTRCODE=00h-01FFFh -AENTRY=00h-0FFhx32 \
  -ASTRING=00h-0FFhx32 -ABANK0=020h-06Fh -ABANK1=0A0h-0EFh \
  -ABANK2=0110h-016Fh -ABANK3=0190h-01EFh \
  -ARAM=020h-06Fh,0A0h-0EFh,0110h-016Fh,0190h-01EFh \
  -AABS1=020h-07Fh,0A0h-0EFh,0110h-016Fh,0190h-01EFh -ACOMMON=070h-07Fh \
  -ASFR0=00h-01Fh -ASFR1=080h-09Fh -ASFR2=0100h-010Fh -ASFR3=0180h-018Fh \
  -preset_vec=00h,intentry,init,end_init -ppowerup=CODE -pfunctab=CODE \
  -ACONFIG=02007h-02008h -pconfig=CONFIG -DCONFIG=2 -AIDLOC=02000h-02003h \
  -pidloc=IDLOC -DIDLOC=2 -AEEDATA=00h-0FFh/02100h -peeprom_data=EEDATA \
  -DEEDATA=2 -DCODE=2 -DSTRCODE=2 -DSTRING=2 -DCONST=2 -DENTRY=2 -k \
  startup.obj SRPROG.obj 

Object code version is 3.10

Machine type is 16F887



                Name                               Link     Load   Length Selector   Space Scale
startup.obj     end_init                              0        0        3        0       0
SRPROG.obj      functab                             700      700        9        E       0
                config                             2007     2007        2     400E       0
                text665                              15       15        6       2A       0
                text664                              1B       1B        6       36       0
                text663                             7E5      7E5        E        E       0
                text662                              21       21       21       42       0
                text659                            16EA     16EA       78     2DD4       0
                text658                              6C       6C       C2       D8       0
                text655                              42       42       2A       84       0
                text640                             358      358      3A8      6B0       0
                text637                             206      206      152      40C       0
                text635                             12E      12E       D8      25C       0
                text634                            1762     1762       9E     2EC4       0
                text629                             84D      84D      7B3     109A       0
                maintext                            709      709       DC        E       0
                cstackBANK0                          20       20       43       20       1
                cstackCOMMON                         70       70        E       70       1
                cstackBANK1                          A0       A0       18       A0       1
                bssBANK0                             63       63        5       20       1
                cinit                               7F3      7F3        9        E       0
                strings                            1000     1000       B6     2000       0

TOTAL           Name                               Link     Load   Length     Space
        CLASS   CONST          

        CLASS   CODE           
                end_init                              0        0        3         0
                functab                             700      700        9         0
                text665                              15       15        6         0
                text664                              1B       1B        6         0
                text663                             7E5      7E5        E         0
                text662                              21       21       21         0
                text659                            16EA     16EA       78         0
                text658                              6C       6C       C2         0
                text655                              42       42       2A         0
                text640                             358      358      3A8         0
                text637                             206      206      152         0
                text635                             12E      12E       D8         0
                text634                            1762     1762       9E         0
                text629                             84D      84D      7B3         0
                maintext                            709      709       DC         0
                cinit                               7F3      7F3        9         0

        CLASS   STRCODE        

        CLASS   ENTRY          

        CLASS   STRING         
                strings                            1000     1000       B6         0

        CLASS   BANK0          
                cstackBANK0                          20       20       43         1
                bssBANK0                             63       63        5         1

        CLASS   BANK1          
                cstackBANK1                          A0       A0       18         1

        CLASS   BANK2          

        CLASS   BANK3          

        CLASS   RAM            

        CLASS   ABS1           
                abs_s1                               7E       7E        2         1

        CLASS   COMMON         
                cstackCOMMON                         70       70        E         1

        CLASS   SFR0           

        CLASS   SFR1           

        CLASS   SFR2           

        CLASS   SFR3           

        CLASS   CONFIG         
                config                             2007     2007        2         0

        CLASS   IDLOC          

        CLASS   EEDATA         



SEGMENTS        Name                           Load    Length   Top    Selector   Space  Class     Delta

                reset_vec                      000000  000003  000003         0       0  CODE        2
                cstackBANK0                    000020  000048  000068        20       1  BANK0       1
                text665                        000015  000006  00001B        2A       0  CODE        2
                text664                        00001B  000006  000021        36       0  CODE        2
                text662                        000021  000021  000042        42       0  CODE        2
                cstackCOMMON                   000070  00000E  00007E        70       1  COMMON      1
                text655                        000042  00002A  00006C        84       0  CODE        2
                cstackBANK1                    0000A0  000018  0000B8        A0       1  BANK1       1
                text658                        00006C  0000C2  00012E        D8       0  CODE        2
                text635                        00012E  0000D8  000206       25C       0  CODE        2
                text637                        000206  000152  000358       40C       0  CODE        2
                text640                        000358  0003A8  000700       6B0       0  CODE        2
                functab                        000700  0000FC  0007FC         E       0  CODE        2
                text629                        00084D  0007B3  001000      109A       0  CODE        2
                strings                        001000  0000B6  0010B6      2000       0  STRING      2
                text659                        0016EA  000078  001762      2DD4       0  CODE        2
                text634                        001762  00009E  001800      2EC4       0  CODE        2
                config                         002007  000002  002009      400E       0  CONFIG      2


UNUSED ADDRESS RANGES

        Name                Unused          Largest block    Delta
        BANK0            0068-006F              8           1
        BANK1            00B8-00EF             38           1
        BANK2            0110-016F             60           1
        BANK3            0190-01EF             60           1
        CODE             0003-0014             12           2
                         07FC-084C              4
                         10B6-16E9            634
                         1800-1FFF            800
        CONST            0003-0014             12           2
                         07FC-084C              4
                         10B6-16E9            100
                         1800-1FFF            100
        EEDATA           2100-21FF            100           2
        ENTRY            0003-0014             12           2
                         07FC-084C              4
                         10B6-16E9            100
                         1800-1FFF            100
        IDLOC            2000-2003              4           2
        RAM              0068-006F              8           1
                         00B8-00EF             38
                         0110-016F             60
                         0190-01EF             60
        SFR0             0000-001F             20           1
        SFR1             0080-009F             20           1
        SFR2             0100-010F             10           1
        SFR3             0180-018F             10           1
        STRCODE          0003-0014             12           2
                         07FC-084C             51
                         10B6-16E9            634
                         1800-1FFF            800
        STRING           0003-0014             12           2
                         07FC-084C              4
                         10B6-16E9            100
                         1800-1FFF            100

                                  Symbol Table

??___awdiv             cstackCOMMON 007A
??___awmod             cstackCOMMON 0074
??___awtoft            cstackCOMMON 007B
??___bmul              cstackCOMMON 007A
??___ftadd             cstackBANK0  0042
??___ftge              cstackCOMMON 0076
??___ftmul             cstackBANK0  0033
??___ftneg             cstackCOMMON 0073
??___ftpack            cstackCOMMON 0075
??___ftsub             cstackCOMMON 007E
??___fttol             cstackBANK0  0024
??___lbdiv             cstackCOMMON 0076
??___lbmod             cstackCOMMON 0071
??___lldiv             cstackCOMMON 0078
??___llmod             cstackCOMMON 007D
??___lltoft            cstackCOMMON 007C
??___lwdiv             cstackCOMMON 0074
??___wmul              cstackCOMMON 0074
??__div_to_l_          cstackCOMMON 0076
??__doprnt             cstackBANK0  0054
??__tdiv_to_l_         cstackCOMMON 0076
??_distance            cstackCOMMON 007E
??_fround              cstackCOMMON 007E
??_getch               cstackCOMMON 0070
??_init_comms          cstackCOMMON 0070
??_isdigit             cstackCOMMON 0070
??_lcd_clear           cstackCOMMON 0075
??_lcd_goto            cstackCOMMON 0075
??_lcd_init            cstackCOMMON 0075
??_lcd_puts            cstackCOMMON 0077
??_lcd_write           cstackCOMMON 0074
??_main                cstackBANK0  0060
??_msecbase            cstackCOMMON 0070
??_pause               cstackCOMMON 0072
??_printf              cstackCOMMON 007E
??_putch               cstackCOMMON 007E
??_scale               cstackBANK0  003F
??_sprintf             cstackCOMMON 007E
??_wait_sensor         cstackCOMMON 0072
?___awdiv              cstackCOMMON 0076
?___awmod              cstackCOMMON 0070
?___awtoft             cstackCOMMON 0078
?___bmul               cstackCOMMON 0079
?___ftadd              cstackBANK0  003C
?___ftge               cstackCOMMON 0070
?___ftmul              cstackBANK0  002D
?___ftneg              cstackCOMMON 0070
?___ftpack             cstackCOMMON 0070
?___ftsub              cstackBANK0  0048
?___fttol              cstackBANK0  0020
?___lbdiv              cstackCOMMON 0075
?___lbmod              cstackCOMMON 0070
?___lldiv              cstackCOMMON 0070
?___llmod              cstackBANK0  0020
?___lltoft             cstackCOMMON 0078
?___lwdiv              cstackCOMMON 0070
?___wmul               cstackCOMMON 0070
?__div_to_l_           cstackCOMMON 0070
?__doprnt              cstackBANK0  0052
?__tdiv_to_l_          cstackCOMMON 0070
?_distance             cstackCOMMON 007C
?_fround               cstackBANK0  0048
?_getch                cstackCOMMON 0070
?_init_comms           cstackCOMMON 0070
?_isdigit              cstackCOMMON 0070
?_lcd_clear            cstackCOMMON 0070
?_lcd_goto             cstackCOMMON 0070
?_lcd_init             cstackCOMMON 0070
?_lcd_puts             cstackCOMMON 0075
?_lcd_write            cstackCOMMON 0070
?_main                 cstackCOMMON 0070
?_msecbase             cstackCOMMON 0070
?_pause                cstackCOMMON 0070
?_printf               cstackBANK0  0059
?_putch                cstackBANK0  0028
?_scale                cstackBANK0  003C
?_sprintf              cstackBANK0  0059
?_wait_sensor          cstackCOMMON 0070
_ANSEL                 (abs)        0188
_ANSELH                (abs)        0189
_BAUDCTL               (abs)        0187
_OPTION_REG            (abs)        0081
_OSCCON                (abs)        008F
_PORTB                 (abs)        0006
_PORTD                 (abs)        0008
_RB0                   (abs)        0030
_RB1                   (abs)        0031
_RC0                   (abs)        0038
_RC3                   (abs)        003B
_RC4                   (abs)        003C
_RCIF                  (abs)        0065
_RCREG                 (abs)        001A
_RCSTA                 (abs)        0018
_SPBRG                 (abs)        0099
_T0IF                  (abs)        005A
_T1CON                 (abs)        0010
_TMR0                  (abs)        0001
_TMR1H                 (abs)        000F
_TMR1L                 (abs)        000E
_TMR1ON                (abs)        0080
_TRISA                 (abs)        0085
_TRISB1                (abs)        0431
_TRISC                 (abs)        0087
_TRISC6                (abs)        043E
_TRISC7                (abs)        043F
_TRISD                 (abs)        0088
_TRISE                 (abs)        0089
_TXIF                  (abs)        0064
_TXREG                 (abs)        0019
_TXSTA                 (abs)        0098
__Habs1                abs1         0000
__Hbank0               bank0        0000
__Hbank1               bank1        0000
__Hbank2               bank2        0000
__Hbank3               bank3        0000
__HbssBANK0            bssBANK0     0000
__Hcinit               cinit        0000
__Hclrtext             clrtext      0000
__Hcode                code         0000
__Hcommon              common       0000
__Hconfig              config       2009
__HcstackBANK0         cstackBANK0  0000
__HcstackBANK1         cstackBANK1  0000
__HcstackCOMMON        cstackCOMMON 0000
__Heeprom_data         eeprom_data  0000
__Hend_init            end_init     0003
__Hfunctab             functab      0709
__Hidloc               idloc        0000
__Hinit                init         0000
__Hintentry            intentry     0000
__Hmaintext            maintext     0000
__Hpa_nodes            pa_nodes     0000
__Hpowerup             powerup      0000
__Hram                 ram          0000
__Hreset_vec           reset_vec    0000
__Hsfr0                sfr0         0000
__Hsfr1                sfr1         0000
__Hsfr2                sfr2         0000
__Hsfr3                sfr3         0000
__Hstrings             strings      0000
__Htext                text         0000
__Labs1                abs1         0000
__Lbank0               bank0        0000
__Lbank1               bank1        0000
__Lbank2               bank2        0000
__Lbank3               bank3        0000
__LbssBANK0            bssBANK0     0000
__Lcinit               cinit        0000
__Lclrtext             clrtext      0000
__Lcode                code         0000
__Lcommon              common       0000
__Lconfig              config       2007
__LcstackBANK0         cstackBANK0  0000
__LcstackBANK1         cstackBANK1  0000
__LcstackCOMMON        cstackCOMMON 0000
__Leeprom_data         eeprom_data  0000
__Lend_init            end_init     0000
__Lfunctab             functab      0700
__Lidloc               idloc        0000
__Linit                init         0000
__Lintentry            intentry     0000
__Lmaintext            maintext     0000
__Lpa_nodes            pa_nodes     0000
__Lpowerup             powerup      0000
__Lram                 ram          0000
__Lreset_vec           reset_vec    0000
__Lsfr0                sfr0         0000
__Lsfr1                sfr1         0000
__Lsfr2                sfr2         0000
__Lsfr3                sfr3         0000
__Lstrings             strings      0000
__Ltext                text         0000
__S0                   (abs)        2009
__S1                   (abs)        00B8
__S2                   (abs)        0000
___awdiv               text640      0559
___awdiv@counter       cstackCOMMON 007A
___awdiv@dividend      cstackCOMMON 0078
___awdiv@divisor       cstackCOMMON 0076
___awdiv@quotient      cstackCOMMON 007C
___awdiv@sign          cstackCOMMON 007B
___awmod               text640      059E
___awmod@counter       cstackCOMMON 0074
___awmod@dividend      cstackCOMMON 0072
___awmod@divisor       cstackCOMMON 0070
___awmod@sign          cstackCOMMON 0075
___awtoft              text640      03AC
___awtoft@c            cstackCOMMON 0078
___awtoft@sign         cstackCOMMON 007B
___bmul                text640      064A
___bmul@multiplicand   cstackCOMMON 0079
___bmul@multiplier     cstackCOMMON 007B
___bmul@product        cstackCOMMON 007A
___ftadd               text635      0144
___ftadd@exp1          cstackBANK0  0047
___ftadd@exp2          cstackBANK0  0046
___ftadd@f1            cstackBANK0  003C
___ftadd@f2            cstackBANK0  003F
___ftadd@sign          cstackBANK0  0045
___ftge                text629      0E90
___ftge@ff1            cstackCOMMON 0070
___ftge@ff2            cstackCOMMON 0073
___ftmul               text640      05DB
___ftmul@cntr          cstackBANK0  003A
___ftmul@exp           cstackBANK0  0036
___ftmul@f1            cstackBANK0  002D
___ftmul@f2            cstackBANK0  0030
___ftmul@f3_as_product cstackBANK0  0037
___ftmul@sign          cstackBANK0  003B
___ftneg               text629      0EE3
___ftneg@f1            cstackCOMMON 0070
___ftpack              text640      0658
___ftpack@arg          cstackCOMMON 0070
___ftpack@exp          cstackCOMMON 0073
___ftpack@sign         cstackCOMMON 0074
___ftsub               text635      012E
___ftsub@f1            cstackBANK0  004B
___ftsub@f2            cstackBANK0  0048
___fttol               text629      0F9E
___fttol@exp1          cstackBANK0  002C
___fttol@f1            cstackBANK0  0020
___fttol@lval          cstackBANK0  0028
___fttol@sign1         cstackBANK0  0027
___lbdiv               text637      030B
___lbdiv@counter       cstackCOMMON 0077
___lbdiv@dividend      cstackCOMMON 0076
___lbdiv@divisor       cstackCOMMON 0075
___lbdiv@quotient      cstackCOMMON 0078
___lbmod               text637      0326
___lbmod@counter       cstackCOMMON 0073
___lbmod@dividend      cstackCOMMON 0072
___lbmod@divisor       cstackCOMMON 0070
___lbmod@rem           cstackCOMMON 0074
___lldiv               text629      0E48
___lldiv@counter       cstackCOMMON 007C
___lldiv@dividend      cstackCOMMON 0074
___lldiv@divisor       cstackCOMMON 0070
___lldiv@quotient      cstackCOMMON 0078
___llmod               text629      0E0A
___llmod@counter       cstackCOMMON 007D
___llmod@dividend      cstackBANK0  0024
___llmod@divisor       cstackBANK0  0020
___lltoft              text640      0358
___lltoft@c            cstackCOMMON 0078
___lltoft@exp          cstackCOMMON 007C
___lwdiv               text655      0042
___lwdiv@counter       cstackCOMMON 0076
___lwdiv@dividend      cstackCOMMON 0072
___lwdiv@divisor       cstackCOMMON 0070
___lwdiv@quotient      cstackCOMMON 0074
___wmul                text629      0ECA
___wmul@multiplicand   cstackCOMMON 0072
___wmul@multiplier     cstackCOMMON 0070
___wmul@product        cstackCOMMON 0074
__div_to_l_            text658      006C
__div_to_l_@cntr       cstackBANK0  0024
__div_to_l_@exp1       cstackBANK0  0025
__div_to_l_@f1         cstackCOMMON 0070
__div_to_l_@f2         cstackCOMMON 0073
__div_to_l_@quot       cstackBANK0  0020
__doprnt               text629      0869
__doprnt$1925          cstackBANK1  00A0
__doprnt@_val          cstackBANK1  00AD
__doprnt@ap            cstackBANK0  0053
__doprnt@c             cstackBANK1  00B6
__doprnt@exp           cstackBANK1  00B1
__doprnt@f             cstackBANK0  0052
__doprnt@flag          cstackBANK1  00A4
__doprnt@fval          cstackBANK1  00B3
__doprnt@integ         cstackBANK1  00A6
__doprnt@pb            cstackBANK1  00B7
__doprnt@prec          cstackBANK1  00AB
__doprnt@width         cstackBANK1  00A9
__end_of___awdiv       text640      059E
__end_of___awmod       text640      05DB
__end_of___awtoft      text640      03C7
__end_of___bmul        text640      0658
__end_of___ftadd       text635      0206
__end_of___ftge        text629      0EBC
__end_of___ftmul       text640      064A
__end_of___ftneg       text629      0EEB
__end_of___ftpack      text640      0696
__end_of___ftsub       text635      0144
__end_of___fttol       text629      0FF9
__end_of___lbdiv       text637      0326
__end_of___lbmod       text637      0342
__end_of___lldiv       text629      0E90
__end_of___llmod       text629      0E48
__end_of___lltoft      text640      0376
__end_of___lwdiv       text655      006C
__end_of___wmul        text629      0EE3
__end_of__div_to_l_    text658      0121
__end_of__doprnt       text629      0E0A
__end_of__tdiv_to_l_   text659      1762
__end_of_distance      text640      03AC
__end_of_fround        text637      030B
__end_of_getch         text664      0021
__end_of_init_comms    text663      07F3
__end_of_isdigit       text629      0ECA
__end_of_lcd_clear     text634      17F5
__end_of_lcd_goto      text634      1768
__end_of_lcd_init      text634      17BB
__end_of_lcd_puts      text634      1785
__end_of_lcd_write     text634      17DF
__end_of_main          maintext     07E5
__end_of_msecbase      text634      17EC
__end_of_pause         text634      17CC
__end_of_printf        text629      0859
__end_of_putch         text665      001B
__end_of_scale         text640      0559
__end_of_sprintf       text629      0869
__end_of_wait_sensor   text662      0042
__npowers_             strings      1010
__pbssBANK0            bssBANK0     0063
__pcstackBANK0         cstackBANK0  0020
__pcstackBANK1         cstackBANK1  00A0
__pcstackCOMMON        cstackCOMMON 0070
__pfunctab             functab      0700
__pmaintext            maintext     0709
__powers_              strings      1037
__pstrings             strings      1000
__ptext628             text629      0859
__ptext629             text629      084D
__ptext630             text634      1785
__ptext631             text629      0869
__ptext632             text634      17EC
__ptext633             text634      1768
__ptext634             text634      1762
__ptext635             text635      012E
__ptext636             text640      03C7
__ptext637             text637      0206
__ptext638             text634      17CC
__ptext639             text640      0376
__ptext640             text640      0358
__ptext641             text640      03AC
__ptext642             text640      05DB
__ptext643             text635      0144
__ptext644             text634      17BB
__ptext645             text640      059E
__ptext646             text629      0E48
__ptext647             text629      0E90
__ptext648             text629      0EE3
__ptext649             text629      0E0A
__ptext650             text640      0559
__ptext651             text629      0F9E
__ptext652             text640      0658
__ptext653             text637      0326
__ptext654             text637      030B
__ptext655             text655      0042
__ptext656             text629      0ECA
__ptext657             text640      064A
__ptext658             text658      006C
__ptext659             text659      16EA
__ptext660             text629      0EBC
__ptext661             text634      17DF
__ptext662             text662      0021
__ptext663             text663      07E5
__ptext664             text664      001B
__ptext665             text665      0015
__size_of___awdiv      (abs)        0000
__size_of___awmod      (abs)        0000
__size_of___awtoft     (abs)        0000
__size_of___bmul       (abs)        0000
__size_of___ftadd      (abs)        0000
__size_of___ftge       (abs)        0000
__size_of___ftmul      (abs)        0000
__size_of___ftneg      (abs)        0000
__size_of___ftpack     (abs)        0000
__size_of___ftsub      (abs)        0000
__size_of___fttol      (abs)        0000
__size_of___lbdiv      (abs)        0000
__size_of___lbmod      (abs)        0000
__size_of___lldiv      (abs)        0000
__size_of___llmod      (abs)        0000
__size_of___lltoft     (abs)        0000
__size_of___lwdiv      (abs)        0000
__size_of___wmul       (abs)        0000
__size_of__div_to_l_   (abs)        0000
__size_of__doprnt      (abs)        0000
__size_of__tdiv_to_l_  (abs)        0000
__size_of_distance     (abs)        0000
__size_of_fround       (abs)        0000
__size_of_getch        (abs)        0000
__size_of_init_comms   (abs)        0000
__size_of_isdigit      (abs)        0000
__size_of_lcd_clear    (abs)        0000
__size_of_lcd_goto     (abs)        0000
__size_of_lcd_init     (abs)        0000
__size_of_lcd_puts     (abs)        0000
__size_of_lcd_write    (abs)        0000
__size_of_main         (abs)        0000
__size_of_msecbase     (abs)        0000
__size_of_pause        (abs)        0000
__size_of_printf       (abs)        0000
__size_of_putch        (abs)        0000
__size_of_scale        (abs)        0000
__size_of_sprintf      (abs)        0000
__size_of_wait_sensor  (abs)        0000
__tdiv_to_l_           text659      16EA
__tdiv_to_l_@cntr      cstackBANK0  0024
__tdiv_to_l_@exp1      cstackBANK0  0025
__tdiv_to_l_@f1        cstackCOMMON 0070
__tdiv_to_l_@f2        cstackCOMMON 0073
__tdiv_to_l_@quot      cstackBANK0  0020
_carac1                bssBANK0     0063
_dist                  bssBANK0     0066
_distance              text640      0376
_dpowers               strings      105E
_exit                  init         0000
_fround                text637      0206
_fround$2921           cstackBANK0  004E
_fround$2922           cstackBANK0  004B
_getch                 text664      001B
_init_comms            text663      07E5
_isdigit               text629      0EBC
_isdigit$2433          cstackCOMMON 0070
_lcd_clear             text634      17EC
_lcd_goto              text634      1762
_lcd_init              text634      1785
_lcd_puts              text634      1768
_lcd_write             text634      17CC
_main                  maintext     0709
_msecbase              text634      17DF
_pause                 text634      17BB
_printf                text629      084D
_putch                 text665      0015
_scale                 text640      03C7
_scale$2923            cstackBANK0  0043
_sprintf               text629      0859
_wait_sensor           text662      0021
btemp                  (abs)        007E
distance@ticks         cstackBANK0  0020
end_of_initialization  cinit        07F8
fpbase                 functab      0705
fptable                functab      0700
fptotal                (abs)        0002
fround@prec            cstackBANK0  0051
intlevel0              functab      0700
intlevel1              functab      0700
intlevel2              functab      0700
intlevel3              functab      0700
intlevel4              functab      0700
intlevel5              functab      0700
isdigit@c              cstackCOMMON 0071
l1052                                   
l1058                                   
l1061                                   
l1094                                   
l1097                                   
l1103                                   
l1109                                   
l1112                                   
l1118                                   
l1124                                   
l1250                                   
l2235                                   
l2248                                   
l2255                                   
l2261                                   
l2267                                   
l2277                                   
l2297                                   
l2303                                   
l2347                                   
l2401                                   
l2414                                   
l2424                                   
l2428                                   
l2443                                   
l2482                                   
l2504                                   
l2512                                   
l2555                                   
l5180                                   
l5184                                   
l5190                                   
l5192                                   
l5194                                   
l5196                                   
l5198                                   
l5218                                   
l5220                                   
l5222                                   
l5232                                   
l5240                                   
l5242                                   
l5244                                   
l5246                                   
l5248                                   
l5252                                   
l5256                                   
l5260                                   
l5268                                   
l5280                                   
l5290                                   
l5292                                   
l5294                                   
l5296                                   
l5300                                   
l5304                                   
l5306                                   
l5314                                   
l5326                                   
l5334                                   
l5336                                   
l5342                                   
l5350                                   
l5352                                   
l5358                                   
l5360                                   
l5370                                   
l5374                                   
l5378                                   
l5384                                   
l5386                                   
l5388                                   
l5394                                   
l5398                                   
l5402                                   
l5408                                   
l5410                                   
l5414                                   
l5416                                   
l5422                                   
l5426                                   
l5428                                   
l5448                                   
l5450                                   
l5452                                   
l5454                                   
l5460                                   
l5462                                   
l5464                                   
l5466                                   
l5468                                   
l5476                                   
l5486                                   
l5492                                   
l5494                                   
l5498                                   
l5504                                   
l5508                                   
l5518                                   
l5522                                   
l5526                                   
l5530                                   
l5536                                   
l5550                                   
l5556                                   
l5564                                   
l5574                                   
l5576                                   
l5584                                   
l5586                                   
l5596                                   
l5600                                   
l5604                                   
l5610                                   
l5612                                   
l5616                                   
l5636                                   
l5640                                   
l5650                                   
l5654                                   
l5656                                   
l5658                                   
l5668                                   
l5674                                   
l5680                                   
l5682                                   
l5686                                   
l5698                                   
l5708                                   
l5714                                   
l5718                                   
l5720                                   
l5724                                   
l5726                                   
l5732                                   
l5746                                   
l5748                                   
l5750                                   
l5752                                   
l5754                                   
l5756                                   
l5758                                   
l5760                                   
l5768                                   
l5770                                   
l5772                                   
l5780                                   
l5782                                   
l5784                                   
l5788                                   
l5790                                   
l5794                                   
l5800                                   
l5810                                   
l5812                                   
l5814                                   
l5822                                   
l5834                                   
l5836                                   
l5838                                   
l5840                                   
l5842                                   
l5844                                   
l5846                                   
l5848                                   
l5852                                   
l5862                                   
l5870                                   
l5874                                   
l5910                                   
l5912                                   
l5916                                   
l5918                                   
l5920                                   
l5924                                   
l5928                                   
l5930                                   
l5932                                   
l5942                                   
l5946                                   
l5952                                   
l5954                                   
l5964                                   
l5966                                   
l5970                                   
l5974                                   
l5978                                   
l5980                                   
l5982                                   
l5984                                   
l5986                                   
l5988                                   
l5994                                   
l5996                                   
l6008                                   
l6026                                   
l6028                                   
l6030                                   
l6034                                   
l6048                                   
l6052                                   
l6066                                   
l6098                                   
l6110                                   
l6116                                   
l6126                                   
l6138                                   
l6146                                   
l6150                                   
l6162                                   
l6184                                   
l6196                                   
l6202                                   
l6208                                   
l6218                                   
l6220                                   
l6222                                   
l6224                                   
l6226                                   
l6228                                   
l6230                                   
l6232                                   
l6234                                   
l6236                                   
l6238                                   
l6240                                   
l6242                                   
l6244                                   
l6246                                   
l6248                                   
l6250                                   
l6252                                   
l6254                                   
l6256                                   
l6258                                   
l6260                                   
l6262                                   
l6264                                   
l6268                                   
l6270                                   
l6272                                   
l6274                                   
l6276                                   
l6280                                   
l6282                                   
l6284                                   
l6286                                   
l6288                                   
l6290                                   
l6292                                   
l6294                                   
l6296                                   
l6298                                   
l6300                                   
l6302                                   
l6304                                   
l6306                                   
l6308                                   
l6312                                   
l6314                                   
l6316                                   
l6318                                   
l6320                                   
l6322                                   
l6324                                   
l6328                                   
l6332                                   
l6334                                   
l6338                                   
l6340                                   
l6342                                   
l6344                                   
l6346                                   
l6350                                   
lcd_goto@pos           cstackCOMMON 0075
lcd_puts@s             cstackCOMMON 0075
lcd_write@c            cstackCOMMON 0074
pause@usvalue          cstackCOMMON 0070
pause@x                cstackCOMMON 0072
printf@ap              cstackBANK0  005C
printf@f               cstackBANK0  005B
printf@pb              cstackBANK0  005D
putch@byte             cstackBANK0  0028
reset_vec              reset_vec    0000
scale@scl              cstackBANK0  0046
sprintf@ap             cstackBANK0  005D
sprintf@f              cstackBANK0  0059
sprintf@pb             cstackBANK0  005E
sprintf@wh             cstackBANK0  005C
start                  init         0000
start_initialization   cinit        07F3
u2250                                   
u3070                                   
wait_sensor@i          cstackCOMMON 0072
wtemp0                 (abs)        007E
