opt subtitle "HI-TECH Software Omniscient Code Generator (PRO mode) build 9453"

opt pagewidth 120

	opt pm

	processor	16F887
clrc	macro
	bcf	3,0
	endm
clrz	macro
	bcf	3,2
	endm
setc	macro
	bsf	3,0
	endm
setz	macro
	bsf	3,2
	endm
skipc	macro
	btfss	3,0
	endm
skipz	macro
	btfss	3,2
	endm
skipnc	macro
	btfsc	3,0
	endm
skipnz	macro
	btfsc	3,2
	endm
indf	equ	0
indf0	equ	0
pc	equ	2
pcl	equ	2
status	equ	3
fsr	equ	4
fsr0	equ	4
c	equ	1
z	equ	0
pclath	equ	10
# 4 "C:\Users\Jorge\OneDrive\Escritorio\Microcontroladores\Proyectos\LCD1\LCD1.c"
	psect config,class=CONFIG,delta=2 ;#
# 4 "C:\Users\Jorge\OneDrive\Escritorio\Microcontroladores\Proyectos\LCD1\LCD1.c"
	dw 0xFFFC & 0xFFF7 & 0xFFFF & 0xFFDF & 0xFFFF & 0xFFFF & 0xFCFF & 0xFBFF & 0xF7FF & 0xEFFF & 0xFFFF ;#
# 5 "C:\Users\Jorge\OneDrive\Escritorio\Microcontroladores\Proyectos\LCD1\LCD1.c"
	psect config,class=CONFIG,delta=2 ;#
# 5 "C:\Users\Jorge\OneDrive\Escritorio\Microcontroladores\Proyectos\LCD1\LCD1.c"
	dw 0xFFFF & 0xFFFF ;#
	FNCALL	_main,_lcd_init
	FNCALL	_main,_lcd_clear
	FNCALL	_main,_init_comms
	FNCALL	_main,___awtoft
	FNCALL	_main,___ftmul
	FNCALL	_main,_sprintf
	FNCALL	_main,_lcd_goto
	FNCALL	_main,_lcd_puts
	FNCALL	_main,_pause
	FNCALL	_lcd_init,_pause
	FNCALL	_lcd_init,_lcd_write
	FNCALL	_lcd_init,_lcd_clear
	FNCALL	_lcd_puts,_lcd_write
	FNCALL	_lcd_goto,_lcd_write
	FNCALL	_sprintf,_isdigit
	FNCALL	_sprintf,___wmul
	FNCALL	_sprintf,___ftge
	FNCALL	_sprintf,___ftneg
	FNCALL	_sprintf,___awdiv
	FNCALL	_sprintf,_scale
	FNCALL	_sprintf,___ftmul
	FNCALL	_sprintf,_fround
	FNCALL	_sprintf,___ftadd
	FNCALL	_sprintf,___fttol
	FNCALL	_sprintf,__div_to_l_
	FNCALL	_sprintf,__tdiv_to_l_
	FNCALL	_sprintf,___lltoft
	FNCALL	_sprintf,___ftsub
	FNCALL	_sprintf,___lldiv
	FNCALL	_sprintf,___llmod
	FNCALL	_lcd_clear,_lcd_write
	FNCALL	_lcd_clear,_pause
	FNCALL	___ftsub,___ftadd
	FNCALL	_scale,___awmod
	FNCALL	_scale,___awdiv
	FNCALL	_scale,___ftmul
	FNCALL	_scale,___bmul
	FNCALL	_fround,___lbmod
	FNCALL	_fround,___bmul
	FNCALL	_fround,___lbdiv
	FNCALL	_fround,___ftmul
	FNCALL	_lcd_write,_pause
	FNCALL	___lltoft,___ftpack
	FNCALL	___awtoft,___ftpack
	FNCALL	___ftmul,___ftpack
	FNCALL	___ftadd,___ftpack
	FNCALL	_pause,_msecbase
	FNROOT	_main
	global	__npowers_
psect	strings,class=STRING,delta=2
global __pstrings
__pstrings:
;	global	stringdir,stringtab,__stringbase
stringtab:
;	String table - string pointers are 1 byte each
	btfsc	(btemp+1),7
	ljmp	stringcode
	bcf	status,7
	btfsc	(btemp+1),0
	bsf	status,7
	movf	indf,w
	incf fsr
skipnz
incf btemp+1
	return
stringcode:stringdir:
movlw high(stringdir)
movwf pclath
movf fsr,w
incf fsr
	addwf pc
__stringbase:
	retlw	0
psect	strings
	file	"C:\Program Files (x86)\HI-TECH Software\PICC\9.82\sources\powers.c"
	line	39
__npowers_:
	retlw	0x0
	retlw	0x80
	retlw	0x3f

	retlw	0xcd
	retlw	0xcc
	retlw	0x3d

	retlw	0xd7
	retlw	0x23
	retlw	0x3c

	retlw	0x12
	retlw	0x83
	retlw	0x3a

	retlw	0xb7
	retlw	0xd1
	retlw	0x38

	retlw	0xc6
	retlw	0x27
	retlw	0x37

	retlw	0x38
	retlw	0x86
	retlw	0x35

	retlw	0xc0
	retlw	0xd6
	retlw	0x33

	retlw	0xcc
	retlw	0x2b
	retlw	0x32

	retlw	0x70
	retlw	0x89
	retlw	0x30

	retlw	0xe7
	retlw	0xdb
	retlw	0x2e

	retlw	0xe5
	retlw	0x3c
	retlw	0x1e

	retlw	0x42
	retlw	0xa2
	retlw	0xd

	global	__powers_
psect	strings
	file	"C:\Program Files (x86)\HI-TECH Software\PICC\9.82\sources\powers.c"
	line	7
__powers_:
	retlw	0x0
	retlw	0x80
	retlw	0x3f

	retlw	0x0
	retlw	0x20
	retlw	0x41

	retlw	0x0
	retlw	0xc8
	retlw	0x42

	retlw	0x0
	retlw	0x7a
	retlw	0x44

	retlw	0x40
	retlw	0x1c
	retlw	0x46

	retlw	0x50
	retlw	0xc3
	retlw	0x47

	retlw	0x24
	retlw	0x74
	retlw	0x49

	retlw	0x97
	retlw	0x18
	retlw	0x4b

	retlw	0xbc
	retlw	0xbe
	retlw	0x4c

	retlw	0x6b
	retlw	0x6e
	retlw	0x4e

	retlw	0x3
	retlw	0x15
	retlw	0x50

	retlw	0x79
	retlw	0xad
	retlw	0x60

	retlw	0xf3
	retlw	0x49
	retlw	0x71

	global	_dpowers
psect	strings
	file	"C:\Program Files (x86)\HI-TECH Software\PICC\9.82\lib\doprnt.c"
	line	350
_dpowers:
	retlw	01h
	retlw	0
	retlw	0
	retlw	0

	retlw	0Ah
	retlw	0
	retlw	0
	retlw	0

	retlw	064h
	retlw	0
	retlw	0
	retlw	0

	retlw	0E8h
	retlw	03h
	retlw	0
	retlw	0

	retlw	010h
	retlw	027h
	retlw	0
	retlw	0

	retlw	0A0h
	retlw	086h
	retlw	01h
	retlw	0

	retlw	040h
	retlw	042h
	retlw	0Fh
	retlw	0

	retlw	080h
	retlw	096h
	retlw	098h
	retlw	0

	retlw	0
	retlw	0E1h
	retlw	0F5h
	retlw	05h

	retlw	0
	retlw	0CAh
	retlw	09Ah
	retlw	03Bh

	global	__npowers_
	global	__powers_
	global	_dpowers
	global	_num
	global	_carac
	global	_ADCON0
_ADCON0	set	31
	global	_ADRESH
_ADRESH	set	30
	global	_PORTD
_PORTD	set	8
	global	_RCSTA
_RCSTA	set	24
	global	_TMR0
_TMR0	set	1
	global	_GO_DONE
_GO_DONE	set	249
	global	_RC0
_RC0	set	56
	global	_RC3
_RC3	set	59
	global	_RC4
_RC4	set	60
	global	_T0IF
_T0IF	set	90
	global	_ADCON1
_ADCON1	set	159
	global	_ADRESL
_ADRESL	set	158
	global	_OPTION_REG
_OPTION_REG	set	129
	global	_SPBRG
_SPBRG	set	153
	global	_TRISA
_TRISA	set	133
	global	_TRISC
_TRISC	set	135
	global	_TRISD
_TRISD	set	136
	global	_TRISE
_TRISE	set	137
	global	_TXSTA
_TXSTA	set	152
	global	_TRISC6
_TRISC6	set	1086
	global	_TRISC7
_TRISC7	set	1087
	global	_ANSEL
_ANSEL	set	392
	global	_ANSELH
_ANSELH	set	393
	global	_BAUDCTL
_BAUDCTL	set	391
	
STR_1:	
	retlw	37	;'%'
	retlw	49	;'1'
	retlw	46	;'.'
	retlw	51	;'3'
	retlw	102	;'f'
	retlw	0
psect	strings
	
STR_2:	
	retlw	53	;'5'
	retlw	58	;':'
	retlw	0
psect	strings
	
STR_4:	
	retlw	54	;'6'
	retlw	58	;':'
	retlw	0
psect	strings
	
STR_6:	
	retlw	55	;'7'
	retlw	58	;':'
	retlw	0
psect	strings
STR_3	equ	STR_1+0
STR_5	equ	STR_1+0
	file	"LCD1.as"
	line	#
psect cinit,class=CODE,delta=2
global start_initialization
start_initialization:

psect	bssBANK0,class=BANK0,space=1
global __pbssBANK0
__pbssBANK0:
_num:
       ds      3

_carac:
       ds      5

; Clear objects allocated to BANK0
psect cinit,class=CODE,delta=2
	clrf	((__pbssBANK0)+0)&07Fh
	clrf	((__pbssBANK0)+1)&07Fh
	clrf	((__pbssBANK0)+2)&07Fh
	clrf	((__pbssBANK0)+3)&07Fh
	clrf	((__pbssBANK0)+4)&07Fh
	clrf	((__pbssBANK0)+5)&07Fh
	clrf	((__pbssBANK0)+6)&07Fh
	clrf	((__pbssBANK0)+7)&07Fh
psect cinit,class=CODE,delta=2
global end_of_initialization

;End of C runtime variable initialization code

end_of_initialization:
clrf status
ljmp _main	;jump to C main() function
psect	cstackBANK1,class=BANK1,space=1
global __pcstackBANK1
__pcstackBANK1:
	global	_sprintf$1901
_sprintf$1901:	; 4 bytes @ 0x0
	ds	4
	global	sprintf@ap
sprintf@ap:	; 1 bytes @ 0x4
	ds	1
	global	sprintf@integ
sprintf@integ:	; 3 bytes @ 0x5
	ds	3
	global	sprintf@_val
sprintf@_val:	; 4 bytes @ 0x8
	ds	4
	global	sprintf@flag
sprintf@flag:	; 2 bytes @ 0xC
	ds	2
	global	sprintf@width
sprintf@width:	; 2 bytes @ 0xE
	ds	2
	global	sprintf@exp
sprintf@exp:	; 2 bytes @ 0x10
	ds	2
	global	sprintf@sp
sprintf@sp:	; 1 bytes @ 0x12
	ds	1
	global	sprintf@fval
sprintf@fval:	; 3 bytes @ 0x13
	ds	3
	global	sprintf@prec
sprintf@prec:	; 2 bytes @ 0x16
	ds	2
	global	sprintf@c
sprintf@c:	; 1 bytes @ 0x18
	ds	1
psect	cstackCOMMON,class=COMMON,space=1
global __pcstackCOMMON
__pcstackCOMMON:
	global	?_lcd_init
?_lcd_init:	; 0 bytes @ 0x0
	global	?_lcd_clear
?_lcd_clear:	; 0 bytes @ 0x0
	global	?_init_comms
?_init_comms:	; 0 bytes @ 0x0
	global	??_init_comms
??_init_comms:	; 0 bytes @ 0x0
	global	?_lcd_goto
?_lcd_goto:	; 0 bytes @ 0x0
	global	?_pause
?_pause:	; 0 bytes @ 0x0
	global	?_msecbase
?_msecbase:	; 0 bytes @ 0x0
	global	??_msecbase
??_msecbase:	; 0 bytes @ 0x0
	global	?_isdigit
?_isdigit:	; 1 bit 
	global	??_isdigit
??_isdigit:	; 0 bytes @ 0x0
	global	?_main
?_main:	; 0 bytes @ 0x0
	global	?_lcd_write
?_lcd_write:	; 0 bytes @ 0x0
	global	?___ftge
?___ftge:	; 1 bit 
	global	?___lbmod
?___lbmod:	; 1 bytes @ 0x0
	global	?___wmul
?___wmul:	; 2 bytes @ 0x0
	global	?___awmod
?___awmod:	; 2 bytes @ 0x0
	global	?___ftpack
?___ftpack:	; 3 bytes @ 0x0
	global	?___ftneg
?___ftneg:	; 3 bytes @ 0x0
	global	?__tdiv_to_l_
?__tdiv_to_l_:	; 4 bytes @ 0x0
	global	?__div_to_l_
?__div_to_l_:	; 4 bytes @ 0x0
	global	?___lldiv
?___lldiv:	; 4 bytes @ 0x0
	global	_isdigit$2409
_isdigit$2409:	; 1 bytes @ 0x0
	global	___lbmod@divisor
___lbmod@divisor:	; 1 bytes @ 0x0
	global	pause@usvalue
pause@usvalue:	; 2 bytes @ 0x0
	global	___wmul@multiplier
___wmul@multiplier:	; 2 bytes @ 0x0
	global	___awmod@divisor
___awmod@divisor:	; 2 bytes @ 0x0
	global	___ftneg@f1
___ftneg@f1:	; 3 bytes @ 0x0
	global	___ftge@ff1
___ftge@ff1:	; 3 bytes @ 0x0
	global	__tdiv_to_l_@f1
__tdiv_to_l_@f1:	; 3 bytes @ 0x0
	global	__div_to_l_@f1
__div_to_l_@f1:	; 3 bytes @ 0x0
	global	___ftpack@arg
___ftpack@arg:	; 3 bytes @ 0x0
	global	___lldiv@divisor
___lldiv@divisor:	; 4 bytes @ 0x0
	ds	1
	global	??___lbmod
??___lbmod:	; 0 bytes @ 0x1
	global	isdigit@c
isdigit@c:	; 1 bytes @ 0x1
	ds	1
	global	??_pause
??_pause:	; 0 bytes @ 0x2
	global	___lbmod@dividend
___lbmod@dividend:	; 1 bytes @ 0x2
	global	pause@x
pause@x:	; 2 bytes @ 0x2
	global	___wmul@multiplicand
___wmul@multiplicand:	; 2 bytes @ 0x2
	global	___awmod@dividend
___awmod@dividend:	; 2 bytes @ 0x2
	ds	1
	global	??___ftneg
??___ftneg:	; 0 bytes @ 0x3
	global	___lbmod@counter
___lbmod@counter:	; 1 bytes @ 0x3
	global	___ftpack@exp
___ftpack@exp:	; 1 bytes @ 0x3
	global	___ftge@ff2
___ftge@ff2:	; 3 bytes @ 0x3
	global	__tdiv_to_l_@f2
__tdiv_to_l_@f2:	; 3 bytes @ 0x3
	global	__div_to_l_@f2
__div_to_l_@f2:	; 3 bytes @ 0x3
	ds	1
	global	??_lcd_write
??_lcd_write:	; 0 bytes @ 0x4
	global	??___wmul
??___wmul:	; 0 bytes @ 0x4
	global	??___awmod
??___awmod:	; 0 bytes @ 0x4
	global	lcd_write@c
lcd_write@c:	; 1 bytes @ 0x4
	global	___lbmod@rem
___lbmod@rem:	; 1 bytes @ 0x4
	global	___awmod@counter
___awmod@counter:	; 1 bytes @ 0x4
	global	___ftpack@sign
___ftpack@sign:	; 1 bytes @ 0x4
	global	___wmul@product
___wmul@product:	; 2 bytes @ 0x4
	global	___lldiv@dividend
___lldiv@dividend:	; 4 bytes @ 0x4
	ds	1
	global	??_lcd_init
??_lcd_init:	; 0 bytes @ 0x5
	global	??_lcd_clear
??_lcd_clear:	; 0 bytes @ 0x5
	global	??_lcd_goto
??_lcd_goto:	; 0 bytes @ 0x5
	global	?_lcd_puts
?_lcd_puts:	; 0 bytes @ 0x5
	global	??___ftpack
??___ftpack:	; 0 bytes @ 0x5
	global	?___lbdiv
?___lbdiv:	; 1 bytes @ 0x5
	global	lcd_goto@pos
lcd_goto@pos:	; 1 bytes @ 0x5
	global	___lbdiv@divisor
___lbdiv@divisor:	; 1 bytes @ 0x5
	global	___awmod@sign
___awmod@sign:	; 1 bytes @ 0x5
	global	lcd_puts@s
lcd_puts@s:	; 2 bytes @ 0x5
	ds	1
	global	??__tdiv_to_l_
??__tdiv_to_l_:	; 0 bytes @ 0x6
	global	??__div_to_l_
??__div_to_l_:	; 0 bytes @ 0x6
	global	??___lbdiv
??___lbdiv:	; 0 bytes @ 0x6
	global	??___ftge
??___ftge:	; 0 bytes @ 0x6
	global	?___awdiv
?___awdiv:	; 2 bytes @ 0x6
	global	___lbdiv@dividend
___lbdiv@dividend:	; 1 bytes @ 0x6
	global	___awdiv@divisor
___awdiv@divisor:	; 2 bytes @ 0x6
	ds	1
	global	??_lcd_puts
??_lcd_puts:	; 0 bytes @ 0x7
	global	___lbdiv@counter
___lbdiv@counter:	; 1 bytes @ 0x7
	ds	1
	global	??___lldiv
??___lldiv:	; 0 bytes @ 0x8
	global	?___awtoft
?___awtoft:	; 3 bytes @ 0x8
	global	?___lltoft
?___lltoft:	; 3 bytes @ 0x8
	global	___lbdiv@quotient
___lbdiv@quotient:	; 1 bytes @ 0x8
	global	___awtoft@c
___awtoft@c:	; 2 bytes @ 0x8
	global	___awdiv@dividend
___awdiv@dividend:	; 2 bytes @ 0x8
	global	___lldiv@quotient
___lldiv@quotient:	; 4 bytes @ 0x8
	global	___lltoft@c
___lltoft@c:	; 4 bytes @ 0x8
	ds	1
	global	?___bmul
?___bmul:	; 1 bytes @ 0x9
	global	___bmul@multiplicand
___bmul@multiplicand:	; 1 bytes @ 0x9
	ds	1
	global	??___bmul
??___bmul:	; 0 bytes @ 0xA
	global	??___awdiv
??___awdiv:	; 0 bytes @ 0xA
	global	___bmul@product
___bmul@product:	; 1 bytes @ 0xA
	global	___awdiv@counter
___awdiv@counter:	; 1 bytes @ 0xA
	ds	1
	global	??___awtoft
??___awtoft:	; 0 bytes @ 0xB
	global	___bmul@multiplier
___bmul@multiplier:	; 1 bytes @ 0xB
	global	___awtoft@sign
___awtoft@sign:	; 1 bytes @ 0xB
	global	___awdiv@sign
___awdiv@sign:	; 1 bytes @ 0xB
	ds	1
	global	??___lltoft
??___lltoft:	; 0 bytes @ 0xC
	global	___lldiv@counter
___lldiv@counter:	; 1 bytes @ 0xC
	global	___lltoft@exp
___lltoft@exp:	; 1 bytes @ 0xC
	global	___awdiv@quotient
___awdiv@quotient:	; 2 bytes @ 0xC
	ds	1
	global	??___llmod
??___llmod:	; 0 bytes @ 0xD
	global	___llmod@counter
___llmod@counter:	; 1 bytes @ 0xD
	ds	1
	global	??_main
??_main:	; 0 bytes @ 0xE
	global	??_fround
??_fround:	; 0 bytes @ 0xE
	global	??___ftsub
??___ftsub:	; 0 bytes @ 0xE
psect	cstackBANK0,class=BANK0,space=1
global __pcstackBANK0
__pcstackBANK0:
	global	?___fttol
?___fttol:	; 4 bytes @ 0x0
	global	?___llmod
?___llmod:	; 4 bytes @ 0x0
	global	___fttol@f1
___fttol@f1:	; 3 bytes @ 0x0
	global	___llmod@divisor
___llmod@divisor:	; 4 bytes @ 0x0
	global	__tdiv_to_l_@quot
__tdiv_to_l_@quot:	; 4 bytes @ 0x0
	global	__div_to_l_@quot
__div_to_l_@quot:	; 4 bytes @ 0x0
	ds	4
	global	??___fttol
??___fttol:	; 0 bytes @ 0x4
	global	__tdiv_to_l_@cntr
__tdiv_to_l_@cntr:	; 1 bytes @ 0x4
	global	__div_to_l_@cntr
__div_to_l_@cntr:	; 1 bytes @ 0x4
	global	___llmod@dividend
___llmod@dividend:	; 4 bytes @ 0x4
	ds	1
	global	__tdiv_to_l_@exp1
__tdiv_to_l_@exp1:	; 1 bytes @ 0x5
	global	__div_to_l_@exp1
__div_to_l_@exp1:	; 1 bytes @ 0x5
	ds	2
	global	___fttol@sign1
___fttol@sign1:	; 1 bytes @ 0x7
	ds	1
	global	___fttol@lval
___fttol@lval:	; 4 bytes @ 0x8
	ds	4
	global	___fttol@exp1
___fttol@exp1:	; 1 bytes @ 0xC
	ds	1
	global	?___ftmul
?___ftmul:	; 3 bytes @ 0xD
	global	___ftmul@f1
___ftmul@f1:	; 3 bytes @ 0xD
	ds	3
	global	___ftmul@f2
___ftmul@f2:	; 3 bytes @ 0x10
	ds	3
	global	??___ftmul
??___ftmul:	; 0 bytes @ 0x13
	ds	3
	global	___ftmul@exp
___ftmul@exp:	; 1 bytes @ 0x16
	ds	1
	global	___ftmul@f3_as_product
___ftmul@f3_as_product:	; 3 bytes @ 0x17
	ds	3
	global	___ftmul@cntr
___ftmul@cntr:	; 1 bytes @ 0x1A
	ds	1
	global	___ftmul@sign
___ftmul@sign:	; 1 bytes @ 0x1B
	ds	1
	global	?_scale
?_scale:	; 3 bytes @ 0x1C
	global	?___ftadd
?___ftadd:	; 3 bytes @ 0x1C
	global	___ftadd@f1
___ftadd@f1:	; 3 bytes @ 0x1C
	ds	3
	global	??_scale
??_scale:	; 0 bytes @ 0x1F
	global	___ftadd@f2
___ftadd@f2:	; 3 bytes @ 0x1F
	ds	3
	global	??___ftadd
??___ftadd:	; 0 bytes @ 0x22
	ds	1
	global	_scale$2845
_scale$2845:	; 3 bytes @ 0x23
	ds	2
	global	___ftadd@sign
___ftadd@sign:	; 1 bytes @ 0x25
	ds	1
	global	scale@scl
scale@scl:	; 1 bytes @ 0x26
	global	___ftadd@exp2
___ftadd@exp2:	; 1 bytes @ 0x26
	ds	1
	global	___ftadd@exp1
___ftadd@exp1:	; 1 bytes @ 0x27
	ds	1
	global	?_fround
?_fround:	; 3 bytes @ 0x28
	global	?___ftsub
?___ftsub:	; 3 bytes @ 0x28
	global	___ftsub@f2
___ftsub@f2:	; 3 bytes @ 0x28
	ds	3
	global	___ftsub@f1
___ftsub@f1:	; 3 bytes @ 0x2B
	global	_fround$2844
_fround$2844:	; 3 bytes @ 0x2B
	ds	3
	global	_fround$2843
_fround$2843:	; 3 bytes @ 0x2E
	ds	3
	global	fround@prec
fround@prec:	; 1 bytes @ 0x31
	ds	1
	global	?_sprintf
?_sprintf:	; 2 bytes @ 0x32
	global	sprintf@f
sprintf@f:	; 1 bytes @ 0x32
	ds	4
	global	??_sprintf
??_sprintf:	; 0 bytes @ 0x36
	ds	5
;;Data sizes: Strings 15, constant 118, data 0, bss 8, persistent 0 stack 0
;;Auto spaces:   Size  Autos    Used
;; COMMON          14     14      14
;; BANK0           80     59      67
;; BANK1           80     25      25
;; BANK3           96      0       0
;; BANK2           96      0       0

;;
;; Pointer list with targets:

;; ?___ftpack	float  size(1) Largest target is 0
;;
;; ?___lldiv	unsigned long  size(1) Largest target is 0
;;
;; ?___llmod	unsigned long  size(1) Largest target is 0
;;
;; ?___ftsub	float  size(1) Largest target is 0
;;
;; ?___lltoft	float  size(1) Largest target is 0
;;
;; ?__tdiv_to_l_	unsigned long  size(1) Largest target is 0
;;
;; ?__div_to_l_	unsigned long  size(1) Largest target is 0
;;
;; ?___fttol	long  size(1) Largest target is 0
;;
;; ?___ftadd	float  size(1) Largest target is 0
;;
;; ?___ftneg	float  size(1) Largest target is 0
;;
;; ?___awmod	int  size(1) Largest target is 40
;;		 -> dpowers(CODE[40]), 
;;
;; ?___awdiv	int  size(1) Largest target is 0
;;
;; ?_scale	int  size(1) Largest target is 0
;;
;; ?___wmul	unsigned int  size(1) Largest target is 0
;;
;; ?_fround	unsigned int  size(1) Largest target is 0
;;
;; ?___ftmul	float  size(1) Largest target is 0
;;
;; ?___awtoft	float  size(1) Largest target is 0
;;
;; sprintf@f	PTR const unsigned char  size(1) Largest target is 6
;;		 -> STR_5(CODE[6]), STR_3(CODE[6]), STR_1(CODE[6]), 
;;
;; sprintf@sp	PTR unsigned char  size(1) Largest target is 5
;;		 -> carac(BANK0[5]), 
;;
;; ?_sprintf	int  size(1) Largest target is 0
;;
;; sprintf@ap	PTR void [1] size(1) Largest target is 2
;;		 -> ?_sprintf(BANK0[2]), 
;;
;; S1890$_cp	PTR const unsigned char  size(1) Largest target is 0
;;
;; _val._str._cp	PTR const unsigned char  size(1) Largest target is 0
;;
;; lcd_puts@s	PTR const unsigned char  size(2) Largest target is 5
;;		 -> STR_6(CODE[3]), STR_4(CODE[3]), STR_2(CODE[3]), carac(BANK0[5]), 
;;


;;
;; Critical Paths under _main in COMMON
;;
;;   _lcd_init->_lcd_write
;;   _lcd_puts->_lcd_write
;;   _lcd_goto->_lcd_write
;;   _sprintf->___awdiv
;;   _sprintf->__div_to_l_
;;   _sprintf->___llmod
;;   _lcd_clear->_lcd_write
;;   _scale->___awdiv
;;   _lcd_write->_pause
;;   ___lltoft->___ftpack
;;   ___awtoft->___ftpack
;;   ___ftmul->___awdiv
;;   ___llmod->___lldiv
;;   ___awdiv->___awmod
;;   ___fttol->___awdiv
;;   ___lbdiv->___lbmod
;;   ___bmul->___lbdiv
;;
;; Critical Paths under _main in BANK0
;;
;;   _main->_sprintf
;;   _sprintf->_fround
;;   ___ftsub->___ftadd
;;   _scale->___ftmul
;;   _fround->___ftadd
;;   ___ftmul->___fttol
;;   ___ftadd->___ftmul
;;
;; Critical Paths under _main in BANK1
;;
;;   _main->_sprintf
;;
;; Critical Paths under _main in BANK3
;;
;;   None.
;;
;; Critical Paths under _main in BANK2
;;
;;   None.

;;
;;Main: autosize = 0, tempsize = 0, incstack = 0, save=0
;;

;;
;;Call Graph Tables:
;;
;; ---------------------------------------------------------------------------------
;; (Depth) Function   	        Calls       Base Space   Used Autos Params    Refs
;; ---------------------------------------------------------------------------------
;; (0) _main                                                 1     1      0   11701
;;                           _lcd_init
;;                          _lcd_clear
;;                         _init_comms
;;                           ___awtoft
;;                            ___ftmul
;;                            _sprintf
;;                           _lcd_goto
;;                           _lcd_puts
;;                              _pause
;; ---------------------------------------------------------------------------------
;; (1) _lcd_init                                             1     1      0     295
;;                                              5 COMMON     1     1      0
;;                              _pause
;;                          _lcd_write
;;                          _lcd_clear
;; ---------------------------------------------------------------------------------
;; (1) _lcd_puts                                             2     0      2     135
;;                                              5 COMMON     2     0      2
;;                          _lcd_write
;; ---------------------------------------------------------------------------------
;; (1) _lcd_goto                                             1     1      0     112
;;                                              5 COMMON     1     1      0
;;                          _lcd_write
;; ---------------------------------------------------------------------------------
;; (1) _sprintf                                             38    34      4   10142
;;                                             50 BANK0      9     5      4
;;                                              0 BANK1     25    25      0
;;                            _isdigit
;;                             ___wmul
;;                             ___ftge
;;                            ___ftneg
;;                            ___awdiv
;;                              _scale
;;                            ___ftmul
;;                             _fround
;;                            ___ftadd
;;                            ___fttol
;;                         __div_to_l_
;;                        __tdiv_to_l_
;;                           ___lltoft
;;                            ___ftsub
;;                            ___lldiv
;;                            ___llmod
;; ---------------------------------------------------------------------------------
;; (1) _lcd_clear                                            0     0      0     136
;;                          _lcd_write
;;                              _pause
;; ---------------------------------------------------------------------------------
;; (2) ___ftsub                                              6     0      6    1094
;;                                             40 BANK0      6     0      6
;;                            ___ftadd
;;                           ___lltoft (ARG)
;; ---------------------------------------------------------------------------------
;; (2) _scale                                               14    11      3    1688
;;                                             28 BANK0     11     8      3
;;                            ___awmod
;;                            ___awdiv
;;                            ___ftmul
;;                             ___bmul
;;                            ___fttol (ARG)
;; ---------------------------------------------------------------------------------
;; (2) _fround                                              13    10      3    1215
;;                                             40 BANK0     10     7      3
;;                            ___lbmod
;;                             ___bmul
;;                            ___lbdiv
;;                            ___ftmul
;;                            ___ftadd (ARG)
;; ---------------------------------------------------------------------------------
;; (2) _lcd_write                                            1     1      0      90
;;                                              4 COMMON     1     1      0
;;                              _pause
;; ---------------------------------------------------------------------------------
;; (2) ___lltoft                                             5     1      4     278
;;                                              8 COMMON     5     1      4
;;                           ___ftpack
;; ---------------------------------------------------------------------------------
;; (1) ___awtoft                                             4     1      3     300
;;                                              8 COMMON     4     1      3
;;                           ___ftpack
;; ---------------------------------------------------------------------------------
;; (3) ___ftmul                                             15     9      6     535
;;                                             13 BANK0     15     9      6
;;                           ___ftpack
;;                            ___fttol (ARG)
;;                            ___awdiv (ARG)
;;                            ___awmod (ARG)
;;                             ___bmul (ARG)
;;                            ___lbdiv (ARG)
;;                            ___lbmod (ARG)
;; ---------------------------------------------------------------------------------
;; (3) ___ftadd                                             12     6      6    1049
;;                                             28 BANK0     12     6      6
;;                           ___ftpack
;;                            ___lbmod (ARG)
;;                             ___bmul (ARG)
;;                            ___lbdiv (ARG)
;;                            ___ftmul (ARG)
;; ---------------------------------------------------------------------------------
;; (1) _pause                                                4     2      2      46
;;                                              0 COMMON     4     2      2
;;                           _msecbase
;; ---------------------------------------------------------------------------------
;; (3) ___awmod                                              6     2      4     296
;;                                              0 COMMON     6     2      4
;; ---------------------------------------------------------------------------------
;; (2) ___lldiv                                             13     5      8     162
;;                                              0 COMMON    13     5      8
;; ---------------------------------------------------------------------------------
;; (2) ___ftge                                               6     0      6     136
;;                                              0 COMMON     6     0      6
;; ---------------------------------------------------------------------------------
;; (2) ___ftneg                                              3     0      3      45
;;                                              0 COMMON     3     0      3
;; ---------------------------------------------------------------------------------
;; (2) ___llmod                                              9     1      8     159
;;                                             13 COMMON     1     1      0
;;                                              0 BANK0      8     0      8
;;                            ___lldiv (ARG)
;; ---------------------------------------------------------------------------------
;; (3) ___awdiv                                              8     4      4     300
;;                                              6 COMMON     8     4      4
;;                            ___awmod (ARG)
;; ---------------------------------------------------------------------------------
;; (2) ___fttol                                             13     9      4     252
;;                                              0 BANK0     13     9      4
;;                           ___ftpack (ARG)
;;                            ___awmod (ARG)
;;                            ___awdiv (ARG)
;;                             ___bmul (ARG)
;; ---------------------------------------------------------------------------------
;; (4) ___ftpack                                             8     3      5     209
;;                                              0 COMMON     8     3      5
;; ---------------------------------------------------------------------------------
;; (3) ___lbmod                                              5     4      1     159
;;                                              0 COMMON     5     4      1
;; ---------------------------------------------------------------------------------
;; (3) ___lbdiv                                              4     3      1     162
;;                                              5 COMMON     4     3      1
;;                            ___lbmod (ARG)
;; ---------------------------------------------------------------------------------
;; (2) ___wmul                                               6     2      4      92
;;                                              0 COMMON     6     2      4
;; ---------------------------------------------------------------------------------
;; (3) ___bmul                                               3     2      1      68
;;                                              9 COMMON     3     2      1
;;                            ___lbmod (ARG)
;;                            ___lbdiv (ARG)
;; ---------------------------------------------------------------------------------
;; (2) __div_to_l_                                          20    14      6     446
;;                                              0 COMMON    14     8      6
;;                                              0 BANK0      6     6      0
;; ---------------------------------------------------------------------------------
;; (2) __tdiv_to_l_                                         15     9      6     303
;;                                              0 COMMON     9     3      6
;;                                              0 BANK0      6     6      0
;; ---------------------------------------------------------------------------------
;; (2) _isdigit                                              2     2      0      68
;;                                              0 COMMON     2     2      0
;; ---------------------------------------------------------------------------------
;; (2) _msecbase                                             0     0      0       0
;; ---------------------------------------------------------------------------------
;; (1) _init_comms                                           0     0      0       0
;; ---------------------------------------------------------------------------------
;; Estimated maximum stack depth 4
;; ---------------------------------------------------------------------------------

;; Call Graph Graphs:

;; _main (ROOT)
;;   _lcd_init
;;     _pause
;;       _msecbase
;;     _lcd_write
;;       _pause
;;         _msecbase
;;     _lcd_clear
;;       _lcd_write
;;         _pause
;;           _msecbase
;;       _pause
;;         _msecbase
;;   _lcd_clear
;;     _lcd_write
;;       _pause
;;         _msecbase
;;     _pause
;;       _msecbase
;;   _init_comms
;;   ___awtoft
;;     ___ftpack
;;   ___ftmul
;;     ___ftpack
;;     ___fttol (ARG)
;;       ___ftpack (ARG)
;;       ___awmod (ARG)
;;       ___awdiv (ARG)
;;         ___awmod (ARG)
;;       ___bmul (ARG)
;;         ___lbmod (ARG)
;;         ___lbdiv (ARG)
;;           ___lbmod (ARG)
;;     ___awdiv (ARG)
;;       ___awmod (ARG)
;;     ___awmod (ARG)
;;     ___bmul (ARG)
;;       ___lbmod (ARG)
;;       ___lbdiv (ARG)
;;         ___lbmod (ARG)
;;     ___lbdiv (ARG)
;;       ___lbmod (ARG)
;;     ___lbmod (ARG)
;;   _sprintf
;;     _isdigit
;;     ___wmul
;;     ___ftge
;;     ___ftneg
;;     ___awdiv
;;       ___awmod (ARG)
;;     _scale
;;       ___awmod
;;       ___awdiv
;;         ___awmod (ARG)
;;       ___ftmul
;;         ___ftpack
;;         ___fttol (ARG)
;;           ___ftpack (ARG)
;;           ___awmod (ARG)
;;           ___awdiv (ARG)
;;             ___awmod (ARG)
;;           ___bmul (ARG)
;;             ___lbmod (ARG)
;;             ___lbdiv (ARG)
;;               ___lbmod (ARG)
;;         ___awdiv (ARG)
;;           ___awmod (ARG)
;;         ___awmod (ARG)
;;         ___bmul (ARG)
;;           ___lbmod (ARG)
;;           ___lbdiv (ARG)
;;             ___lbmod (ARG)
;;         ___lbdiv (ARG)
;;           ___lbmod (ARG)
;;         ___lbmod (ARG)
;;       ___bmul
;;         ___lbmod (ARG)
;;         ___lbdiv (ARG)
;;           ___lbmod (ARG)
;;       ___fttol (ARG)
;;         ___ftpack (ARG)
;;         ___awmod (ARG)
;;         ___awdiv (ARG)
;;           ___awmod (ARG)
;;         ___bmul (ARG)
;;           ___lbmod (ARG)
;;           ___lbdiv (ARG)
;;             ___lbmod (ARG)
;;     ___ftmul
;;       ___ftpack
;;       ___fttol (ARG)
;;         ___ftpack (ARG)
;;         ___awmod (ARG)
;;         ___awdiv (ARG)
;;           ___awmod (ARG)
;;         ___bmul (ARG)
;;           ___lbmod (ARG)
;;           ___lbdiv (ARG)
;;             ___lbmod (ARG)
;;       ___awdiv (ARG)
;;         ___awmod (ARG)
;;       ___awmod (ARG)
;;       ___bmul (ARG)
;;         ___lbmod (ARG)
;;         ___lbdiv (ARG)
;;           ___lbmod (ARG)
;;       ___lbdiv (ARG)
;;         ___lbmod (ARG)
;;       ___lbmod (ARG)
;;     _fround
;;       ___lbmod
;;       ___bmul
;;         ___lbmod (ARG)
;;         ___lbdiv (ARG)
;;           ___lbmod (ARG)
;;       ___lbdiv
;;         ___lbmod (ARG)
;;       ___ftmul
;;         ___ftpack
;;         ___fttol (ARG)
;;           ___ftpack (ARG)
;;           ___awmod (ARG)
;;           ___awdiv (ARG)
;;             ___awmod (ARG)
;;           ___bmul (ARG)
;;             ___lbmod (ARG)
;;             ___lbdiv (ARG)
;;               ___lbmod (ARG)
;;         ___awdiv (ARG)
;;           ___awmod (ARG)
;;         ___awmod (ARG)
;;         ___bmul (ARG)
;;           ___lbmod (ARG)
;;           ___lbdiv (ARG)
;;             ___lbmod (ARG)
;;         ___lbdiv (ARG)
;;           ___lbmod (ARG)
;;         ___lbmod (ARG)
;;       ___ftadd (ARG)
;;         ___ftpack
;;         ___lbmod (ARG)
;;         ___bmul (ARG)
;;           ___lbmod (ARG)
;;           ___lbdiv (ARG)
;;             ___lbmod (ARG)
;;         ___lbdiv (ARG)
;;           ___lbmod (ARG)
;;         ___ftmul (ARG)
;;           ___ftpack
;;           ___fttol (ARG)
;;             ___ftpack (ARG)
;;             ___awmod (ARG)
;;             ___awdiv (ARG)
;;               ___awmod (ARG)
;;             ___bmul (ARG)
;;               ___lbmod (ARG)
;;               ___lbdiv (ARG)
;;                 ___lbmod (ARG)
;;           ___awdiv (ARG)
;;             ___awmod (ARG)
;;           ___awmod (ARG)
;;           ___bmul (ARG)
;;             ___lbmod (ARG)
;;             ___lbdiv (ARG)
;;               ___lbmod (ARG)
;;           ___lbdiv (ARG)
;;             ___lbmod (ARG)
;;           ___lbmod (ARG)
;;     ___ftadd
;;       ___ftpack
;;       ___lbmod (ARG)
;;       ___bmul (ARG)
;;         ___lbmod (ARG)
;;         ___lbdiv (ARG)
;;           ___lbmod (ARG)
;;       ___lbdiv (ARG)
;;         ___lbmod (ARG)
;;       ___ftmul (ARG)
;;         ___ftpack
;;         ___fttol (ARG)
;;           ___ftpack (ARG)
;;           ___awmod (ARG)
;;           ___awdiv (ARG)
;;             ___awmod (ARG)
;;           ___bmul (ARG)
;;             ___lbmod (ARG)
;;             ___lbdiv (ARG)
;;               ___lbmod (ARG)
;;         ___awdiv (ARG)
;;           ___awmod (ARG)
;;         ___awmod (ARG)
;;         ___bmul (ARG)
;;           ___lbmod (ARG)
;;           ___lbdiv (ARG)
;;             ___lbmod (ARG)
;;         ___lbdiv (ARG)
;;           ___lbmod (ARG)
;;         ___lbmod (ARG)
;;     ___fttol
;;       ___ftpack (ARG)
;;       ___awmod (ARG)
;;       ___awdiv (ARG)
;;         ___awmod (ARG)
;;       ___bmul (ARG)
;;         ___lbmod (ARG)
;;         ___lbdiv (ARG)
;;           ___lbmod (ARG)
;;     __div_to_l_
;;     __tdiv_to_l_
;;     ___lltoft
;;       ___ftpack
;;     ___ftsub
;;       ___ftadd
;;         ___ftpack
;;         ___lbmod (ARG)
;;         ___bmul (ARG)
;;           ___lbmod (ARG)
;;           ___lbdiv (ARG)
;;             ___lbmod (ARG)
;;         ___lbdiv (ARG)
;;           ___lbmod (ARG)
;;         ___ftmul (ARG)
;;           ___ftpack
;;           ___fttol (ARG)
;;             ___ftpack (ARG)
;;             ___awmod (ARG)
;;             ___awdiv (ARG)
;;               ___awmod (ARG)
;;             ___bmul (ARG)
;;               ___lbmod (ARG)
;;               ___lbdiv (ARG)
;;                 ___lbmod (ARG)
;;           ___awdiv (ARG)
;;             ___awmod (ARG)
;;           ___awmod (ARG)
;;           ___bmul (ARG)
;;             ___lbmod (ARG)
;;             ___lbdiv (ARG)
;;               ___lbmod (ARG)
;;           ___lbdiv (ARG)
;;             ___lbmod (ARG)
;;           ___lbmod (ARG)
;;       ___lltoft (ARG)
;;         ___ftpack
;;     ___lldiv
;;     ___llmod
;;       ___lldiv (ARG)
;;   _lcd_goto
;;     _lcd_write
;;       _pause
;;         _msecbase
;;   _lcd_puts
;;     _lcd_write
;;       _pause
;;         _msecbase
;;   _pause
;;     _msecbase
;;

;; Address spaces:

;;Name               Size   Autos  Total    Cost      Usage
;;BITCOMMON            E      0       0       0        0.0%
;;EEDATA             100      0       0       0        0.0%
;;NULL                 0      0       0       0        0.0%
;;CODE                 0      0       0       0        0.0%
;;COMMON               E      E       E       1      100.0%
;;BITSFR0              0      0       0       1        0.0%
;;SFR0                 0      0       0       1        0.0%
;;BITSFR1              0      0       0       2        0.0%
;;SFR1                 0      0       0       2        0.0%
;;STACK                0      0       5       2        0.0%
;;ABS                  0      0      6A       3        0.0%
;;BITBANK0            50      0       0       4        0.0%
;;BITSFR3              0      0       0       4        0.0%
;;SFR3                 0      0       0       4        0.0%
;;BANK0               50     3B      43       5       83.8%
;;BITSFR2              0      0       0       5        0.0%
;;SFR2                 0      0       0       5        0.0%
;;BITBANK1            50      0       0       6        0.0%
;;BANK1               50     19      19       7       31.3%
;;BITBANK3            60      0       0       8        0.0%
;;BANK3               60      0       0       9        0.0%
;;BITBANK2            60      0       0      10        0.0%
;;BANK2               60      0       0      11        0.0%
;;DATA                 0      0      6F      12        0.0%

	global	_main
psect	maintext,global,class=CODE,delta=2
global __pmaintext
__pmaintext:

;; *************** function _main *****************
;; Defined at:
;;		line 41 in file "C:\Users\Jorge\OneDrive\Escritorio\Microcontroladores\Proyectos\LCD1\LCD1.c"
;; Parameters:    Size  Location     Type
;;		None
;; Auto vars:     Size  Location     Type
;;  input           1    0        unsigned char 
;; Return value:  Size  Location     Type
;;		None               void
;; Registers used:
;;		wreg, fsr0l, fsr0h, status,2, status,0, btemp+1, pclath, cstack
;; Tracked objects:
;;		On entry : 17F/0
;;		On exit  : 0/0
;;		Unchanged: FFE00/0
;; Data sizes:     COMMON   BANK0   BANK1   BANK3   BANK2
;;      Params:         0       0       0       0       0
;;      Locals:         0       0       0       0       0
;;      Temps:          0       0       0       0       0
;;      Totals:         0       0       0       0       0
;;Total ram usage:        0 bytes
;; Hardware stack levels required when called:    5
;; This function calls:
;;		_lcd_init
;;		_lcd_clear
;;		_init_comms
;;		___awtoft
;;		___ftmul
;;		_sprintf
;;		_lcd_goto
;;		_lcd_puts
;;		_pause
;; This function is called by:
;;		Startup code after reset
;; This function uses a non-reentrant model
;;
psect	maintext
	file	"C:\Users\Jorge\OneDrive\Escritorio\Microcontroladores\Proyectos\LCD1\LCD1.c"
	line	41
	global	__size_of_main
	__size_of_main	equ	__end_of_main-_main
	
_main:	
	opt	stack 3
; Regs used in _main: [wreg-fsr0h+status,2+status,0+btemp+1+pclath+cstack]
	line	45
	
l5719:	
;LCD1.c: 43: unsigned char input;
;LCD1.c: 45: ANSEL = 0x00;
	bsf	status, 5	;RP0=1, select bank3
	bsf	status, 6	;RP1=1, select bank3
	clrf	(392)^0180h	;volatile
	line	46
;LCD1.c: 46: ANSELH = 0x00;
	clrf	(393)^0180h	;volatile
	line	47
;LCD1.c: 47: TRISA= 0x00;
	bcf	status, 6	;RP1=0, select bank1
	clrf	(133)^080h	;volatile
	line	48
;LCD1.c: 48: TRISC = 0x00;
	clrf	(135)^080h	;volatile
	line	49
	
l5721:	
;LCD1.c: 49: TRISD = 0x0F;
	movlw	(0Fh)
	movwf	(136)^080h	;volatile
	line	50
	
l5723:	
;LCD1.c: 50: TRISE = 0x07;
	movlw	(07h)
	movwf	(137)^080h	;volatile
	line	51
	
l5725:	
;LCD1.c: 51: ADCON1 = 0x80;
	movlw	(080h)
	movwf	(159)^080h	;volatile
	line	53
	
l5727:	
;LCD1.c: 53: lcd_init();
	fcall	_lcd_init
	line	54
	
l5729:	
;LCD1.c: 54: lcd_clear();
	fcall	_lcd_clear
	line	56
	
l5731:	
;LCD1.c: 56: init_comms();
	fcall	_init_comms
	line	60
	
l5733:	
;LCD1.c: 59: {
;LCD1.c: 60: ADCON0 = 0xD5;
	movlw	(0D5h)
	bcf	status, 5	;RP0=0, select bank0
	bcf	status, 6	;RP1=0, select bank0
	movwf	(31)	;volatile
	line	61
	
l5735:	
;LCD1.c: 61: GO_DONE = 1;
	bsf	(249/8),(249)&7
	line	62
;LCD1.c: 62: while(GO_DONE);
	
l1046:	
	btfsc	(249/8),(249)&7
	goto	u3161
	goto	u3160
u3161:
	goto	l1046
u3160:
	line	63
	
l5737:	
;LCD1.c: 63: num = (ADRESH << 8)|ADRESL;
	movf	(30),w	;volatile
	movwf	(?___awtoft+1)
	clrf	(?___awtoft)
	bsf	status, 5	;RP0=1, select bank1
	movf	(158)^080h,w	;volatile
	iorwf	(?___awtoft),f
	fcall	___awtoft
	movf	(0+(?___awtoft)),w
	bcf	status, 5	;RP0=0, select bank0
	movwf	(_num)
	movf	(1+(?___awtoft)),w
	movwf	(_num+1)
	movf	(2+(?___awtoft)),w
	movwf	(_num+2)
	line	64
;LCD1.c: 64: num = num*0.0048875855327468;
	movlw	0x28
	movwf	(?___ftmul)
	movlw	0xa0
	movwf	(?___ftmul+1)
	movlw	0x3b
	movwf	(?___ftmul+2)
	movf	(_num),w
	movwf	0+(?___ftmul)+03h
	movf	(_num+1),w
	movwf	1+(?___ftmul)+03h
	movf	(_num+2),w
	movwf	2+(?___ftmul)+03h
	fcall	___ftmul
	movf	(0+(?___ftmul)),w
	movwf	(_num)
	movf	(1+(?___ftmul)),w
	movwf	(_num+1)
	movf	(2+(?___ftmul)),w
	movwf	(_num+2)
	line	65
	
l5739:	
;LCD1.c: 65: sprintf(carac, "%1.3f",num);
	movlw	((STR_1-__stringbase))&0ffh
	movwf	(?_sprintf)
	movf	(_num),w
	movwf	0+(?_sprintf)+01h
	movf	(_num+1),w
	movwf	1+(?_sprintf)+01h
	movf	(_num+2),w
	movwf	2+(?_sprintf)+01h
	movlw	(_carac)&0ffh
	fcall	_sprintf
	line	67
	
l5741:	
;LCD1.c: 67: lcd_goto(0x00);
	movlw	(0)
	fcall	_lcd_goto
	line	68
;LCD1.c: 68: lcd_puts("5:");
	movlw	low((STR_2-__stringbase))
	movwf	(?_lcd_puts)
	movlw	80h
	movwf	(?_lcd_puts+1)
	fcall	_lcd_puts
	line	69
;LCD1.c: 69: lcd_puts(carac);
	movlw	(_carac&0ffh)
	movwf	(?_lcd_puts)
	movlw	(0x0/2)
	movwf	(?_lcd_puts+1)
	fcall	_lcd_puts
	line	72
	
l5743:	
;LCD1.c: 72: ADCON0 = 0xD9;
	movlw	(0D9h)
	movwf	(31)	;volatile
	line	73
	
l5745:	
;LCD1.c: 73: GO_DONE = 1;
	bsf	(249/8),(249)&7
	line	74
;LCD1.c: 74: while(GO_DONE);
	
l1049:	
	btfsc	(249/8),(249)&7
	goto	u3171
	goto	u3170
u3171:
	goto	l1049
u3170:
	line	75
	
l5747:	
;LCD1.c: 75: num= (ADRESH<< 8)|ADRESL;
	movf	(30),w	;volatile
	movwf	(?___awtoft+1)
	clrf	(?___awtoft)
	bsf	status, 5	;RP0=1, select bank1
	movf	(158)^080h,w	;volatile
	iorwf	(?___awtoft),f
	fcall	___awtoft
	movf	(0+(?___awtoft)),w
	bcf	status, 5	;RP0=0, select bank0
	movwf	(_num)
	movf	(1+(?___awtoft)),w
	movwf	(_num+1)
	movf	(2+(?___awtoft)),w
	movwf	(_num+2)
	line	76
;LCD1.c: 76: num = num*0.0048875855327468;
	movlw	0x28
	movwf	(?___ftmul)
	movlw	0xa0
	movwf	(?___ftmul+1)
	movlw	0x3b
	movwf	(?___ftmul+2)
	movf	(_num),w
	movwf	0+(?___ftmul)+03h
	movf	(_num+1),w
	movwf	1+(?___ftmul)+03h
	movf	(_num+2),w
	movwf	2+(?___ftmul)+03h
	fcall	___ftmul
	movf	(0+(?___ftmul)),w
	movwf	(_num)
	movf	(1+(?___ftmul)),w
	movwf	(_num+1)
	movf	(2+(?___ftmul)),w
	movwf	(_num+2)
	line	77
	
l5749:	
;LCD1.c: 77: sprintf(carac,"%1.3f",num);
	movlw	((STR_3-__stringbase))&0ffh
	movwf	(?_sprintf)
	movf	(_num),w
	movwf	0+(?_sprintf)+01h
	movf	(_num+1),w
	movwf	1+(?_sprintf)+01h
	movf	(_num+2),w
	movwf	2+(?_sprintf)+01h
	movlw	(_carac)&0ffh
	fcall	_sprintf
	line	79
	
l5751:	
;LCD1.c: 79: lcd_goto(0x08);
	movlw	(08h)
	fcall	_lcd_goto
	line	80
;LCD1.c: 80: lcd_puts("6:");
	movlw	low((STR_4-__stringbase))
	movwf	(?_lcd_puts)
	movlw	80h
	movwf	(?_lcd_puts+1)
	fcall	_lcd_puts
	line	81
;LCD1.c: 81: lcd_puts(carac);
	movlw	(_carac&0ffh)
	movwf	(?_lcd_puts)
	movlw	(0x0/2)
	movwf	(?_lcd_puts+1)
	fcall	_lcd_puts
	line	83
	
l5753:	
;LCD1.c: 83: ADCON0 = 0xDD;
	movlw	(0DDh)
	movwf	(31)	;volatile
	line	84
	
l5755:	
;LCD1.c: 84: GO_DONE = 1;
	bsf	(249/8),(249)&7
	line	85
;LCD1.c: 85: while(GO_DONE);
	
l1052:	
	btfsc	(249/8),(249)&7
	goto	u3181
	goto	u3180
u3181:
	goto	l1052
u3180:
	line	86
	
l5757:	
;LCD1.c: 86: num= (ADRESH<< 8)|ADRESL;
	movf	(30),w	;volatile
	movwf	(?___awtoft+1)
	clrf	(?___awtoft)
	bsf	status, 5	;RP0=1, select bank1
	movf	(158)^080h,w	;volatile
	iorwf	(?___awtoft),f
	fcall	___awtoft
	movf	(0+(?___awtoft)),w
	bcf	status, 5	;RP0=0, select bank0
	movwf	(_num)
	movf	(1+(?___awtoft)),w
	movwf	(_num+1)
	movf	(2+(?___awtoft)),w
	movwf	(_num+2)
	line	87
;LCD1.c: 87: num = num*0.0048875855327468;
	movlw	0x28
	movwf	(?___ftmul)
	movlw	0xa0
	movwf	(?___ftmul+1)
	movlw	0x3b
	movwf	(?___ftmul+2)
	movf	(_num),w
	movwf	0+(?___ftmul)+03h
	movf	(_num+1),w
	movwf	1+(?___ftmul)+03h
	movf	(_num+2),w
	movwf	2+(?___ftmul)+03h
	fcall	___ftmul
	movf	(0+(?___ftmul)),w
	movwf	(_num)
	movf	(1+(?___ftmul)),w
	movwf	(_num+1)
	movf	(2+(?___ftmul)),w
	movwf	(_num+2)
	line	88
	
l5759:	
;LCD1.c: 88: sprintf(carac, "%1.3f",num);
	movlw	((STR_5-__stringbase))&0ffh
	movwf	(?_sprintf)
	movf	(_num),w
	movwf	0+(?_sprintf)+01h
	movf	(_num+1),w
	movwf	1+(?_sprintf)+01h
	movf	(_num+2),w
	movwf	2+(?_sprintf)+01h
	movlw	(_carac)&0ffh
	fcall	_sprintf
	line	90
	
l5761:	
;LCD1.c: 90: lcd_goto(0x40);
	movlw	(040h)
	fcall	_lcd_goto
	line	91
;LCD1.c: 91: lcd_puts("7:");
	movlw	low((STR_6-__stringbase))
	movwf	(?_lcd_puts)
	movlw	80h
	movwf	(?_lcd_puts+1)
	fcall	_lcd_puts
	line	92
;LCD1.c: 92: lcd_puts(carac);
	movlw	(_carac&0ffh)
	movwf	(?_lcd_puts)
	movlw	(0x0/2)
	movwf	(?_lcd_puts+1)
	fcall	_lcd_puts
	line	94
	
l5763:	
;LCD1.c: 94: pause(1);
	clrf	(?_pause)
	incf	(?_pause),f
	clrf	(?_pause+1)
	fcall	_pause
	goto	l5733
	global	start
	ljmp	start
	opt stack 0
psect	maintext
	line	96
GLOBAL	__end_of_main
	__end_of_main:
;; =============== function _main ends ============

	signat	_main,88
	global	_lcd_init
psect	text521,local,class=CODE,delta=2
global __ptext521
__ptext521:

;; *************** function _lcd_init *****************
;; Defined at:
;;		line 134 in file "C:\Users\Jorge\OneDrive\Escritorio\Microcontroladores\Proyectos\LCD1\LCD1.c"
;; Parameters:    Size  Location     Type
;;		None
;; Auto vars:     Size  Location     Type
;;  init_value      1    0        unsigned char 
;; Return value:  Size  Location     Type
;;		None               void
;; Registers used:
;;		wreg, status,2, status,0, pclath, cstack
;; Tracked objects:
;;		On entry : 17F/20
;;		On exit  : 17F/0
;;		Unchanged: FFE80/0
;; Data sizes:     COMMON   BANK0   BANK1   BANK3   BANK2
;;      Params:         0       0       0       0       0
;;      Locals:         1       0       0       0       0
;;      Temps:          0       0       0       0       0
;;      Totals:         1       0       0       0       0
;;Total ram usage:        1 bytes
;; Hardware stack levels used:    1
;; Hardware stack levels required when called:    4
;; This function calls:
;;		_pause
;;		_lcd_write
;;		_lcd_clear
;; This function is called by:
;;		_main
;; This function uses a non-reentrant model
;;
psect	text521
	file	"C:\Users\Jorge\OneDrive\Escritorio\Microcontroladores\Proyectos\LCD1\LCD1.c"
	line	134
	global	__size_of_lcd_init
	__size_of_lcd_init	equ	__end_of_lcd_init-_lcd_init
	
_lcd_init:	
	opt	stack 3
; Regs used in _lcd_init: [wreg+status,2+status,0+pclath+cstack]
	line	137
	
l5677:	
	line	138
	
l5679:	
;LCD1.c: 138: TRISC = 0;
	clrf	(135)^080h	;volatile
	line	139
	
l5681:	
;LCD1.c: 139: TRISD = 0;
	clrf	(136)^080h	;volatile
	line	140
	
l5683:	
;LCD1.c: 140: RC3 = 0;
	bcf	status, 5	;RP0=0, select bank0
	bcf	(59/8),(59)&7
	line	141
	
l5685:	
;LCD1.c: 141: RC0 = 0;
	bcf	(56/8),(56)&7
	line	142
	
l5687:	
;LCD1.c: 142: RC4 = 0;
	bcf	(60/8),(60)&7
	line	144
	
l5689:	
;LCD1.c: 144: pause(15);
	movlw	0Fh
	movwf	(?_pause)
	clrf	(?_pause+1)
	fcall	_pause
	line	145
	
l5691:	
;LCD1.c: 145: PORTD = init_value;
	movlw	(03h)
	bcf	status, 5	;RP0=0, select bank0
	bcf	status, 6	;RP1=0, select bank0
	movwf	(8)	;volatile
	line	146
	
l5693:	
;LCD1.c: 146: ((RC0 = 1 , RC0 = 0));
	bsf	(56/8),(56)&7
	
l5695:	
	bcf	(56/8),(56)&7
	line	147
;LCD1.c: 147: pause(10);
	movlw	0Ah
	movwf	(?_pause)
	clrf	(?_pause+1)
	fcall	_pause
	line	148
	
l5697:	
;LCD1.c: 148: ((RC0 = 1 , RC0 = 0));
	bcf	status, 5	;RP0=0, select bank0
	bcf	status, 6	;RP1=0, select bank0
	bsf	(56/8),(56)&7
	
l5699:	
	bcf	(56/8),(56)&7
	line	149
;LCD1.c: 149: pause(10);
	movlw	0Ah
	movwf	(?_pause)
	clrf	(?_pause+1)
	fcall	_pause
	line	150
	
l5701:	
;LCD1.c: 150: ((RC0 = 1 , RC0 = 0));
	bcf	status, 5	;RP0=0, select bank0
	bcf	status, 6	;RP1=0, select bank0
	bsf	(56/8),(56)&7
	
l5703:	
	bcf	(56/8),(56)&7
	line	151
;LCD1.c: 151: pause(10);
	movlw	0Ah
	movwf	(?_pause)
	clrf	(?_pause+1)
	fcall	_pause
	line	152
	
l5705:	
;LCD1.c: 152: PORTD=2;
	movlw	(02h)
	bcf	status, 5	;RP0=0, select bank0
	bcf	status, 6	;RP1=0, select bank0
	movwf	(8)	;volatile
	line	153
	
l5707:	
;LCD1.c: 153: ((RC0 = 1 , RC0 = 0));
	bsf	(56/8),(56)&7
	
l5709:	
	bcf	(56/8),(56)&7
	line	155
	
l5711:	
;LCD1.c: 155: lcd_write(0x28);
	movlw	(028h)
	fcall	_lcd_write
	line	157
	
l5713:	
;LCD1.c: 157: lcd_write(0x0F);
	movlw	(0Fh)
	fcall	_lcd_write
	line	158
	
l5715:	
;LCD1.c: 158: lcd_clear();
	fcall	_lcd_clear
	line	159
	
l5717:	
;LCD1.c: 159: lcd_write(0x06);
	movlw	(06h)
	fcall	_lcd_write
	line	160
	
l1078:	
	return
	opt stack 0
GLOBAL	__end_of_lcd_init
	__end_of_lcd_init:
;; =============== function _lcd_init ends ============

	signat	_lcd_init,88
	global	_lcd_puts
psect	text522,local,class=CODE,delta=2
global __ptext522
__ptext522:

;; *************** function _lcd_puts *****************
;; Defined at:
;;		line 115 in file "C:\Users\Jorge\OneDrive\Escritorio\Microcontroladores\Proyectos\LCD1\LCD1.c"
;; Parameters:    Size  Location     Type
;;  s               2    5[COMMON] PTR const unsigned char 
;;		 -> STR_6(3), STR_4(3), STR_2(3), carac(5), 
;; Auto vars:     Size  Location     Type
;;		None
;; Return value:  Size  Location     Type
;;		None               void
;; Registers used:
;;		wreg, fsr0l, fsr0h, status,2, status,0, btemp+1, pclath, cstack
;; Tracked objects:
;;		On entry : 60/0
;;		On exit  : 60/0
;;		Unchanged: FFE9F/0
;; Data sizes:     COMMON   BANK0   BANK1   BANK3   BANK2
;;      Params:         2       0       0       0       0
;;      Locals:         0       0       0       0       0
;;      Temps:          0       0       0       0       0
;;      Totals:         2       0       0       0       0
;;Total ram usage:        2 bytes
;; Hardware stack levels used:    1
;; Hardware stack levels required when called:    3
;; This function calls:
;;		_lcd_write
;; This function is called by:
;;		_main
;; This function uses a non-reentrant model
;;
psect	text522
	file	"C:\Users\Jorge\OneDrive\Escritorio\Microcontroladores\Proyectos\LCD1\LCD1.c"
	line	115
	global	__size_of_lcd_puts
	__size_of_lcd_puts	equ	__end_of_lcd_puts-_lcd_puts
	
_lcd_puts:	
	opt	stack 4
; Regs used in _lcd_puts: [wreg-fsr0h+status,2+status,0+btemp+1+pclath+cstack]
	line	116
	
l5669:	
;LCD1.c: 116: RC3 = 1;
	bsf	(59/8),(59)&7
	line	117
;LCD1.c: 117: while(*s)
	goto	l5675
	line	118
	
l5671:	
;LCD1.c: 118: lcd_write(*s++);
	movf	(lcd_puts@s+1),w
	movwf	btemp+1
	movf	(lcd_puts@s),w
	movwf	fsr0
	fcall	stringtab
	fcall	_lcd_write
	
l5673:	
	incf	(lcd_puts@s),f
	skipnz
	incf	(lcd_puts@s+1),f
	line	117
	
l5675:	
	movf	(lcd_puts@s+1),w
	movwf	btemp+1
	movf	(lcd_puts@s),w
	movwf	fsr0
	fcall	stringtab
	iorlw	0
	skipz
	goto	u3151
	goto	u3150
u3151:
	goto	l5671
u3150:
	line	119
	
l1069:	
	return
	opt stack 0
GLOBAL	__end_of_lcd_puts
	__end_of_lcd_puts:
;; =============== function _lcd_puts ends ============

	signat	_lcd_puts,4216
	global	_lcd_goto
psect	text523,local,class=CODE,delta=2
global __ptext523
__ptext523:

;; *************** function _lcd_goto *****************
;; Defined at:
;;		line 128 in file "C:\Users\Jorge\OneDrive\Escritorio\Microcontroladores\Proyectos\LCD1\LCD1.c"
;; Parameters:    Size  Location     Type
;;  pos             1    wreg     unsigned char 
;; Auto vars:     Size  Location     Type
;;  pos             1    5[COMMON] unsigned char 
;; Return value:  Size  Location     Type
;;		None               void
;; Registers used:
;;		wreg, status,2, status,0, pclath, cstack
;; Tracked objects:
;;		On entry : 160/20
;;		On exit  : 160/0
;;		Unchanged: FFE9F/0
;; Data sizes:     COMMON   BANK0   BANK1   BANK3   BANK2
;;      Params:         0       0       0       0       0
;;      Locals:         1       0       0       0       0
;;      Temps:          0       0       0       0       0
;;      Totals:         1       0       0       0       0
;;Total ram usage:        1 bytes
;; Hardware stack levels used:    1
;; Hardware stack levels required when called:    3
;; This function calls:
;;		_lcd_write
;; This function is called by:
;;		_main
;; This function uses a non-reentrant model
;;
psect	text523
	file	"C:\Users\Jorge\OneDrive\Escritorio\Microcontroladores\Proyectos\LCD1\LCD1.c"
	line	128
	global	__size_of_lcd_goto
	__size_of_lcd_goto	equ	__end_of_lcd_goto-_lcd_goto
	
_lcd_goto:	
	opt	stack 4
; Regs used in _lcd_goto: [wreg+status,2+status,0+pclath+cstack]
;lcd_goto@pos stored from wreg
	movwf	(lcd_goto@pos)
	line	129
	
l5665:	
;LCD1.c: 129: RC3 = 0;
	bcf	status, 5	;RP0=0, select bank0
	bcf	(59/8),(59)&7
	line	130
	
l5667:	
;LCD1.c: 130: lcd_write(0x80+pos);
	movf	(lcd_goto@pos),w
	addlw	080h
	fcall	_lcd_write
	line	131
	
l1075:	
	return
	opt stack 0
GLOBAL	__end_of_lcd_goto
	__end_of_lcd_goto:
;; =============== function _lcd_goto ends ============

	signat	_lcd_goto,4216
	global	_sprintf
psect	text524,local,class=CODE,delta=2
global __ptext524
__ptext524:

;; *************** function _sprintf *****************
;; Defined at:
;;		line 488 in file "C:\Program Files (x86)\HI-TECH Software\PICC\9.82\lib\doprnt.c"
;; Parameters:    Size  Location     Type
;;  sp              1    wreg     PTR unsigned char 
;;		 -> carac(5), 
;;  f               1   50[BANK0 ] PTR const unsigned char 
;;		 -> STR_5(6), STR_3(6), STR_1(6), 
;; Auto vars:     Size  Location     Type
;;  sp              1   18[BANK1 ] PTR unsigned char 
;;		 -> carac(5), 
;;  _val            4    8[BANK1 ] struct .
;;  fval            3   19[BANK1 ] struct .
;;  integ           3    5[BANK1 ] struct .
;;  ival            3    0        struct .
;;  prec            2   22[BANK1 ] int 
;;  exp             2   16[BANK1 ] int 
;;  width           2   14[BANK1 ] int 
;;  flag            2   12[BANK1 ] unsigned short 
;;  c               1   24[BANK1 ] char 
;;  ap              1    4[BANK1 ] PTR void [1]
;;		 -> ?_sprintf(2), 
;;  d               1    0        unsigned char 
;; Return value:  Size  Location     Type
;;                  2   50[BANK0 ] int 
;; Registers used:
;;		wreg, fsr0l, fsr0h, status,2, status,0, btemp+1, pclath, cstack
;; Tracked objects:
;;		On entry : 60/0
;;		On exit  : 160/20
;;		Unchanged: FFE00/0
;; Data sizes:     COMMON   BANK0   BANK1   BANK3   BANK2
;;      Params:         0       4       0       0       0
;;      Locals:         0       0      25       0       0
;;      Temps:          0       5       0       0       0
;;      Totals:         0       9      25       0       0
;;Total ram usage:       34 bytes
;; Hardware stack levels used:    1
;; Hardware stack levels required when called:    3
;; This function calls:
;;		_isdigit
;;		___wmul
;;		___ftge
;;		___ftneg
;;		___awdiv
;;		_scale
;;		___ftmul
;;		_fround
;;		___ftadd
;;		___fttol
;;		__div_to_l_
;;		__tdiv_to_l_
;;		___lltoft
;;		___ftsub
;;		___lldiv
;;		___llmod
;; This function is called by:
;;		_main
;; This function uses a non-reentrant model
;;
psect	text524
	file	"C:\Program Files (x86)\HI-TECH Software\PICC\9.82\sources\doprnt.c"
	line	488
	global	__size_of_sprintf
	__size_of_sprintf	equ	__end_of_sprintf-_sprintf
	
_sprintf:	
	opt	stack 4
; Regs used in _sprintf: [wreg-fsr0h+status,2+status,0+btemp+1+pclath+cstack]
;sprintf@sp stored from wreg
	line	537
	bsf	status, 5	;RP0=1, select bank1
	movwf	(sprintf@sp)^080h
	
l5409:	
	movlw	(?_sprintf+01h)&0ffh
	movwf	(sprintf@ap)^080h
	line	540
	goto	l5659
	line	542
	
l5411:	
	movf	(sprintf@c)^080h,w
	xorlw	025h
	skipnz
	goto	u2711
	goto	u2710
u2711:
	goto	l5417
u2710:
	line	545
	
l5413:	
	movf	(sprintf@sp)^080h,w
	movwf	fsr0
	movf	(sprintf@c)^080h,w
	bcf	status, 7	;select IRP bank0
	movwf	indf
	
l5415:	
	incf	(sprintf@sp)^080h,f
	line	546
	goto	l5659
	line	550
	
l5417:	
	clrf	(sprintf@width)^080h
	clrf	(sprintf@width+1)^080h
	line	552
	clrf	(sprintf@flag)^080h
	clrf	(sprintf@flag+1)^080h
	line	601
	
l5419:	
	bcf	status, 5	;RP0=0, select bank0
	movf	(sprintf@f),w
	movwf	fsr0
	fcall	stringdir
	fcall	_isdigit
	btfss	status,0
	goto	u2721
	goto	u2720
u2721:
	goto	l5429
u2720:
	line	602
	
l5421:	
	bsf	status, 5	;RP0=1, select bank1
	clrf	(sprintf@width)^080h
	clrf	(sprintf@width+1)^080h
	line	604
	
l5423:	
	bsf	status, 5	;RP0=1, select bank1
	movf	(sprintf@width+1)^080h,w
	movwf	(?___wmul+1)
	movf	(sprintf@width)^080h,w
	movwf	(?___wmul)
	movlw	0Ah
	movwf	0+(?___wmul)+02h
	clrf	1+(?___wmul)+02h
	fcall	___wmul
	bcf	status, 5	;RP0=0, select bank0
	movf	(sprintf@f),w
	movwf	fsr0
	fcall	stringdir
	addwf	(0+(?___wmul)),w
	movwf	(??_sprintf+0)+0
	movlw	0
	skipnc
	movlw	1
	addwf	(1+(?___wmul)),w
	movwf	1+(??_sprintf+0)+0
	movf	0+(??_sprintf+0)+0,w
	addlw	low(0FFD0h)
	bsf	status, 5	;RP0=1, select bank1
	movwf	(sprintf@width)^080h
	bcf	status, 5	;RP0=0, select bank0
	movf	1+(??_sprintf+0)+0,w
	skipnc
	addlw	1
	addlw	high(0FFD0h)
	bsf	status, 5	;RP0=1, select bank1
	movwf	1+(sprintf@width)^080h
	
l5425:	
	bcf	status, 5	;RP0=0, select bank0
	incf	(sprintf@f),f
	line	605
	
l5427:	
	movf	(sprintf@f),w
	movwf	fsr0
	fcall	stringdir
	fcall	_isdigit
	btfsc	status,0
	goto	u2731
	goto	u2730
u2731:
	goto	l5423
u2730:
	line	614
	
l5429:	
	movf	(sprintf@f),w
	movwf	fsr0
	fcall	stringdir
	xorlw	02Eh
	skipz
	goto	u2741
	goto	u2740
u2741:
	goto	l5443
u2740:
	line	615
	
l5431:	
	bsf	status, 5	;RP0=1, select bank1
	bsf	(sprintf@flag)^080h+(14/8),(14)&7
	line	616
	
l5433:	
	bcf	status, 5	;RP0=0, select bank0
	incf	(sprintf@f),f
	line	624
	
l5435:	
	bsf	status, 5	;RP0=1, select bank1
	clrf	(sprintf@prec)^080h
	clrf	(sprintf@prec+1)^080h
	line	625
	goto	l5441
	line	626
	
l5437:	
	bsf	status, 5	;RP0=1, select bank1
	movf	(sprintf@prec+1)^080h,w
	movwf	(?___wmul+1)
	movf	(sprintf@prec)^080h,w
	movwf	(?___wmul)
	movlw	0Ah
	movwf	0+(?___wmul)+02h
	clrf	1+(?___wmul)+02h
	fcall	___wmul
	bcf	status, 5	;RP0=0, select bank0
	movf	(sprintf@f),w
	movwf	fsr0
	fcall	stringdir
	addwf	(0+(?___wmul)),w
	movwf	(??_sprintf+0)+0
	movlw	0
	skipnc
	movlw	1
	addwf	(1+(?___wmul)),w
	movwf	1+(??_sprintf+0)+0
	movf	0+(??_sprintf+0)+0,w
	addlw	low(0FFD0h)
	bsf	status, 5	;RP0=1, select bank1
	movwf	(sprintf@prec)^080h
	bcf	status, 5	;RP0=0, select bank0
	movf	1+(??_sprintf+0)+0,w
	skipnc
	addlw	1
	addlw	high(0FFD0h)
	bsf	status, 5	;RP0=1, select bank1
	movwf	1+(sprintf@prec)^080h
	
l5439:	
	bcf	status, 5	;RP0=0, select bank0
	incf	(sprintf@f),f
	line	625
	
l5441:	
	bcf	status, 5	;RP0=0, select bank0
	movf	(sprintf@f),w
	movwf	fsr0
	fcall	stringdir
	fcall	_isdigit
	btfsc	status,0
	goto	u2751
	goto	u2750
u2751:
	goto	l5437
u2750:
	goto	l5449
	line	629
	
l5443:	
	bsf	status, 5	;RP0=1, select bank1
	clrf	(sprintf@prec)^080h
	clrf	(sprintf@prec+1)^080h
	line	631
	
l5445:	
	bsf	(sprintf@flag)^080h+(12/8),(12)&7
	goto	l5449
	line	665
	
l1148:	
	line	666
	bsf	(sprintf@flag)^080h+(10/8),(10)&7
	line	667
	goto	l5451
	line	638
	
l5449:	
	bcf	status, 5	;RP0=0, select bank0
	movf	(sprintf@f),w
	incf	(sprintf@f),f
	movwf	fsr0
	fcall	stringdir
	bsf	status, 5	;RP0=1, select bank1
	movwf	(sprintf@c)^080h
	; Switch size 1, requested type "space"
; Number of cases is 2, Range of values is 0 to 102
; switch strategies available:
; Name         Instructions Cycles
; simple_byte            7     4 (average)
; jumptable            260     6 (fixed)
; rangetable           107     6 (fixed)
; spacedrange          212     9 (fixed)
; locatedrange         103     3 (fixed)
;	Chosen strategy is simple_byte

	opt asmopt_off
	xorlw	0^0	; case 0
	skipnz
	goto	l5661
	xorlw	102^0	; case 102
	skipnz
	goto	l1148
	goto	l5659
	opt asmopt_on

	line	828
	
l5451:	
	movlw	low(0700h)
	andwf	(sprintf@flag)^080h,w
	bcf	status, 5	;RP0=0, select bank0
	movwf	(??_sprintf+0)+0
	movlw	high(0700h)
	bsf	status, 5	;RP0=1, select bank1
	andwf	(sprintf@flag+1)^080h,w
	bcf	status, 5	;RP0=0, select bank0
	movwf	1+(??_sprintf+0)+0
	movf	1+(??_sprintf+0)+0,w
	iorwf	0+(??_sprintf+0)+0,w
	skipnz
	goto	u2761
	goto	u2760
u2761:
	goto	l5611
u2760:
	line	830
	
l5453:	
	bsf	status, 5	;RP0=1, select bank1
	btfss	(sprintf@flag+1)^080h,(12)&7
	goto	u2771
	goto	u2770
u2771:
	goto	l5457
u2770:
	line	832
	
l5455:	
	movlw	06h
	movwf	(sprintf@prec)^080h
	clrf	(sprintf@prec+1)^080h
	line	833
	
l5457:	
	movf	(sprintf@ap)^080h,w
	movwf	fsr0
	bcf	status, 7	;select IRP bank0
	movf	indf,w
	movwf	(sprintf@fval)^080h
	incf	fsr0,f
	movf	indf,w
	movwf	(sprintf@fval+1)^080h
	incf	fsr0,f
	movf	indf,w
	movwf	(sprintf@fval+2)^080h
	
l5459:	
	movlw	(03h)
	addwf	(sprintf@ap)^080h,f
	line	834
	
l5461:	
	movf	(sprintf@fval)^080h,w
	movwf	(?___ftge)
	movf	(sprintf@fval+1)^080h,w
	movwf	(?___ftge+1)
	movf	(sprintf@fval+2)^080h,w
	movwf	(?___ftge+2)
	clrf	0+(?___ftge)+03h
	clrf	1+(?___ftge)+03h
	clrf	2+(?___ftge)+03h
	fcall	___ftge
	btfsc	status,0
	goto	u2781
	goto	u2780
u2781:
	goto	l5467
u2780:
	line	835
	
l5463:	
	movf	(sprintf@fval)^080h,w
	movwf	(?___ftneg)
	movf	(sprintf@fval+1)^080h,w
	movwf	(?___ftneg+1)
	movf	(sprintf@fval+2)^080h,w
	movwf	(?___ftneg+2)
	fcall	___ftneg
	movf	(0+(?___ftneg)),w
	movwf	(sprintf@fval)^080h
	movf	(1+(?___ftneg)),w
	movwf	(sprintf@fval+1)^080h
	movf	(2+(?___ftneg)),w
	movwf	(sprintf@fval+2)^080h
	line	836
	
l5465:	
	movlw	03h
	iorwf	(sprintf@flag)^080h,f
	line	838
	
l5467:	
	clrf	(sprintf@exp)^080h
	clrf	(sprintf@exp+1)^080h
	line	839
	
l5469:	
	movf	(sprintf@fval+2)^080h,w
	iorwf	(sprintf@fval+1)^080h,w
	iorwf	(sprintf@fval)^080h,w
	skipnz
	goto	u2791
	goto	u2790
u2791:
	goto	l5499
u2790:
	line	840
	
l5471:	
	movlw	low(sprintf@fval)
	movwf	fsr0
	movf	indf,w
	bcf	status, 5	;RP0=0, select bank0
	movwf	(??_sprintf+0)+0+0
	incf	fsr0,f
	movf	indf,w
	movwf	(??_sprintf+0)+0+1
	incf	fsr0,f
	movf	indf,w
	movwf	(??_sprintf+0)+0+2
	incf	fsr0,f
	movf	indf,w
	movwf	(??_sprintf+0)+0+3
	movlw	0Fh
u2805:
	clrc
	rrf	(??_sprintf+0)+3,f
	rrf	(??_sprintf+0)+2,f
	rrf	(??_sprintf+0)+1,f
	rrf	(??_sprintf+0)+0,f
u2800:
	addlw	-1
	skipz
	goto	u2805
	movf	1+(??_sprintf+0)+0,w
	bsf	status, 5	;RP0=1, select bank1
	movwf	(sprintf@exp+1)^080h
	bcf	status, 5	;RP0=0, select bank0
	movf	0+(??_sprintf+0)+0,w
	bsf	status, 5	;RP0=1, select bank1
	movwf	(sprintf@exp)^080h
	
l5473:	
	movlw	0FFh
	andwf	(sprintf@exp)^080h,f
	clrf	(sprintf@exp+1)^080h
	
l5475:	
	movlw	-126
	addwf	(sprintf@exp)^080h,f
	skipc
	decf	(sprintf@exp+1)^080h,f
	line	841
	
l5477:	
	movlw	-1
	addwf	(sprintf@exp)^080h,f
	skipc
	decf	(sprintf@exp+1)^080h,f
	line	842
	
l5479:	
	movlw	03h
	movwf	(?___wmul)
	clrf	(?___wmul+1)
	movf	(sprintf@exp+1)^080h,w
	movwf	1+(?___wmul)+02h
	movf	(sprintf@exp)^080h,w
	movwf	0+(?___wmul)+02h
	fcall	___wmul
	movf	(1+(?___wmul)),w
	movwf	(sprintf@exp+1)^080h
	movf	(0+(?___wmul)),w
	movwf	(sprintf@exp)^080h
	line	843
	
l5481:	
	movlw	0Ah
	movwf	(?___awdiv)
	clrf	(?___awdiv+1)
	movf	(sprintf@exp+1)^080h,w
	movwf	1+(?___awdiv)+02h
	movf	(sprintf@exp)^080h,w
	movwf	0+(?___awdiv)+02h
	fcall	___awdiv
	movf	(1+(?___awdiv)),w
	movwf	(sprintf@exp+1)^080h
	movf	(0+(?___awdiv)),w
	movwf	(sprintf@exp)^080h
	line	844
	
l5483:	
	btfss	(sprintf@exp+1)^080h,7
	goto	u2811
	goto	u2810
u2811:
	goto	l5487
u2810:
	line	845
	
l5485:	
	movlw	-1
	addwf	(sprintf@exp)^080h,f
	skipc
	decf	(sprintf@exp+1)^080h,f
	line	849
	
l5487:	
	decf	(sprintf@exp)^080h,w
	xorlw	0ffh
	fcall	_scale
	movf	(0+(?_scale)),w
	bsf	status, 5	;RP0=1, select bank1
	movwf	(sprintf@integ)^080h
	bcf	status, 5	;RP0=0, select bank0
	movf	(1+(?_scale)),w
	bsf	status, 5	;RP0=1, select bank1
	movwf	(sprintf@integ+1)^080h
	bcf	status, 5	;RP0=0, select bank0
	movf	(2+(?_scale)),w
	bsf	status, 5	;RP0=1, select bank1
	movwf	(sprintf@integ+2)^080h
	line	850
	
l5489:	
	movf	(sprintf@fval)^080h,w
	bcf	status, 5	;RP0=0, select bank0
	movwf	(?___ftmul)
	bsf	status, 5	;RP0=1, select bank1
	movf	(sprintf@fval+1)^080h,w
	bcf	status, 5	;RP0=0, select bank0
	movwf	(?___ftmul+1)
	bsf	status, 5	;RP0=1, select bank1
	movf	(sprintf@fval+2)^080h,w
	bcf	status, 5	;RP0=0, select bank0
	movwf	(?___ftmul+2)
	bsf	status, 5	;RP0=1, select bank1
	movf	(sprintf@integ)^080h,w
	bcf	status, 5	;RP0=0, select bank0
	movwf	0+(?___ftmul)+03h
	bsf	status, 5	;RP0=1, select bank1
	movf	(sprintf@integ+1)^080h,w
	bcf	status, 5	;RP0=0, select bank0
	movwf	1+(?___ftmul)+03h
	bsf	status, 5	;RP0=1, select bank1
	movf	(sprintf@integ+2)^080h,w
	bcf	status, 5	;RP0=0, select bank0
	movwf	2+(?___ftmul)+03h
	fcall	___ftmul
	movf	(0+(?___ftmul)),w
	bsf	status, 5	;RP0=1, select bank1
	movwf	(sprintf@integ)^080h
	bcf	status, 5	;RP0=0, select bank0
	movf	(1+(?___ftmul)),w
	bsf	status, 5	;RP0=1, select bank1
	movwf	(sprintf@integ+1)^080h
	bcf	status, 5	;RP0=0, select bank0
	movf	(2+(?___ftmul)),w
	bsf	status, 5	;RP0=1, select bank1
	movwf	(sprintf@integ+2)^080h
	line	851
	
l5491:	
	movf	(sprintf@integ)^080h,w
	movwf	(?___ftge)
	movf	(sprintf@integ+1)^080h,w
	movwf	(?___ftge+1)
	movf	(sprintf@integ+2)^080h,w
	movwf	(?___ftge+2)
	movlw	0x0
	movwf	0+(?___ftge)+03h
	movlw	0x80
	movwf	1+(?___ftge)+03h
	movlw	0x3f
	movwf	2+(?___ftge)+03h
	fcall	___ftge
	btfsc	status,0
	goto	u2821
	goto	u2820
u2821:
	goto	l5495
u2820:
	line	852
	
l5493:	
	movlw	-1
	addwf	(sprintf@exp)^080h,f
	skipc
	decf	(sprintf@exp+1)^080h,f
	goto	l5499
	line	853
	
l5495:	
	movf	(sprintf@integ)^080h,w
	movwf	(?___ftge)
	movf	(sprintf@integ+1)^080h,w
	movwf	(?___ftge+1)
	movf	(sprintf@integ+2)^080h,w
	movwf	(?___ftge+2)
	movlw	0x0
	movwf	0+(?___ftge)+03h
	movlw	0x20
	movwf	1+(?___ftge)+03h
	movlw	0x41
	movwf	2+(?___ftge)+03h
	fcall	___ftge
	btfss	status,0
	goto	u2831
	goto	u2830
u2831:
	goto	l5499
u2830:
	line	854
	
l5497:	
	incf	(sprintf@exp)^080h,f
	skipnz
	incf	(sprintf@exp+1)^080h,f
	line	1115
	
l5499:	
	movf	(sprintf@prec+1)^080h,w
	xorlw	80h
	movwf	btemp+1
	movlw	(high(0Dh))^80h
	subwf	btemp+1,w
	skipz
	goto	u2845
	movlw	low(0Dh)
	subwf	(sprintf@prec)^080h,w
u2845:

	skipnc
	goto	u2841
	goto	u2840
u2841:
	goto	l5503
u2840:
	line	1116
	
l5501:	
	bsf	status, 5	;RP0=1, select bank1
	bcf	status, 6	;RP1=0, select bank1
	movf	(sprintf@prec)^080h,w
	fcall	_fround
	movf	(0+(?_fround)),w
	movwf	(?___ftadd)
	movf	(1+(?_fround)),w
	movwf	(?___ftadd+1)
	movf	(2+(?_fround)),w
	movwf	(?___ftadd+2)
	bsf	status, 5	;RP0=1, select bank1
	movf	(sprintf@fval)^080h,w
	bcf	status, 5	;RP0=0, select bank0
	movwf	0+(?___ftadd)+03h
	bsf	status, 5	;RP0=1, select bank1
	movf	(sprintf@fval+1)^080h,w
	bcf	status, 5	;RP0=0, select bank0
	movwf	1+(?___ftadd)+03h
	bsf	status, 5	;RP0=1, select bank1
	movf	(sprintf@fval+2)^080h,w
	bcf	status, 5	;RP0=0, select bank0
	movwf	2+(?___ftadd)+03h
	fcall	___ftadd
	movf	(0+(?___ftadd)),w
	bsf	status, 5	;RP0=1, select bank1
	movwf	(sprintf@fval)^080h
	bcf	status, 5	;RP0=0, select bank0
	movf	(1+(?___ftadd)),w
	bsf	status, 5	;RP0=1, select bank1
	movwf	(sprintf@fval+1)^080h
	bcf	status, 5	;RP0=0, select bank0
	movf	(2+(?___ftadd)),w
	bsf	status, 5	;RP0=1, select bank1
	movwf	(sprintf@fval+2)^080h
	line	1119
	
l5503:	
	bsf	status, 5	;RP0=1, select bank1
	bcf	status, 6	;RP1=0, select bank1
	movf	(sprintf@exp+1)^080h,w
	xorlw	80h
	movwf	btemp+1
	movlw	(high(0Ah))^80h
	subwf	btemp+1,w
	skipz
	goto	u2855
	movlw	low(0Ah)
	subwf	(sprintf@exp)^080h,w
u2855:

	skipnc
	goto	u2851
	goto	u2850
u2851:
	goto	l5511
u2850:
	
l5505:	
	bsf	status, 5	;RP0=1, select bank1
	bcf	status, 6	;RP1=0, select bank1
	movf	(sprintf@fval+2)^080h,w
	iorwf	(sprintf@fval+1)^080h,w
	iorwf	(sprintf@fval)^080h,w
	skipnz
	goto	u2861
	goto	u2860
u2861:
	goto	l5527
u2860:
	
l5507:	
	movf	(sprintf@fval)^080h,w
	bcf	status, 5	;RP0=0, select bank0
	movwf	(?___fttol)
	bsf	status, 5	;RP0=1, select bank1
	movf	(sprintf@fval+1)^080h,w
	bcf	status, 5	;RP0=0, select bank0
	movwf	(?___fttol+1)
	bsf	status, 5	;RP0=1, select bank1
	movf	(sprintf@fval+2)^080h,w
	bcf	status, 5	;RP0=0, select bank0
	movwf	(?___fttol+2)
	fcall	___fttol
	movf	(3+(?___fttol)),w
	iorwf	(2+(?___fttol)),w
	iorwf	(1+(?___fttol)),w
	iorwf	(0+(?___fttol)),w
	skipz
	goto	u2871
	goto	u2870
u2871:
	goto	l5527
u2870:
	
l5509:	
	bsf	status, 5	;RP0=1, select bank1
	movf	(sprintf@exp+1)^080h,w
	xorlw	80h
	movwf	btemp+1
	movlw	(high(02h))^80h
	subwf	btemp+1,w
	skipz
	goto	u2885
	movlw	low(02h)
	subwf	(sprintf@exp)^080h,w
u2885:

	skipc
	goto	u2881
	goto	u2880
u2881:
	goto	l5527
u2880:
	line	1123
	
l5511:	
	bsf	status, 5	;RP0=1, select bank1
	bcf	status, 6	;RP1=0, select bank1
	movf	(sprintf@integ)^080h,w
	movwf	(?___ftge)
	movf	(sprintf@integ+1)^080h,w
	movwf	(?___ftge+1)
	movf	(sprintf@integ+2)^080h,w
	movwf	(?___ftge+2)
	movlw	0x70
	movwf	0+(?___ftge)+03h
	movlw	0x89
	movwf	1+(?___ftge)+03h
	movlw	0x40
	movwf	2+(?___ftge)+03h
	fcall	___ftge
	btfsc	status,0
	goto	u2891
	goto	u2890
u2891:
	goto	l5515
u2890:
	line	1124
	
l5513:	
	movlw	-9
	addwf	(sprintf@exp)^080h,f
	skipc
	decf	(sprintf@exp+1)^080h,f
	line	1125
	goto	l5517
	line	1126
	
l5515:	
	movlw	-8
	addwf	(sprintf@exp)^080h,f
	skipc
	decf	(sprintf@exp+1)^080h,f
	line	1128
	
l5517:	
	movf	(sprintf@exp)^080h,w
	fcall	_scale
	movf	(0+(?_scale)),w
	bsf	status, 5	;RP0=1, select bank1
	movwf	(sprintf@integ)^080h
	bcf	status, 5	;RP0=0, select bank0
	movf	(1+(?_scale)),w
	bsf	status, 5	;RP0=1, select bank1
	movwf	(sprintf@integ+1)^080h
	bcf	status, 5	;RP0=0, select bank0
	movf	(2+(?_scale)),w
	bsf	status, 5	;RP0=1, select bank1
	movwf	(sprintf@integ+2)^080h
	line	1129
	
l5521:	
	movf	(sprintf@fval)^080h,w
	movwf	(?__tdiv_to_l_)
	movf	(sprintf@fval+1)^080h,w
	movwf	(?__tdiv_to_l_+1)
	movf	(sprintf@fval+2)^080h,w
	movwf	(?__tdiv_to_l_+2)
	movf	(sprintf@integ)^080h,w
	movwf	0+(?__tdiv_to_l_)+03h
	movf	(sprintf@integ+1)^080h,w
	movwf	1+(?__tdiv_to_l_)+03h
	movf	(sprintf@integ+2)^080h,w
	movwf	2+(?__tdiv_to_l_)+03h
	fcall	__tdiv_to_l_
	movf	(3+(?__tdiv_to_l_)),w
	bsf	status, 5	;RP0=1, select bank1
	movwf	(_sprintf$1901+3)^080h
	movf	(2+(?__tdiv_to_l_)),w
	movwf	(_sprintf$1901+2)^080h
	movf	(1+(?__tdiv_to_l_)),w
	movwf	(_sprintf$1901+1)^080h
	movf	(0+(?__tdiv_to_l_)),w
	movwf	(_sprintf$1901)^080h

	
l5523:	
	movf	(_sprintf$1901+3)^080h,w
	movwf	(sprintf@_val+3)^080h
	movf	(_sprintf$1901+2)^080h,w
	movwf	(sprintf@_val+2)^080h
	movf	(_sprintf$1901+1)^080h,w
	movwf	(sprintf@_val+1)^080h
	movf	(_sprintf$1901)^080h,w
	movwf	(sprintf@_val)^080h

	line	1132
	
l5525:	
	clrf	(sprintf@fval)^080h
	clrf	(sprintf@fval+1)^080h
	clrf	(sprintf@fval+2)^080h
	line	1133
	goto	l5531
	line	1134
	
l5527:	
	bsf	status, 5	;RP0=1, select bank1
	bcf	status, 6	;RP1=0, select bank1
	movf	(sprintf@fval)^080h,w
	bcf	status, 5	;RP0=0, select bank0
	movwf	(?___fttol)
	bsf	status, 5	;RP0=1, select bank1
	movf	(sprintf@fval+1)^080h,w
	bcf	status, 5	;RP0=0, select bank0
	movwf	(?___fttol+1)
	bsf	status, 5	;RP0=1, select bank1
	movf	(sprintf@fval+2)^080h,w
	bcf	status, 5	;RP0=0, select bank0
	movwf	(?___fttol+2)
	fcall	___fttol
	movf	(3+(?___fttol)),w
	bsf	status, 5	;RP0=1, select bank1
	movwf	(sprintf@_val+3)^080h
	bcf	status, 5	;RP0=0, select bank0
	movf	(2+(?___fttol)),w
	bsf	status, 5	;RP0=1, select bank1
	movwf	(sprintf@_val+2)^080h
	bcf	status, 5	;RP0=0, select bank0
	movf	(1+(?___fttol)),w
	bsf	status, 5	;RP0=1, select bank1
	movwf	(sprintf@_val+1)^080h
	bcf	status, 5	;RP0=0, select bank0
	movf	(0+(?___fttol)),w
	bsf	status, 5	;RP0=1, select bank1
	movwf	(sprintf@_val)^080h

	line	1135
	movf	(sprintf@_val+3)^080h,w
	movwf	(?___lltoft+3)
	movf	(sprintf@_val+2)^080h,w
	movwf	(?___lltoft+2)
	movf	(sprintf@_val+1)^080h,w
	movwf	(?___lltoft+1)
	movf	(sprintf@_val)^080h,w
	movwf	(?___lltoft)

	fcall	___lltoft
	movf	(0+(?___lltoft)),w
	bcf	status, 5	;RP0=0, select bank0
	movwf	(?___ftsub)
	movf	(1+(?___lltoft)),w
	movwf	(?___ftsub+1)
	movf	(2+(?___lltoft)),w
	movwf	(?___ftsub+2)
	bsf	status, 5	;RP0=1, select bank1
	movf	(sprintf@fval)^080h,w
	bcf	status, 5	;RP0=0, select bank0
	movwf	0+(?___ftsub)+03h
	bsf	status, 5	;RP0=1, select bank1
	movf	(sprintf@fval+1)^080h,w
	bcf	status, 5	;RP0=0, select bank0
	movwf	1+(?___ftsub)+03h
	bsf	status, 5	;RP0=1, select bank1
	movf	(sprintf@fval+2)^080h,w
	bcf	status, 5	;RP0=0, select bank0
	movwf	2+(?___ftsub)+03h
	fcall	___ftsub
	movf	(0+(?___ftsub)),w
	bsf	status, 5	;RP0=1, select bank1
	movwf	(sprintf@fval)^080h
	bcf	status, 5	;RP0=0, select bank0
	movf	(1+(?___ftsub)),w
	bsf	status, 5	;RP0=1, select bank1
	movwf	(sprintf@fval+1)^080h
	bcf	status, 5	;RP0=0, select bank0
	movf	(2+(?___ftsub)),w
	bsf	status, 5	;RP0=1, select bank1
	movwf	(sprintf@fval+2)^080h
	line	1136
	
l5529:	
	clrf	(sprintf@exp)^080h
	clrf	(sprintf@exp+1)^080h
	line	1139
	
l5531:	
	clrf	(sprintf@c)^080h
	incf	(sprintf@c)^080h,f
	line	1140
	
l5537:	
	movf	(sprintf@c)^080h,w
	bcf	status, 5	;RP0=0, select bank0
	movwf	(??_sprintf+0)+0
	clrc
	rlf	(??_sprintf+0)+0,f
	clrc
	rlf	(??_sprintf+0)+0,w
	addlw	low((_dpowers-__stringbase))
	movwf	fsr0
	fcall	stringdir
	movwf	((??_sprintf+1)+0)
	fcall	stringdir
	movwf	((??_sprintf+1)+0+1)
	fcall	stringdir
	movwf	((??_sprintf+1)+0+2)
	fcall	stringdir
	movwf	((??_sprintf+1)+0+3)
	movf	3+(??_sprintf+1)+0,w
	bsf	status, 5	;RP0=1, select bank1
	subwf	(sprintf@_val+3)^080h,w
	skipz
	goto	u2905
	bcf	status, 5	;RP0=0, select bank0
	movf	2+(??_sprintf+1)+0,w
	bsf	status, 5	;RP0=1, select bank1
	subwf	(sprintf@_val+2)^080h,w
	skipz
	goto	u2905
	bcf	status, 5	;RP0=0, select bank0
	movf	1+(??_sprintf+1)+0,w
	bsf	status, 5	;RP0=1, select bank1
	subwf	(sprintf@_val+1)^080h,w
	skipz
	goto	u2905
	bcf	status, 5	;RP0=0, select bank0
	movf	0+(??_sprintf+1)+0,w
	bsf	status, 5	;RP0=1, select bank1
	subwf	(sprintf@_val)^080h,w
u2905:
	skipnc
	goto	u2901
	goto	u2900
u2901:
	goto	l5541
u2900:
	goto	l5545
	line	1139
	
l5541:	
	incf	(sprintf@c)^080h,f
	
l5543:	
	movf	(sprintf@c)^080h,w
	xorlw	0Ah
	skipz
	goto	u2911
	goto	u2910
u2911:
	goto	l5537
u2910:
	line	1145
	
l5545:	
	movf	(sprintf@prec)^080h,w
	addwf	(sprintf@c)^080h,w
	bcf	status, 5	;RP0=0, select bank0
	movwf	(??_sprintf+0)+0
	bsf	status, 5	;RP0=1, select bank1
	movf	(sprintf@prec+1)^080h,w
	skipnc
	incf	(sprintf@prec+1)^080h,w
	addlw	0
	btfsc	(sprintf@c)^080h,7
	addlw	0ffh
	bcf	status, 5	;RP0=0, select bank0
	movwf	(??_sprintf+0)+0+1
	bsf	status, 5	;RP0=1, select bank1
	movf	(sprintf@exp)^080h,w
	bcf	status, 5	;RP0=0, select bank0
	addwf	0+(??_sprintf+0)+0,w
	movwf	(??_sprintf+2)+0
	bsf	status, 5	;RP0=1, select bank1
	movf	(sprintf@exp+1)^080h,w
	skipnc
	incf	(sprintf@exp+1)^080h,w
	bcf	status, 5	;RP0=0, select bank0
	addwf	1+(??_sprintf+0)+0,w
	movwf	1+(??_sprintf+2)+0
	movf	0+(??_sprintf+2)+0,w
	bsf	status, 5	;RP0=1, select bank1
	subwf	(sprintf@width)^080h,f
	bcf	status, 5	;RP0=0, select bank0
	movf	1+(??_sprintf+2)+0,w
	bsf	status, 5	;RP0=1, select bank1
	skipc
	decf	(sprintf@width+1)^080h,f
	subwf	(sprintf@width+1)^080h,f
	line	1150
	
l5547:	
	movf	(sprintf@prec+1)^080h,w
	iorwf	(sprintf@prec)^080h,w
	skipnz
	goto	u2921
	goto	u2920
u2921:
	goto	l5551
u2920:
	line	1151
	
l5549:	
	movlw	-1
	addwf	(sprintf@width)^080h,f
	skipc
	decf	(sprintf@width+1)^080h,f
	line	1152
	
l5551:	
	movf	(sprintf@flag)^080h,w
	andlw	03h
	btfsc	status,2
	goto	u2931
	goto	u2930
u2931:
	goto	l5561
u2930:
	line	1153
	
l5553:	
	movlw	-1
	addwf	(sprintf@width)^080h,f
	skipc
	decf	(sprintf@width+1)^080h,f
	goto	l5561
	line	1182
	
l5555:	
	bsf	status, 5	;RP0=1, select bank1
	bcf	status, 6	;RP1=0, select bank1
	movf	(sprintf@sp)^080h,w
	movwf	fsr0
	movlw	(020h)
	bcf	status, 7	;select IRP bank0
	movwf	indf
	
l5557:	
	incf	(sprintf@sp)^080h,f
	goto	l5553
	line	1181
	
l5561:	
	movf	(sprintf@width+1)^080h,w
	xorlw	80h
	movwf	btemp+1
	movlw	(high(01h))^80h
	subwf	btemp+1,w
	skipz
	goto	u2945
	movlw	low(01h)
	subwf	(sprintf@width)^080h,w
u2945:

	skipnc
	goto	u2941
	goto	u2940
u2941:
	goto	l5555
u2940:
	line	1189
	
l5563:	
	bsf	status, 5	;RP0=1, select bank1
	bcf	status, 6	;RP1=0, select bank1
	movf	(sprintf@flag)^080h,w
	andlw	03h
	btfsc	status,2
	goto	u2951
	goto	u2950
u2951:
	goto	l5573
u2950:
	line	1191
	
l5565:	
	movf	(sprintf@sp)^080h,w
	movwf	fsr0
	movlw	(02Dh)
	bcf	status, 7	;select IRP bank0
	movwf	indf
	
l5567:	
	bsf	status, 5	;RP0=1, select bank1
	incf	(sprintf@sp)^080h,f
	goto	l5573
	line	1201
	
l5569:	
	movlw	0Ah
	bcf	status, 5	;RP0=0, select bank0
	movwf	(?___llmod)
	clrf	(?___llmod+1)
	clrf	(?___llmod+2)
	clrf	(?___llmod+3)

	bsf	status, 5	;RP0=1, select bank1
	movf	(sprintf@c)^080h,w
	bcf	status, 5	;RP0=0, select bank0
	movwf	(??_sprintf+0)+0
	clrc
	rlf	(??_sprintf+0)+0,f
	clrc
	rlf	(??_sprintf+0)+0,w
	addlw	low((_dpowers-__stringbase))
	movwf	fsr0
	fcall	stringdir
	movwf	(?___lldiv)
	fcall	stringdir
	movwf	(?___lldiv+1)
	fcall	stringdir
	movwf	(?___lldiv+2)
	fcall	stringdir
	movwf	(?___lldiv+3)
	bsf	status, 5	;RP0=1, select bank1
	movf	(sprintf@_val+3)^080h,w
	movwf	3+(?___lldiv)+04h
	movf	(sprintf@_val+2)^080h,w
	movwf	2+(?___lldiv)+04h
	movf	(sprintf@_val+1)^080h,w
	movwf	1+(?___lldiv)+04h
	movf	(sprintf@_val)^080h,w
	movwf	0+(?___lldiv)+04h

	fcall	___lldiv
	movf	(3+(?___lldiv)),w
	bcf	status, 5	;RP0=0, select bank0
	movwf	3+(?___llmod)+04h
	movf	(2+(?___lldiv)),w
	movwf	2+(?___llmod)+04h
	movf	(1+(?___lldiv)),w
	movwf	1+(?___llmod)+04h
	movf	(0+(?___lldiv)),w
	movwf	0+(?___llmod)+04h

	fcall	___llmod
	movf	0+(((0+(?___llmod)))),w
	addlw	030h
	movwf	(??_sprintf+1)+0
	bsf	status, 5	;RP0=1, select bank1
	movf	(sprintf@sp)^080h,w
	movwf	fsr0
	bcf	status, 5	;RP0=0, select bank0
	movf	(??_sprintf+1)+0,w
	bcf	status, 7	;select IRP bank0
	movwf	indf
	goto	l5567
	line	1197
	
l5573:	
	decf	(sprintf@c)^080h,f
	incf	((sprintf@c)^080h),w
	skipz
	goto	u2961
	goto	u2960
u2961:
	goto	l5569
u2960:
	goto	l5581
	line	1205
	
l5575:	
	bsf	status, 5	;RP0=1, select bank1
	bcf	status, 6	;RP1=0, select bank1
	movf	(sprintf@sp)^080h,w
	movwf	fsr0
	movlw	(030h)
	bcf	status, 7	;select IRP bank0
	movwf	indf
	
l5577:	
	incf	(sprintf@sp)^080h,f
	line	1206
	
l5579:	
	movlw	-1
	addwf	(sprintf@exp)^080h,f
	skipc
	decf	(sprintf@exp+1)^080h,f
	line	1204
	
l5581:	
	movf	(sprintf@exp+1)^080h,w
	xorlw	80h
	movwf	btemp+1
	movlw	(high(01h))^80h
	subwf	btemp+1,w
	skipz
	goto	u2975
	movlw	low(01h)
	subwf	(sprintf@exp)^080h,w
u2975:

	skipnc
	goto	u2971
	goto	u2970
u2971:
	goto	l5575
u2970:
	line	1208
	
l5583:	
	bsf	status, 5	;RP0=1, select bank1
	bcf	status, 6	;RP1=0, select bank1
	movf	(sprintf@prec+1)^080h,w
	xorlw	80h
	movwf	btemp+1
	movlw	(high(09h))^80h
	subwf	btemp+1,w
	skipz
	goto	u2985
	movlw	low(09h)
	subwf	(sprintf@prec)^080h,w
u2985:

	skipc
	goto	u2981
	goto	u2980
u2981:
	goto	l5587
u2980:
	line	1209
	
l5585:	
	movlw	(08h)
	bsf	status, 5	;RP0=1, select bank1
	bcf	status, 6	;RP1=0, select bank1
	movwf	(sprintf@c)^080h
	goto	l1186
	line	1211
	
l5587:	
	bsf	status, 5	;RP0=1, select bank1
	bcf	status, 6	;RP1=0, select bank1
	movf	(sprintf@prec)^080h,w
	movwf	(sprintf@c)^080h
	
l1186:	
	line	1212
	movf	(sprintf@c)^080h,w
	bcf	status, 5	;RP0=0, select bank0
	movwf	(??_sprintf+0)+0
	clrf	(??_sprintf+0)+0+1
	btfsc	(??_sprintf+0)+0,7
	decf	(??_sprintf+0)+0+1,f
	movf	0+(??_sprintf+0)+0,w
	bsf	status, 5	;RP0=1, select bank1
	subwf	(sprintf@prec)^080h,f
	bcf	status, 5	;RP0=0, select bank0
	movf	1+(??_sprintf+0)+0,w
	bsf	status, 5	;RP0=1, select bank1
	skipc
	decf	(sprintf@prec+1)^080h,f
	subwf	(sprintf@prec+1)^080h,f
	line	1216
	movf	(sprintf@c)^080h,w
	skipz
	goto	u2990
	goto	l5593
u2990:
	line	1218
	
l5589:	
	movf	(sprintf@sp)^080h,w
	movwf	fsr0
	movlw	(02Eh)
	bcf	status, 7	;select IRP bank0
	movwf	indf
	
l5591:	
	incf	(sprintf@sp)^080h,f
	line	1224
	
l5593:	
	movf	(sprintf@c)^080h,w
	fcall	_scale
	movf	(0+(?_scale)),w
	movwf	0+(?___ftmul)+03h
	movf	(1+(?_scale)),w
	movwf	1+(?___ftmul)+03h
	movf	(2+(?_scale)),w
	movwf	2+(?___ftmul)+03h
	bsf	status, 5	;RP0=1, select bank1
	movf	(sprintf@fval)^080h,w
	bcf	status, 5	;RP0=0, select bank0
	movwf	(?___ftmul)
	bsf	status, 5	;RP0=1, select bank1
	movf	(sprintf@fval+1)^080h,w
	bcf	status, 5	;RP0=0, select bank0
	movwf	(?___ftmul+1)
	bsf	status, 5	;RP0=1, select bank1
	movf	(sprintf@fval+2)^080h,w
	bcf	status, 5	;RP0=0, select bank0
	movwf	(?___ftmul+2)
	fcall	___ftmul
	movf	(0+(?___ftmul)),w
	movwf	(?___fttol)
	movf	(1+(?___ftmul)),w
	movwf	(?___fttol+1)
	movf	(2+(?___ftmul)),w
	movwf	(?___fttol+2)
	fcall	___fttol
	movf	(3+(?___fttol)),w
	bsf	status, 5	;RP0=1, select bank1
	movwf	(sprintf@_val+3)^080h
	bcf	status, 5	;RP0=0, select bank0
	movf	(2+(?___fttol)),w
	bsf	status, 5	;RP0=1, select bank1
	movwf	(sprintf@_val+2)^080h
	bcf	status, 5	;RP0=0, select bank0
	movf	(1+(?___fttol)),w
	bsf	status, 5	;RP0=1, select bank1
	movwf	(sprintf@_val+1)^080h
	bcf	status, 5	;RP0=0, select bank0
	movf	(0+(?___fttol)),w
	bsf	status, 5	;RP0=1, select bank1
	movwf	(sprintf@_val)^080h

	line	1225
	goto	l5601
	line	1226
	
l5595:	
	movlw	0Ah
	bcf	status, 5	;RP0=0, select bank0
	movwf	(?___llmod)
	clrf	(?___llmod+1)
	clrf	(?___llmod+2)
	clrf	(?___llmod+3)

	bsf	status, 5	;RP0=1, select bank1
	movf	(sprintf@c)^080h,w
	bcf	status, 5	;RP0=0, select bank0
	movwf	(??_sprintf+0)+0
	clrc
	rlf	(??_sprintf+0)+0,f
	clrc
	rlf	(??_sprintf+0)+0,w
	addlw	low((_dpowers-__stringbase))
	movwf	fsr0
	fcall	stringdir
	movwf	(?___lldiv)
	fcall	stringdir
	movwf	(?___lldiv+1)
	fcall	stringdir
	movwf	(?___lldiv+2)
	fcall	stringdir
	movwf	(?___lldiv+3)
	bsf	status, 5	;RP0=1, select bank1
	movf	(sprintf@_val+3)^080h,w
	movwf	3+(?___lldiv)+04h
	movf	(sprintf@_val+2)^080h,w
	movwf	2+(?___lldiv)+04h
	movf	(sprintf@_val+1)^080h,w
	movwf	1+(?___lldiv)+04h
	movf	(sprintf@_val)^080h,w
	movwf	0+(?___lldiv)+04h

	fcall	___lldiv
	movf	(3+(?___lldiv)),w
	bcf	status, 5	;RP0=0, select bank0
	movwf	3+(?___llmod)+04h
	movf	(2+(?___lldiv)),w
	movwf	2+(?___llmod)+04h
	movf	(1+(?___lldiv)),w
	movwf	1+(?___llmod)+04h
	movf	(0+(?___lldiv)),w
	movwf	0+(?___llmod)+04h

	fcall	___llmod
	movf	0+(((0+(?___llmod)))),w
	addlw	030h
	movwf	(??_sprintf+1)+0
	bsf	status, 5	;RP0=1, select bank1
	movf	(sprintf@sp)^080h,w
	movwf	fsr0
	bcf	status, 5	;RP0=0, select bank0
	movf	(??_sprintf+1)+0,w
	bcf	status, 7	;select IRP bank0
	movwf	indf
	
l5597:	
	bsf	status, 5	;RP0=1, select bank1
	incf	(sprintf@sp)^080h,f
	line	1227
	
l5599:	
	movf	(sprintf@c)^080h,w
	bcf	status, 5	;RP0=0, select bank0
	movwf	(??_sprintf+0)+0
	clrc
	rlf	(??_sprintf+0)+0,f
	clrc
	rlf	(??_sprintf+0)+0,w
	addlw	low((_dpowers-__stringbase))
	movwf	fsr0
	fcall	stringdir
	movwf	(?___llmod)
	fcall	stringdir
	movwf	(?___llmod+1)
	fcall	stringdir
	movwf	(?___llmod+2)
	fcall	stringdir
	movwf	(?___llmod+3)
	bsf	status, 5	;RP0=1, select bank1
	movf	(sprintf@_val+3)^080h,w
	bcf	status, 5	;RP0=0, select bank0
	movwf	3+(?___llmod)+04h
	bsf	status, 5	;RP0=1, select bank1
	movf	(sprintf@_val+2)^080h,w
	bcf	status, 5	;RP0=0, select bank0
	movwf	2+(?___llmod)+04h
	bsf	status, 5	;RP0=1, select bank1
	movf	(sprintf@_val+1)^080h,w
	bcf	status, 5	;RP0=0, select bank0
	movwf	1+(?___llmod)+04h
	bsf	status, 5	;RP0=1, select bank1
	movf	(sprintf@_val)^080h,w
	bcf	status, 5	;RP0=0, select bank0
	movwf	0+(?___llmod)+04h

	fcall	___llmod
	movf	(3+(?___llmod)),w
	bsf	status, 5	;RP0=1, select bank1
	movwf	(sprintf@_val+3)^080h
	bcf	status, 5	;RP0=0, select bank0
	movf	(2+(?___llmod)),w
	bsf	status, 5	;RP0=1, select bank1
	movwf	(sprintf@_val+2)^080h
	bcf	status, 5	;RP0=0, select bank0
	movf	(1+(?___llmod)),w
	bsf	status, 5	;RP0=1, select bank1
	movwf	(sprintf@_val+1)^080h
	bcf	status, 5	;RP0=0, select bank0
	movf	(0+(?___llmod)),w
	bsf	status, 5	;RP0=1, select bank1
	movwf	(sprintf@_val)^080h

	line	1225
	
l5601:	
	decf	(sprintf@c)^080h,f
	incf	((sprintf@c)^080h),w
	skipz
	goto	u3001
	goto	u3000
u3001:
	goto	l5595
u3000:
	goto	l5609
	line	1231
	
l5603:	
	movf	(sprintf@sp)^080h,w
	movwf	fsr0
	movlw	(030h)
	bcf	status, 7	;select IRP bank0
	movwf	indf
	
l5605:	
	incf	(sprintf@sp)^080h,f
	line	1232
	
l5607:	
	movlw	-1
	addwf	(sprintf@prec)^080h,f
	skipc
	decf	(sprintf@prec+1)^080h,f
	line	1230
	
l5609:	
	movf	((sprintf@prec+1)^080h),w
	iorwf	((sprintf@prec)^080h),w
	skipz
	goto	u3011
	goto	u3010
u3011:
	goto	l5603
u3010:
	goto	l5659
	line	1285
	
l5611:	
	bsf	status, 5	;RP0=1, select bank1
	movf	((sprintf@prec+1)^080h),w
	iorwf	((sprintf@prec)^080h),w
	skipz
	goto	u3021
	goto	u3020
u3021:
	goto	l5617
u3020:
	
l5613:	
	movf	(sprintf@_val+3)^080h,w
	iorwf	(sprintf@_val+2)^080h,w
	iorwf	(sprintf@_val+1)^080h,w
	iorwf	(sprintf@_val)^080h,w
	skipz
	goto	u3031
	goto	u3030
u3031:
	goto	l5617
u3030:
	line	1286
	
l5615:	
	incf	(sprintf@prec)^080h,f
	skipnz
	incf	(sprintf@prec+1)^080h,f
	line	1334
	
l5617:	
	movf	(sprintf@c)^080h,w
	bcf	status, 5	;RP0=0, select bank0
	movwf	(??_sprintf+0)+0
	clrf	(??_sprintf+0)+0+1
	btfsc	(??_sprintf+0)+0,7
	decf	(??_sprintf+0)+0+1,f
	movf	1+(??_sprintf+0)+0,w
	xorlw	80h
	movwf	(??_sprintf+2)+0
	bsf	status, 5	;RP0=1, select bank1
	movf	(sprintf@prec+1)^080h,w
	xorlw	80h
	bcf	status, 5	;RP0=0, select bank0
	subwf	(??_sprintf+2)+0,w
	skipz
	goto	u3045
	bsf	status, 5	;RP0=1, select bank1
	movf	(sprintf@prec)^080h,w
	bcf	status, 5	;RP0=0, select bank0
	subwf	0+(??_sprintf+0)+0,w
u3045:

	skipnc
	goto	u3041
	goto	u3040
u3041:
	goto	l5621
u3040:
	line	1335
	
l5619:	
	bsf	status, 5	;RP0=1, select bank1
	bcf	status, 6	;RP1=0, select bank1
	movf	(sprintf@prec)^080h,w
	movwf	(sprintf@c)^080h
	goto	l5625
	line	1336
	
l5621:	
	bsf	status, 5	;RP0=1, select bank1
	bcf	status, 6	;RP1=0, select bank1
	movf	(sprintf@c)^080h,w
	bcf	status, 5	;RP0=0, select bank0
	movwf	(??_sprintf+0)+0
	clrf	(??_sprintf+0)+0+1
	btfsc	(??_sprintf+0)+0,7
	decf	(??_sprintf+0)+0+1,f
	bsf	status, 5	;RP0=1, select bank1
	movf	(sprintf@prec+1)^080h,w
	xorlw	80h
	bcf	status, 5	;RP0=0, select bank0
	movwf	(??_sprintf+2)+0
	movf	1+(??_sprintf+0)+0,w
	xorlw	80h
	subwf	(??_sprintf+2)+0,w
	skipz
	goto	u3055
	movf	0+(??_sprintf+0)+0,w
	bsf	status, 5	;RP0=1, select bank1
	subwf	(sprintf@prec)^080h,w
u3055:

	skipnc
	goto	u3051
	goto	u3050
u3051:
	goto	l5625
u3050:
	line	1337
	
l5623:	
	bsf	status, 5	;RP0=1, select bank1
	bcf	status, 6	;RP1=0, select bank1
	movf	(sprintf@c)^080h,w
	movwf	(sprintf@prec)^080h
	clrf	(sprintf@prec+1)^080h
	btfsc	(sprintf@prec)^080h,7
	decf	(sprintf@prec+1)^080h,f
	line	1340
	
l5625:	
	bsf	status, 5	;RP0=1, select bank1
	bcf	status, 6	;RP1=0, select bank1
	movf	(sprintf@width+1)^080h,w
	iorwf	(sprintf@width)^080h,w
	skipnz
	goto	u3061
	goto	u3060
u3061:
	goto	l5631
u3060:
	
l5627:	
	movf	(sprintf@flag)^080h,w
	andlw	03h
	btfsc	status,2
	goto	u3071
	goto	u3070
u3071:
	goto	l5631
u3070:
	line	1341
	
l5629:	
	movlw	-1
	addwf	(sprintf@width)^080h,f
	skipc
	decf	(sprintf@width+1)^080h,f
	line	1343
	
l5631:	
	btfss	(sprintf@flag+1)^080h,(14)&7
	goto	u3081
	goto	u3080
u3081:
	goto	l5639
u3080:
	line	1344
	
l5633:	
	movf	(sprintf@prec+1)^080h,w
	xorlw	80h
	bcf	status, 5	;RP0=0, select bank0
	movwf	(??_sprintf+0)+0
	bsf	status, 5	;RP0=1, select bank1
	movf	(sprintf@width+1)^080h,w
	xorlw	80h
	bcf	status, 5	;RP0=0, select bank0
	subwf	(??_sprintf+0)+0,w
	skipz
	goto	u3095
	bsf	status, 5	;RP0=1, select bank1
	movf	(sprintf@width)^080h,w
	subwf	(sprintf@prec)^080h,w
u3095:

	skipnc
	goto	u3091
	goto	u3090
u3091:
	goto	l5637
u3090:
	line	1345
	
l5635:	
	bsf	status, 5	;RP0=1, select bank1
	bcf	status, 6	;RP1=0, select bank1
	movf	(sprintf@prec)^080h,w
	subwf	(sprintf@width)^080h,f
	movf	(sprintf@prec+1)^080h,w
	skipc
	decf	(sprintf@width+1)^080h,f
	subwf	(sprintf@width+1)^080h,f
	goto	l5639
	line	1347
	
l5637:	
	bsf	status, 5	;RP0=1, select bank1
	bcf	status, 6	;RP1=0, select bank1
	clrf	(sprintf@width)^080h
	clrf	(sprintf@width+1)^080h
	line	1376
	
l5639:	
	movf	(sprintf@c)^080h,w
	bcf	status, 5	;RP0=0, select bank0
	movwf	(??_sprintf+0)+0
	clrf	(??_sprintf+0)+0+1
	btfsc	(??_sprintf+0)+0,7
	decf	(??_sprintf+0)+0+1,f
	movf	1+(??_sprintf+0)+0,w
	xorlw	80h
	movwf	(??_sprintf+2)+0
	bsf	status, 5	;RP0=1, select bank1
	movf	(sprintf@width+1)^080h,w
	xorlw	80h
	bcf	status, 5	;RP0=0, select bank0
	subwf	(??_sprintf+2)+0,w
	skipz
	goto	u3105
	bsf	status, 5	;RP0=1, select bank1
	movf	(sprintf@width)^080h,w
	bcf	status, 5	;RP0=0, select bank0
	subwf	0+(??_sprintf+0)+0,w
u3105:

	skipnc
	goto	u3101
	goto	u3100
u3101:
	goto	l5643
u3100:
	line	1377
	
l5641:	
	bsf	status, 5	;RP0=1, select bank1
	bcf	status, 6	;RP1=0, select bank1
	movf	(sprintf@c)^080h,w
	bcf	status, 5	;RP0=0, select bank0
	movwf	(??_sprintf+0)+0
	clrf	(??_sprintf+0)+0+1
	btfsc	(??_sprintf+0)+0,7
	decf	(??_sprintf+0)+0+1,f
	movf	0+(??_sprintf+0)+0,w
	bsf	status, 5	;RP0=1, select bank1
	subwf	(sprintf@width)^080h,f
	bcf	status, 5	;RP0=0, select bank0
	movf	1+(??_sprintf+0)+0,w
	bsf	status, 5	;RP0=1, select bank1
	skipc
	decf	(sprintf@width+1)^080h,f
	subwf	(sprintf@width+1)^080h,f
	goto	l5645
	line	1379
	
l5643:	
	bsf	status, 5	;RP0=1, select bank1
	bcf	status, 6	;RP1=0, select bank1
	clrf	(sprintf@width)^080h
	clrf	(sprintf@width+1)^080h
	line	1423
	
l5645:	
	movf	(sprintf@width+1)^080h,w
	iorwf	(sprintf@width)^080h,w
	skipnz
	goto	u3111
	goto	u3110
u3111:
	goto	l5653
u3110:
	line	1425
	
l5647:	
	movf	(sprintf@sp)^080h,w
	movwf	fsr0
	movlw	(020h)
	bcf	status, 7	;select IRP bank0
	movwf	indf
	
l5649:	
	incf	(sprintf@sp)^080h,f
	line	1426
	
l5651:	
	movlw	-1
	addwf	(sprintf@width)^080h,f
	skipc
	decf	(sprintf@width+1)^080h,f
	movf	(((sprintf@width+1)^080h)),w
	iorwf	(((sprintf@width)^080h)),w
	skipz
	goto	u3121
	goto	u3120
u3121:
	goto	l5647
u3120:
	line	1433
	
l5653:	
	movf	(sprintf@flag)^080h,w
	andlw	03h
	btfsc	status,2
	goto	u3131
	goto	u3130
u3131:
	goto	l5659
u3130:
	line	1434
	
l5655:	
	movf	(sprintf@sp)^080h,w
	movwf	fsr0
	movlw	(02Dh)
	bcf	status, 7	;select IRP bank0
	movwf	indf
	goto	l5415
	line	540
	
l5659:	
	bcf	status, 5	;RP0=0, select bank0
	movf	(sprintf@f),w
	incf	(sprintf@f),f
	movwf	fsr0
	fcall	stringdir
	bsf	status, 5	;RP0=1, select bank1
	movwf	(sprintf@c)^080h
	movf	((sprintf@c)^080h),f
	skipz
	goto	u3141
	goto	u3140
u3141:
	goto	l5411
u3140:
	line	1530
	
l5661:	
	movf	(sprintf@sp)^080h,w
	movwf	fsr0
	bcf	status, 7	;select IRP bank0
	clrf	indf
	line	1533
	
l1209:	
	return
	opt stack 0
GLOBAL	__end_of_sprintf
	__end_of_sprintf:
;; =============== function _sprintf ends ============

	signat	_sprintf,4698
	global	_lcd_clear
psect	text525,local,class=CODE,delta=2
global __ptext525
__ptext525:

;; *************** function _lcd_clear *****************
;; Defined at:
;;		line 108 in file "C:\Users\Jorge\OneDrive\Escritorio\Microcontroladores\Proyectos\LCD1\LCD1.c"
;; Parameters:    Size  Location     Type
;;		None
;; Auto vars:     Size  Location     Type
;;		None
;; Return value:  Size  Location     Type
;;		None               void
;; Registers used:
;;		wreg, status,2, status,0, pclath, cstack
;; Tracked objects:
;;		On entry : 17F/0
;;		On exit  : 11F/0
;;		Unchanged: FFE80/0
;; Data sizes:     COMMON   BANK0   BANK1   BANK3   BANK2
;;      Params:         0       0       0       0       0
;;      Locals:         0       0       0       0       0
;;      Temps:          0       0       0       0       0
;;      Totals:         0       0       0       0       0
;;Total ram usage:        0 bytes
;; Hardware stack levels used:    1
;; Hardware stack levels required when called:    3
;; This function calls:
;;		_lcd_write
;;		_pause
;; This function is called by:
;;		_main
;;		_lcd_init
;; This function uses a non-reentrant model
;;
psect	text525
	file	"C:\Users\Jorge\OneDrive\Escritorio\Microcontroladores\Proyectos\LCD1\LCD1.c"
	line	108
	global	__size_of_lcd_clear
	__size_of_lcd_clear	equ	__end_of_lcd_clear-_lcd_clear
	
_lcd_clear:	
	opt	stack 4
; Regs used in _lcd_clear: [wreg+status,2+status,0+pclath+cstack]
	line	109
	
l5405:	
;LCD1.c: 109: RC3 = 0;
	bcf	(59/8),(59)&7
	line	110
	
l5407:	
;LCD1.c: 110: lcd_write(0x01);
	movlw	(01h)
	fcall	_lcd_write
	line	111
;LCD1.c: 111: pause (2);
	movlw	02h
	movwf	(?_pause)
	clrf	(?_pause+1)
	fcall	_pause
	line	112
	
l1063:	
	return
	opt stack 0
GLOBAL	__end_of_lcd_clear
	__end_of_lcd_clear:
;; =============== function _lcd_clear ends ============

	signat	_lcd_clear,88
	global	___ftsub
psect	text526,local,class=CODE,delta=2
global __ptext526
__ptext526:

;; *************** function ___ftsub *****************
;; Defined at:
;;		line 17 in file "C:\Program Files (x86)\HI-TECH Software\PICC\9.82\sources\ftsub.c"
;; Parameters:    Size  Location     Type
;;  f2              3   40[BANK0 ] float 
;;  f1              3   43[BANK0 ] float 
;; Auto vars:     Size  Location     Type
;;		None
;; Return value:  Size  Location     Type
;;                  3   40[BANK0 ] float 
;; Registers used:
;;		wreg, status,2, status,0, pclath, cstack
;; Tracked objects:
;;		On entry : 60/0
;;		On exit  : 60/0
;;		Unchanged: FFF9F/0
;; Data sizes:     COMMON   BANK0   BANK1   BANK3   BANK2
;;      Params:         0       6       0       0       0
;;      Locals:         0       0       0       0       0
;;      Temps:          0       0       0       0       0
;;      Totals:         0       6       0       0       0
;;Total ram usage:        6 bytes
;; Hardware stack levels used:    1
;; Hardware stack levels required when called:    2
;; This function calls:
;;		___ftadd
;; This function is called by:
;;		_sprintf
;; This function uses a non-reentrant model
;;
psect	text526
	file	"C:\Program Files (x86)\HI-TECH Software\PICC\9.82\sources\ftsub.c"
	line	17
	global	__size_of___ftsub
	__size_of___ftsub	equ	__end_of___ftsub-___ftsub
	
___ftsub:	
	opt	stack 4
; Regs used in ___ftsub: [wreg+status,2+status,0+pclath+cstack]
	line	18
	
l5399:	
	movlw	080h
	xorwf	(___ftsub@f2+2),f
	line	19
	
l5401:	
	movf	(___ftsub@f1),w
	movwf	(?___ftadd)
	movf	(___ftsub@f1+1),w
	movwf	(?___ftadd+1)
	movf	(___ftsub@f1+2),w
	movwf	(?___ftadd+2)
	movf	(___ftsub@f2),w
	movwf	0+(?___ftadd)+03h
	movf	(___ftsub@f2+1),w
	movwf	1+(?___ftadd)+03h
	movf	(___ftsub@f2+2),w
	movwf	2+(?___ftadd)+03h
	fcall	___ftadd
	movf	(0+(?___ftadd)),w
	movwf	(?___ftsub)
	movf	(1+(?___ftadd)),w
	movwf	(?___ftsub+1)
	movf	(2+(?___ftadd)),w
	movwf	(?___ftsub+2)
	line	20
	
l2290:	
	return
	opt stack 0
GLOBAL	__end_of___ftsub
	__end_of___ftsub:
;; =============== function ___ftsub ends ============

	signat	___ftsub,8315
	global	_scale
psect	text527,local,class=CODE,delta=2
global __ptext527
__ptext527:

;; *************** function _scale *****************
;; Defined at:
;;		line 422 in file "C:\Program Files (x86)\HI-TECH Software\PICC\9.82\lib\doprnt.c"
;; Parameters:    Size  Location     Type
;;  scl             1    wreg     char 
;; Auto vars:     Size  Location     Type
;;  scl             1   38[BANK0 ] char 
;; Return value:  Size  Location     Type
;;                  3   28[BANK0 ] char 
;; Registers used:
;;		wreg, fsr0l, fsr0h, status,2, status,0, pclath, cstack
;; Tracked objects:
;;		On entry : 60/20
;;		On exit  : 60/0
;;		Unchanged: FFF9F/0
;; Data sizes:     COMMON   BANK0   BANK1   BANK3   BANK2
;;      Params:         0       3       0       0       0
;;      Locals:         0       4       0       0       0
;;      Temps:          0       4       0       0       0
;;      Totals:         0      11       0       0       0
;;Total ram usage:       11 bytes
;; Hardware stack levels used:    1
;; Hardware stack levels required when called:    2
;; This function calls:
;;		___awmod
;;		___awdiv
;;		___ftmul
;;		___bmul
;; This function is called by:
;;		_sprintf
;; This function uses a non-reentrant model
;;
psect	text527
	file	"C:\Program Files (x86)\HI-TECH Software\PICC\9.82\sources\doprnt.c"
	line	422
	global	__size_of_scale
	__size_of_scale	equ	__end_of_scale-_scale
	
_scale:	
	opt	stack 4
; Regs used in _scale: [wreg-fsr0h+status,2+status,0+pclath+cstack]
;scale@scl stored from wreg
	line	424
	bcf	status, 5	;RP0=0, select bank0
	movwf	(scale@scl)
	
l5359:	
	btfss	(scale@scl),7
	goto	u2661
	goto	u2660
u2661:
	goto	l5381
u2660:
	line	425
	
l5361:	
	comf	(scale@scl),f
	incf	(scale@scl),f
	line	426
	
l5363:	
	movf	(scale@scl),w
	xorlw	80h
	addlw	-((06Eh)^80h)
	skipc
	goto	u2671
	goto	u2670
u2671:
	goto	l5371
u2670:
	line	427
	
l5365:	
	movlw	0Ah
	movwf	(?___awdiv)
	clrf	(?___awdiv+1)
	movf	(scale@scl),w
	movwf	0+(?___awmod)+02h
	clrf	1+(?___awmod)+02h
	btfsc	0+(?___awmod)+02h,7
	decf	1+(?___awmod)+02h,f
	movlw	064h
	movwf	(?___awmod)
	clrf	(?___awmod+1)
	fcall	___awmod
	movf	(1+(?___awmod)),w
	movwf	1+(?___awdiv)+02h
	movf	(0+(?___awmod)),w
	movwf	0+(?___awdiv)+02h
	fcall	___awdiv
	movf	(0+?___awdiv),w
	movwf	(??_scale+0)+0
	movf	(1+?___awdiv),w
	movwf	((??_scale+0)+0+1)
	movf	0+(??_scale+0)+0,w
	addwf	0+(??_scale+0)+0,w
	addwf	0+(??_scale+0)+0,w
	addlw	low((__npowers_-__stringbase)+01Bh)
	movwf	fsr0
	fcall	stringdir
	movwf	(?___ftmul)
	fcall	stringdir
	movwf	(?___ftmul+1)
	fcall	stringdir
	movwf	(?___ftmul+2)
	movlw	064h
	movwf	(?___awdiv)
	clrf	(?___awdiv+1)
	movf	(scale@scl),w
	movwf	0+(?___awdiv)+02h
	clrf	1+(?___awdiv)+02h
	btfsc	0+(?___awdiv)+02h,7
	decf	1+(?___awdiv)+02h,f
	fcall	___awdiv
	movf	(0+?___awdiv),w
	movwf	(??_scale+2)+0
	movf	(1+?___awdiv),w
	movwf	((??_scale+2)+0+1)
	movf	0+(??_scale+2)+0,w
	addwf	0+(??_scale+2)+0,w
	addwf	0+(??_scale+2)+0,w
	addlw	low((__npowers_-__stringbase)+036h)
	movwf	fsr0
	fcall	stringdir
	movwf	0+(?___ftmul)+03h
	fcall	stringdir
	movwf	1+(?___ftmul)+03h
	fcall	stringdir
	movwf	2+(?___ftmul)+03h
	fcall	___ftmul
	movf	(0+(?___ftmul)),w
	movwf	(_scale$2845)
	movf	(1+(?___ftmul)),w
	movwf	(_scale$2845+1)
	movf	(2+(?___ftmul)),w
	movwf	(_scale$2845+2)
	movlw	0Ah
	movwf	(?___awmod)
	clrf	(?___awmod+1)
	movf	(scale@scl),w
	movwf	0+(?___awmod)+02h
	clrf	1+(?___awmod)+02h
	btfsc	0+(?___awmod)+02h,7
	decf	1+(?___awmod)+02h,f
	fcall	___awmod
	movf	(0+?___awmod),w
	movwf	(??_scale+0)+0
	movf	(1+?___awmod),w
	movwf	((??_scale+0)+0+1)
	movf	0+(??_scale+0)+0,w
	addwf	0+(??_scale+0)+0,w
	addwf	0+(??_scale+0)+0,w
	addlw	low((__npowers_-__stringbase))
	movwf	fsr0
	fcall	stringdir
	movwf	(?___ftmul)
	fcall	stringdir
	movwf	(?___ftmul+1)
	fcall	stringdir
	movwf	(?___ftmul+2)
	movf	(_scale$2845),w
	movwf	0+(?___ftmul)+03h
	movf	(_scale$2845+1),w
	movwf	1+(?___ftmul)+03h
	movf	(_scale$2845+2),w
	movwf	2+(?___ftmul)+03h
	fcall	___ftmul
	movf	(0+(?___ftmul)),w
	movwf	(?_scale)
	movf	(1+(?___ftmul)),w
	movwf	(?_scale+1)
	movf	(2+(?___ftmul)),w
	movwf	(?_scale+2)
	goto	l1126
	line	428
	
l5371:	
	movf	(scale@scl),w
	xorlw	80h
	addlw	-((0Bh)^80h)
	skipc
	goto	u2681
	goto	u2680
u2681:
	goto	l5377
u2680:
	line	429
	
l5373:	
	movlw	0Ah
	movwf	(?___awmod)
	clrf	(?___awmod+1)
	movf	(scale@scl),w
	movwf	0+(?___awmod)+02h
	clrf	1+(?___awmod)+02h
	btfsc	0+(?___awmod)+02h,7
	decf	1+(?___awmod)+02h,f
	fcall	___awmod
	movf	(0+?___awmod),w
	movwf	(??_scale+0)+0
	movf	(1+?___awmod),w
	movwf	((??_scale+0)+0+1)
	movf	0+(??_scale+0)+0,w
	addwf	0+(??_scale+0)+0,w
	addwf	0+(??_scale+0)+0,w
	addlw	low((__npowers_-__stringbase))
	movwf	fsr0
	fcall	stringdir
	movwf	(?___ftmul)
	fcall	stringdir
	movwf	(?___ftmul+1)
	fcall	stringdir
	movwf	(?___ftmul+2)
	movlw	0Ah
	movwf	(?___awdiv)
	clrf	(?___awdiv+1)
	movf	(scale@scl),w
	movwf	0+(?___awdiv)+02h
	clrf	1+(?___awdiv)+02h
	btfsc	0+(?___awdiv)+02h,7
	decf	1+(?___awdiv)+02h,f
	fcall	___awdiv
	movf	(0+?___awdiv),w
	movwf	(??_scale+2)+0
	movf	(1+?___awdiv),w
	movwf	((??_scale+2)+0+1)
	movf	0+(??_scale+2)+0,w
	addwf	0+(??_scale+2)+0,w
	addwf	0+(??_scale+2)+0,w
	addlw	low((__npowers_-__stringbase)+01Bh)
	movwf	fsr0
	fcall	stringdir
	movwf	0+(?___ftmul)+03h
	fcall	stringdir
	movwf	1+(?___ftmul)+03h
	fcall	stringdir
	movwf	2+(?___ftmul)+03h
	fcall	___ftmul
	movf	(0+(?___ftmul)),w
	movwf	(?_scale)
	movf	(1+(?___ftmul)),w
	movwf	(?_scale+1)
	movf	(2+(?___ftmul)),w
	movwf	(?_scale+2)
	goto	l1126
	line	430
	
l5377:	
	movlw	(03h)
	movwf	(?___bmul)
	movf	(scale@scl),w
	fcall	___bmul
	addlw	low((__npowers_-__stringbase))
	movwf	fsr0
	fcall	stringdir
	movwf	(?_scale)
	fcall	stringdir
	movwf	(?_scale+1)
	fcall	stringdir
	movwf	(?_scale+2)
	goto	l1126
	line	432
	
l5381:	
	movf	(scale@scl),w
	xorlw	80h
	addlw	-((06Eh)^80h)
	skipc
	goto	u2691
	goto	u2690
u2691:
	goto	l5389
u2690:
	line	433
	
l5383:	
	movlw	0Ah
	movwf	(?___awdiv)
	clrf	(?___awdiv+1)
	movf	(scale@scl),w
	movwf	0+(?___awmod)+02h
	clrf	1+(?___awmod)+02h
	btfsc	0+(?___awmod)+02h,7
	decf	1+(?___awmod)+02h,f
	movlw	064h
	movwf	(?___awmod)
	clrf	(?___awmod+1)
	fcall	___awmod
	movf	(1+(?___awmod)),w
	movwf	1+(?___awdiv)+02h
	movf	(0+(?___awmod)),w
	movwf	0+(?___awdiv)+02h
	fcall	___awdiv
	movf	(0+?___awdiv),w
	movwf	(??_scale+0)+0
	movf	(1+?___awdiv),w
	movwf	((??_scale+0)+0+1)
	movf	0+(??_scale+0)+0,w
	addwf	0+(??_scale+0)+0,w
	addwf	0+(??_scale+0)+0,w
	addlw	low((__powers_-__stringbase)+01Bh)
	movwf	fsr0
	fcall	stringdir
	movwf	(?___ftmul)
	fcall	stringdir
	movwf	(?___ftmul+1)
	fcall	stringdir
	movwf	(?___ftmul+2)
	movlw	064h
	movwf	(?___awdiv)
	clrf	(?___awdiv+1)
	movf	(scale@scl),w
	movwf	0+(?___awdiv)+02h
	clrf	1+(?___awdiv)+02h
	btfsc	0+(?___awdiv)+02h,7
	decf	1+(?___awdiv)+02h,f
	fcall	___awdiv
	movf	(0+?___awdiv),w
	movwf	(??_scale+2)+0
	movf	(1+?___awdiv),w
	movwf	((??_scale+2)+0+1)
	movf	0+(??_scale+2)+0,w
	addwf	0+(??_scale+2)+0,w
	addwf	0+(??_scale+2)+0,w
	addlw	low((__powers_-__stringbase)+036h)
	movwf	fsr0
	fcall	stringdir
	movwf	0+(?___ftmul)+03h
	fcall	stringdir
	movwf	1+(?___ftmul)+03h
	fcall	stringdir
	movwf	2+(?___ftmul)+03h
	fcall	___ftmul
	movf	(0+(?___ftmul)),w
	movwf	(_scale$2845)
	movf	(1+(?___ftmul)),w
	movwf	(_scale$2845+1)
	movf	(2+(?___ftmul)),w
	movwf	(_scale$2845+2)
	movlw	0Ah
	movwf	(?___awmod)
	clrf	(?___awmod+1)
	movf	(scale@scl),w
	movwf	0+(?___awmod)+02h
	clrf	1+(?___awmod)+02h
	btfsc	0+(?___awmod)+02h,7
	decf	1+(?___awmod)+02h,f
	fcall	___awmod
	movf	(0+?___awmod),w
	movwf	(??_scale+0)+0
	movf	(1+?___awmod),w
	movwf	((??_scale+0)+0+1)
	movf	0+(??_scale+0)+0,w
	addwf	0+(??_scale+0)+0,w
	addwf	0+(??_scale+0)+0,w
	addlw	low((__powers_-__stringbase))
	movwf	fsr0
	fcall	stringdir
	movwf	(?___ftmul)
	fcall	stringdir
	movwf	(?___ftmul+1)
	fcall	stringdir
	movwf	(?___ftmul+2)
	movf	(_scale$2845),w
	movwf	0+(?___ftmul)+03h
	movf	(_scale$2845+1),w
	movwf	1+(?___ftmul)+03h
	movf	(_scale$2845+2),w
	movwf	2+(?___ftmul)+03h
	fcall	___ftmul
	movf	(0+(?___ftmul)),w
	movwf	(?_scale)
	movf	(1+(?___ftmul)),w
	movwf	(?_scale+1)
	movf	(2+(?___ftmul)),w
	movwf	(?_scale+2)
	goto	l1126
	line	434
	
l5389:	
	movf	(scale@scl),w
	xorlw	80h
	addlw	-((0Bh)^80h)
	skipc
	goto	u2701
	goto	u2700
u2701:
	goto	l5395
u2700:
	line	435
	
l5391:	
	movlw	0Ah
	movwf	(?___awmod)
	clrf	(?___awmod+1)
	movf	(scale@scl),w
	movwf	0+(?___awmod)+02h
	clrf	1+(?___awmod)+02h
	btfsc	0+(?___awmod)+02h,7
	decf	1+(?___awmod)+02h,f
	fcall	___awmod
	movf	(0+?___awmod),w
	movwf	(??_scale+0)+0
	movf	(1+?___awmod),w
	movwf	((??_scale+0)+0+1)
	movf	0+(??_scale+0)+0,w
	addwf	0+(??_scale+0)+0,w
	addwf	0+(??_scale+0)+0,w
	addlw	low((__powers_-__stringbase))
	movwf	fsr0
	fcall	stringdir
	movwf	(?___ftmul)
	fcall	stringdir
	movwf	(?___ftmul+1)
	fcall	stringdir
	movwf	(?___ftmul+2)
	movlw	0Ah
	movwf	(?___awdiv)
	clrf	(?___awdiv+1)
	movf	(scale@scl),w
	movwf	0+(?___awdiv)+02h
	clrf	1+(?___awdiv)+02h
	btfsc	0+(?___awdiv)+02h,7
	decf	1+(?___awdiv)+02h,f
	fcall	___awdiv
	movf	(0+?___awdiv),w
	movwf	(??_scale+2)+0
	movf	(1+?___awdiv),w
	movwf	((??_scale+2)+0+1)
	movf	0+(??_scale+2)+0,w
	addwf	0+(??_scale+2)+0,w
	addwf	0+(??_scale+2)+0,w
	addlw	low((__powers_-__stringbase)+01Bh)
	movwf	fsr0
	fcall	stringdir
	movwf	0+(?___ftmul)+03h
	fcall	stringdir
	movwf	1+(?___ftmul)+03h
	fcall	stringdir
	movwf	2+(?___ftmul)+03h
	fcall	___ftmul
	movf	(0+(?___ftmul)),w
	movwf	(?_scale)
	movf	(1+(?___ftmul)),w
	movwf	(?_scale+1)
	movf	(2+(?___ftmul)),w
	movwf	(?_scale+2)
	goto	l1126
	line	436
	
l5395:	
	movlw	(03h)
	movwf	(?___bmul)
	movf	(scale@scl),w
	fcall	___bmul
	addlw	low((__powers_-__stringbase))
	movwf	fsr0
	fcall	stringdir
	movwf	(?_scale)
	fcall	stringdir
	movwf	(?_scale+1)
	fcall	stringdir
	movwf	(?_scale+2)
	line	437
	
l1126:	
	return
	opt stack 0
GLOBAL	__end_of_scale
	__end_of_scale:
;; =============== function _scale ends ============

	signat	_scale,4219
	global	_fround
psect	text528,local,class=CODE,delta=2
global __ptext528
__ptext528:

;; *************** function _fround *****************
;; Defined at:
;;		line 406 in file "C:\Program Files (x86)\HI-TECH Software\PICC\9.82\lib\doprnt.c"
;; Parameters:    Size  Location     Type
;;  prec            1    wreg     unsigned char 
;; Auto vars:     Size  Location     Type
;;  prec            1   49[BANK0 ] unsigned char 
;; Return value:  Size  Location     Type
;;                  3   40[BANK0 ] unsigned char 
;; Registers used:
;;		wreg, fsr0l, fsr0h, status,2, status,0, pclath, cstack
;; Tracked objects:
;;		On entry : 60/20
;;		On exit  : 60/0
;;		Unchanged: FFF9F/0
;; Data sizes:     COMMON   BANK0   BANK1   BANK3   BANK2
;;      Params:         0       3       0       0       0
;;      Locals:         0       7       0       0       0
;;      Temps:          0       0       0       0       0
;;      Totals:         0      10       0       0       0
;;Total ram usage:       10 bytes
;; Hardware stack levels used:    1
;; Hardware stack levels required when called:    2
;; This function calls:
;;		___lbmod
;;		___bmul
;;		___lbdiv
;;		___ftmul
;; This function is called by:
;;		_sprintf
;; This function uses a non-reentrant model
;;
psect	text528
	file	"C:\Program Files (x86)\HI-TECH Software\PICC\9.82\sources\doprnt.c"
	line	406
	global	__size_of_fround
	__size_of_fround	equ	__end_of_fround-_fround
	
_fround:	
	opt	stack 4
; Regs used in _fround: [wreg-fsr0h+status,2+status,0+pclath+cstack]
;fround@prec stored from wreg
	line	409
	bcf	status, 5	;RP0=0, select bank0
	movwf	(fround@prec)
	
l5337:	
	movlw	(06Eh)
	subwf	(fround@prec),w
	skipc
	goto	u2641
	goto	u2640
u2641:
	goto	l5347
u2640:
	line	410
	
l5339:	
	movlw	(03h)
	movwf	(?___bmul)
	movlw	(0Ah)
	movwf	(?___lbdiv)
	movlw	(064h)
	movwf	(?___lbmod)
	movf	(fround@prec),w
	fcall	___lbmod
	fcall	___lbdiv
	fcall	___bmul
	addlw	low((__npowers_-__stringbase)+01Bh)
	movwf	fsr0
	fcall	stringdir
	movwf	(?___ftmul)
	fcall	stringdir
	movwf	(?___ftmul+1)
	fcall	stringdir
	movwf	(?___ftmul+2)
	movlw	(03h)
	movwf	(?___bmul)
	movlw	(064h)
	movwf	(?___lbdiv)
	movf	(fround@prec),w
	fcall	___lbdiv
	fcall	___bmul
	addlw	low((__npowers_-__stringbase)+036h)
	movwf	fsr0
	fcall	stringdir
	movwf	0+(?___ftmul)+03h
	fcall	stringdir
	movwf	1+(?___ftmul)+03h
	fcall	stringdir
	movwf	2+(?___ftmul)+03h
	fcall	___ftmul
	movf	(0+(?___ftmul)),w
	movwf	(_fround$2843)
	movf	(1+(?___ftmul)),w
	movwf	(_fround$2843+1)
	movf	(2+(?___ftmul)),w
	movwf	(_fround$2843+2)
	movlw	(03h)
	movwf	(?___bmul)
	movlw	(0Ah)
	movwf	(?___lbmod)
	movf	(fround@prec),w
	fcall	___lbmod
	fcall	___bmul
	addlw	low((__npowers_-__stringbase))
	movwf	fsr0
	fcall	stringdir
	movwf	(?___ftmul)
	fcall	stringdir
	movwf	(?___ftmul+1)
	fcall	stringdir
	movwf	(?___ftmul+2)
	movf	(_fround$2843),w
	movwf	0+(?___ftmul)+03h
	movf	(_fround$2843+1),w
	movwf	1+(?___ftmul)+03h
	movf	(_fround$2843+2),w
	movwf	2+(?___ftmul)+03h
	fcall	___ftmul
	movf	(0+(?___ftmul)),w
	movwf	(_fround$2844)
	movf	(1+(?___ftmul)),w
	movwf	(_fround$2844+1)
	movf	(2+(?___ftmul)),w
	movwf	(_fround$2844+2)
	
l5341:	
	movlw	0x0
	movwf	(?___ftmul)
	movlw	0x0
	movwf	(?___ftmul+1)
	movlw	0x3f
	movwf	(?___ftmul+2)
	movf	(_fround$2844),w
	movwf	0+(?___ftmul)+03h
	movf	(_fround$2844+1),w
	movwf	1+(?___ftmul)+03h
	movf	(_fround$2844+2),w
	movwf	2+(?___ftmul)+03h
	fcall	___ftmul
	movf	(0+(?___ftmul)),w
	movwf	(?_fround)
	movf	(1+(?___ftmul)),w
	movwf	(?_fround+1)
	movf	(2+(?___ftmul)),w
	movwf	(?_fround+2)
	goto	l1119
	line	411
	
l5347:	
	movlw	(0Bh)
	subwf	(fround@prec),w
	skipc
	goto	u2651
	goto	u2650
u2651:
	goto	l5355
u2650:
	line	412
	
l5349:	
	movlw	(03h)
	movwf	(?___bmul)
	movlw	(0Ah)
	movwf	(?___lbmod)
	movf	(fround@prec),w
	fcall	___lbmod
	fcall	___bmul
	addlw	low((__npowers_-__stringbase))
	movwf	fsr0
	fcall	stringdir
	movwf	(?___ftmul)
	fcall	stringdir
	movwf	(?___ftmul+1)
	fcall	stringdir
	movwf	(?___ftmul+2)
	movlw	(03h)
	movwf	(?___bmul)
	movlw	(0Ah)
	movwf	(?___lbdiv)
	movf	(fround@prec),w
	fcall	___lbdiv
	fcall	___bmul
	addlw	low((__npowers_-__stringbase)+01Bh)
	movwf	fsr0
	fcall	stringdir
	movwf	0+(?___ftmul)+03h
	fcall	stringdir
	movwf	1+(?___ftmul)+03h
	fcall	stringdir
	movwf	2+(?___ftmul)+03h
	fcall	___ftmul
	movf	(0+(?___ftmul)),w
	movwf	(_fround$2843)
	movf	(1+(?___ftmul)),w
	movwf	(_fround$2843+1)
	movf	(2+(?___ftmul)),w
	movwf	(_fround$2843+2)
	
l5351:	
	movlw	0x0
	movwf	(?___ftmul)
	movlw	0x0
	movwf	(?___ftmul+1)
	movlw	0x3f
	movwf	(?___ftmul+2)
	movf	(_fround$2843),w
	movwf	0+(?___ftmul)+03h
	movf	(_fround$2843+1),w
	movwf	1+(?___ftmul)+03h
	movf	(_fround$2843+2),w
	movwf	2+(?___ftmul)+03h
	fcall	___ftmul
	movf	(0+(?___ftmul)),w
	movwf	(?_fround)
	movf	(1+(?___ftmul)),w
	movwf	(?_fround+1)
	movf	(2+(?___ftmul)),w
	movwf	(?_fround+2)
	goto	l1119
	line	413
	
l5355:	
	movlw	0x0
	movwf	(?___ftmul)
	movlw	0x0
	movwf	(?___ftmul+1)
	movlw	0x3f
	movwf	(?___ftmul+2)
	movlw	(03h)
	movwf	(?___bmul)
	movf	(fround@prec),w
	fcall	___bmul
	addlw	low((__npowers_-__stringbase))
	movwf	fsr0
	fcall	stringdir
	movwf	0+(?___ftmul)+03h
	fcall	stringdir
	movwf	1+(?___ftmul)+03h
	fcall	stringdir
	movwf	2+(?___ftmul)+03h
	fcall	___ftmul
	movf	(0+(?___ftmul)),w
	movwf	(?_fround)
	movf	(1+(?___ftmul)),w
	movwf	(?_fround+1)
	movf	(2+(?___ftmul)),w
	movwf	(?_fround+2)
	line	414
	
l1119:	
	return
	opt stack 0
GLOBAL	__end_of_fround
	__end_of_fround:
;; =============== function _fround ends ============

	signat	_fround,4219
	global	_lcd_write
psect	text529,local,class=CODE,delta=2
global __ptext529
__ptext529:

;; *************** function _lcd_write *****************
;; Defined at:
;;		line 99 in file "C:\Users\Jorge\OneDrive\Escritorio\Microcontroladores\Proyectos\LCD1\LCD1.c"
;; Parameters:    Size  Location     Type
;;  c               1    wreg     unsigned char 
;; Auto vars:     Size  Location     Type
;;  c               1    4[COMMON] unsigned char 
;; Return value:  Size  Location     Type
;;		None               void
;; Registers used:
;;		wreg, status,2, status,0, pclath, cstack
;; Tracked objects:
;;		On entry : 0/0
;;		On exit  : 60/0
;;		Unchanged: FFF9F/0
;; Data sizes:     COMMON   BANK0   BANK1   BANK3   BANK2
;;      Params:         0       0       0       0       0
;;      Locals:         1       0       0       0       0
;;      Temps:          0       0       0       0       0
;;      Totals:         1       0       0       0       0
;;Total ram usage:        1 bytes
;; Hardware stack levels used:    1
;; Hardware stack levels required when called:    2
;; This function calls:
;;		_pause
;; This function is called by:
;;		_lcd_clear
;;		_lcd_puts
;;		_lcd_goto
;;		_lcd_init
;; This function uses a non-reentrant model
;;
psect	text529
	file	"C:\Users\Jorge\OneDrive\Escritorio\Microcontroladores\Proyectos\LCD1\LCD1.c"
	line	99
	global	__size_of_lcd_write
	__size_of_lcd_write	equ	__end_of_lcd_write-_lcd_write
	
_lcd_write:	
	opt	stack 4
; Regs used in _lcd_write: [wreg+status,2+status,0+pclath+cstack]
;lcd_write@c stored from wreg
	movwf	(lcd_write@c)
	line	100
	
l5323:	
;LCD1.c: 100: pause(1);
	clrf	(?_pause)
	incf	(?_pause),f
	clrf	(?_pause+1)
	fcall	_pause
	line	101
	
l5325:	
;LCD1.c: 101: PORTD = ( ( c >> 4) & 0x0F);
	swapf	(lcd_write@c),w
	andlw	(0ffh shr 4) & 0ffh
	andlw	0Fh
	bcf	status, 5	;RP0=0, select bank0
	bcf	status, 6	;RP1=0, select bank0
	movwf	(8)	;volatile
	line	102
	
l5327:	
;LCD1.c: 102: ((RC0 = 1 , RC0 = 0));
	bsf	(56/8),(56)&7
	
l5329:	
	bcf	(56/8),(56)&7
	line	103
	
l5331:	
;LCD1.c: 103: PORTD = (c & 0x0F);
	movf	(lcd_write@c),w
	andlw	0Fh
	movwf	(8)	;volatile
	line	104
	
l5333:	
;LCD1.c: 104: ((RC0 = 1 , RC0 = 0));
	bsf	(56/8),(56)&7
	
l5335:	
	bcf	(56/8),(56)&7
	line	105
	
l1060:	
	return
	opt stack 0
GLOBAL	__end_of_lcd_write
	__end_of_lcd_write:
;; =============== function _lcd_write ends ============

	signat	_lcd_write,4216
	global	___lltoft
psect	text530,local,class=CODE,delta=2
global __ptext530
__ptext530:

;; *************** function ___lltoft *****************
;; Defined at:
;;		line 36 in file "C:\Program Files (x86)\HI-TECH Software\PICC\9.82\sources\lltoft.c"
;; Parameters:    Size  Location     Type
;;  c               4    8[COMMON] unsigned long 
;; Auto vars:     Size  Location     Type
;;  exp             1   12[COMMON] unsigned char 
;; Return value:  Size  Location     Type
;;                  3    8[COMMON] float 
;; Registers used:
;;		wreg, status,2, status,0, pclath, cstack
;; Tracked objects:
;;		On entry : 60/20
;;		On exit  : 60/20
;;		Unchanged: FFF9F/0
;; Data sizes:     COMMON   BANK0   BANK1   BANK3   BANK2
;;      Params:         4       0       0       0       0
;;      Locals:         1       0       0       0       0
;;      Temps:          0       0       0       0       0
;;      Totals:         5       0       0       0       0
;;Total ram usage:        5 bytes
;; Hardware stack levels used:    1
;; Hardware stack levels required when called:    1
;; This function calls:
;;		___ftpack
;; This function is called by:
;;		_sprintf
;; This function uses a non-reentrant model
;;
psect	text530
	file	"C:\Program Files (x86)\HI-TECH Software\PICC\9.82\sources\lltoft.c"
	line	36
	global	__size_of___lltoft
	__size_of___lltoft	equ	__end_of___lltoft-___lltoft
	
___lltoft:	
	opt	stack 5
; Regs used in ___lltoft: [wreg+status,2+status,0+pclath+cstack]
	line	38
	
l5313:	
	movlw	(08Eh)
	movwf	(___lltoft@exp)
	line	41
	goto	l5317
	line	42
	
l5315:	
	clrc
	rrf	(___lltoft@c+3),f
	rrf	(___lltoft@c+2),f
	rrf	(___lltoft@c+1),f
	rrf	(___lltoft@c),f
	line	43
	incf	(___lltoft@exp),f
	line	41
	
l5317:	
	movlw	high highword(-16777216)
	andwf	(___lltoft@c+3),w
	btfss	status,2
	goto	u2631
	goto	u2630
u2631:
	goto	l5315
u2630:
	line	45
	
l5319:	
	movf	(___lltoft@c),w
	movwf	(?___ftpack)
	movf	(___lltoft@c+1),w
	movwf	(?___ftpack+1)
	movf	(___lltoft@c+2),w
	movwf	(?___ftpack+2)
	movf	(___lltoft@exp),w
	movwf	0+(?___ftpack)+03h
	clrf	0+(?___ftpack)+04h
	fcall	___ftpack
	movf	(0+(?___ftpack)),w
	movwf	(?___lltoft)
	movf	(1+(?___ftpack)),w
	movwf	(?___lltoft+1)
	movf	(2+(?___ftpack)),w
	movwf	(?___lltoft+2)
	line	46
	
l2447:	
	return
	opt stack 0
GLOBAL	__end_of___lltoft
	__end_of___lltoft:
;; =============== function ___lltoft ends ============

	signat	___lltoft,4219
	global	___awtoft
psect	text531,local,class=CODE,delta=2
global __ptext531
__ptext531:

;; *************** function ___awtoft *****************
;; Defined at:
;;		line 33 in file "C:\Program Files (x86)\HI-TECH Software\PICC\9.82\sources\awtoft.c"
;; Parameters:    Size  Location     Type
;;  c               2    8[COMMON] int 
;; Auto vars:     Size  Location     Type
;;  sign            1   11[COMMON] unsigned char 
;; Return value:  Size  Location     Type
;;                  3    8[COMMON] float 
;; Registers used:
;;		wreg, status,2, status,0, pclath, cstack
;; Tracked objects:
;;		On entry : 60/20
;;		On exit  : 60/20
;;		Unchanged: FFF9F/0
;; Data sizes:     COMMON   BANK0   BANK1   BANK3   BANK2
;;      Params:         3       0       0       0       0
;;      Locals:         1       0       0       0       0
;;      Temps:          0       0       0       0       0
;;      Totals:         4       0       0       0       0
;;Total ram usage:        4 bytes
;; Hardware stack levels used:    1
;; Hardware stack levels required when called:    1
;; This function calls:
;;		___ftpack
;; This function is called by:
;;		_main
;; This function uses a non-reentrant model
;;
psect	text531
	file	"C:\Program Files (x86)\HI-TECH Software\PICC\9.82\sources\awtoft.c"
	line	33
	global	__size_of___awtoft
	__size_of___awtoft	equ	__end_of___awtoft-___awtoft
	
___awtoft:	
	opt	stack 6
; Regs used in ___awtoft: [wreg+status,2+status,0+pclath+cstack]
	line	36
	
l5301:	
	clrf	(___awtoft@sign)
	line	37
	
l5303:	
	btfss	(___awtoft@c+1),7
	goto	u2621
	goto	u2620
u2621:
	goto	l5309
u2620:
	line	38
	
l5305:	
	comf	(___awtoft@c),f
	comf	(___awtoft@c+1),f
	incf	(___awtoft@c),f
	skipnz
	incf	(___awtoft@c+1),f
	line	39
	
l5307:	
	clrf	(___awtoft@sign)
	incf	(___awtoft@sign),f
	line	41
	
l5309:	
	movf	(___awtoft@c),w
	movwf	(?___ftpack)
	movf	(___awtoft@c+1),w
	movwf	(?___ftpack+1)
	clrf	(?___ftpack+2)
	movlw	(08Eh)
	movwf	0+(?___ftpack)+03h
	movf	(___awtoft@sign),w
	movwf	0+(?___ftpack)+04h
	fcall	___ftpack
	movf	(0+(?___ftpack)),w
	movwf	(?___awtoft)
	movf	(1+(?___ftpack)),w
	movwf	(?___awtoft+1)
	movf	(2+(?___ftpack)),w
	movwf	(?___awtoft+2)
	line	42
	
l2344:	
	return
	opt stack 0
GLOBAL	__end_of___awtoft
	__end_of___awtoft:
;; =============== function ___awtoft ends ============

	signat	___awtoft,4219
	global	___ftmul
psect	text532,local,class=CODE,delta=2
global __ptext532
__ptext532:

;; *************** function ___ftmul *****************
;; Defined at:
;;		line 52 in file "C:\Program Files (x86)\HI-TECH Software\PICC\9.82\sources\ftmul.c"
;; Parameters:    Size  Location     Type
;;  f1              3   13[BANK0 ] float 
;;  f2              3   16[BANK0 ] float 
;; Auto vars:     Size  Location     Type
;;  f3_as_produc    3   23[BANK0 ] unsigned um
;;  sign            1   27[BANK0 ] unsigned char 
;;  cntr            1   26[BANK0 ] unsigned char 
;;  exp             1   22[BANK0 ] unsigned char 
;; Return value:  Size  Location     Type
;;                  3   13[BANK0 ] float 
;; Registers used:
;;		wreg, status,2, status,0, pclath, cstack
;; Tracked objects:
;;		On entry : 60/0
;;		On exit  : 60/0
;;		Unchanged: FFF9F/0
;; Data sizes:     COMMON   BANK0   BANK1   BANK3   BANK2
;;      Params:         0       6       0       0       0
;;      Locals:         0       6       0       0       0
;;      Temps:          0       3       0       0       0
;;      Totals:         0      15       0       0       0
;;Total ram usage:       15 bytes
;; Hardware stack levels used:    1
;; Hardware stack levels required when called:    1
;; This function calls:
;;		___ftpack
;; This function is called by:
;;		_main
;;		_fround
;;		_scale
;;		_sprintf
;; This function uses a non-reentrant model
;;
psect	text532
	file	"C:\Program Files (x86)\HI-TECH Software\PICC\9.82\sources\ftmul.c"
	line	52
	global	__size_of___ftmul
	__size_of___ftmul	equ	__end_of___ftmul-___ftmul
	
___ftmul:	
	opt	stack 4
; Regs used in ___ftmul: [wreg+status,2+status,0+pclath+cstack]
	line	56
	
l5245:	
	movf	(___ftmul@f1),w
	movwf	((??___ftmul+0)+0)
	movf	(___ftmul@f1+1),w
	movwf	((??___ftmul+0)+0+1)
	movf	(___ftmul@f1+2),w
	movwf	((??___ftmul+0)+0+2)
	clrc
	rlf	(??___ftmul+0)+1,w
	rlf	(??___ftmul+0)+2,w
	movwf	(___ftmul@exp)
	movf	((___ftmul@exp)),f
	skipz
	goto	u2541
	goto	u2540
u2541:
	goto	l5251
u2540:
	line	57
	
l5247:	
	clrf	(?___ftmul)
	clrf	(?___ftmul+1)
	clrf	(?___ftmul+2)
	goto	l2306
	line	58
	
l5251:	
	movf	(___ftmul@f2),w
	movwf	((??___ftmul+0)+0)
	movf	(___ftmul@f2+1),w
	movwf	((??___ftmul+0)+0+1)
	movf	(___ftmul@f2+2),w
	movwf	((??___ftmul+0)+0+2)
	clrc
	rlf	(??___ftmul+0)+1,w
	rlf	(??___ftmul+0)+2,w
	movwf	(___ftmul@sign)
	movf	((___ftmul@sign)),f
	skipz
	goto	u2551
	goto	u2550
u2551:
	goto	l5257
u2550:
	line	59
	
l5253:	
	clrf	(?___ftmul)
	clrf	(?___ftmul+1)
	clrf	(?___ftmul+2)
	goto	l2306
	line	60
	
l5257:	
	movf	(___ftmul@sign),w
	addlw	07Bh
	addwf	(___ftmul@exp),f
	line	61
	
l5259:	
	movf	0+(((___ftmul@f1))+2),w
	movwf	(___ftmul@sign)
	line	62
	
l5261:	
	movf	0+(((___ftmul@f2))+2),w
	xorwf	(___ftmul@sign),f
	line	63
	
l5263:	
	movlw	(080h)
	andwf	(___ftmul@sign),f
	line	64
	
l5265:	
	bsf	(___ftmul@f1)+(15/8),(15)&7
	line	66
	
l5267:	
	bsf	(___ftmul@f2)+(15/8),(15)&7
	line	67
	
l5269:	
	movlw	0FFh
	andwf	(___ftmul@f2),f
	movlw	0FFh
	andwf	(___ftmul@f2+1),f
	movlw	0
	andwf	(___ftmul@f2+2),f
	line	68
	
l5271:	
	clrf	(___ftmul@f3_as_product)
	clrf	(___ftmul@f3_as_product+1)
	clrf	(___ftmul@f3_as_product+2)
	line	69
	
l5273:	
	movlw	(07h)
	movwf	(___ftmul@cntr)
	line	71
	
l5275:	
	btfss	(___ftmul@f1),(0)&7
	goto	u2561
	goto	u2560
u2561:
	goto	l5279
u2560:
	line	72
	
l5277:	
	movf	(___ftmul@f2),w
	addwf	(___ftmul@f3_as_product),f
	movf	(___ftmul@f2+1),w
	clrz
	skipnc
	incf	(___ftmul@f2+1),w
	skipnz
	goto	u2571
	addwf	(___ftmul@f3_as_product+1),f
u2571:
	movf	(___ftmul@f2+2),w
	clrz
	skipnc
	incf	(___ftmul@f2+2),w
	skipnz
	goto	u2572
	addwf	(___ftmul@f3_as_product+2),f
u2572:

	line	73
	
l5279:	
	clrc
	rrf	(___ftmul@f1+2),f
	rrf	(___ftmul@f1+1),f
	rrf	(___ftmul@f1),f
	line	74
	
l5281:	
	clrc
	rlf	(___ftmul@f2),f
	rlf	(___ftmul@f2+1),f
	rlf	(___ftmul@f2+2),f
	line	75
	
l5283:	
	decfsz	(___ftmul@cntr),f
	goto	u2581
	goto	u2580
u2581:
	goto	l5275
u2580:
	line	76
	
l5285:	
	movlw	(09h)
	movwf	(___ftmul@cntr)
	line	78
	
l5287:	
	btfss	(___ftmul@f1),(0)&7
	goto	u2591
	goto	u2590
u2591:
	goto	l5291
u2590:
	line	79
	
l5289:	
	movf	(___ftmul@f2),w
	addwf	(___ftmul@f3_as_product),f
	movf	(___ftmul@f2+1),w
	clrz
	skipnc
	incf	(___ftmul@f2+1),w
	skipnz
	goto	u2601
	addwf	(___ftmul@f3_as_product+1),f
u2601:
	movf	(___ftmul@f2+2),w
	clrz
	skipnc
	incf	(___ftmul@f2+2),w
	skipnz
	goto	u2602
	addwf	(___ftmul@f3_as_product+2),f
u2602:

	line	80
	
l5291:	
	clrc
	rrf	(___ftmul@f1+2),f
	rrf	(___ftmul@f1+1),f
	rrf	(___ftmul@f1),f
	line	81
	
l5293:	
	clrc
	rrf	(___ftmul@f3_as_product+2),f
	rrf	(___ftmul@f3_as_product+1),f
	rrf	(___ftmul@f3_as_product),f
	line	82
	
l5295:	
	decfsz	(___ftmul@cntr),f
	goto	u2611
	goto	u2610
u2611:
	goto	l5287
u2610:
	line	83
	
l5297:	
	movf	(___ftmul@f3_as_product),w
	movwf	(?___ftpack)
	movf	(___ftmul@f3_as_product+1),w
	movwf	(?___ftpack+1)
	movf	(___ftmul@f3_as_product+2),w
	movwf	(?___ftpack+2)
	movf	(___ftmul@exp),w
	movwf	0+(?___ftpack)+03h
	movf	(___ftmul@sign),w
	movwf	0+(?___ftpack)+04h
	fcall	___ftpack
	movf	(0+(?___ftpack)),w
	movwf	(?___ftmul)
	movf	(1+(?___ftpack)),w
	movwf	(?___ftmul+1)
	movf	(2+(?___ftpack)),w
	movwf	(?___ftmul+2)
	line	84
	
l2306:	
	return
	opt stack 0
GLOBAL	__end_of___ftmul
	__end_of___ftmul:
;; =============== function ___ftmul ends ============

	signat	___ftmul,8315
	global	___ftadd
psect	text533,local,class=CODE,delta=2
global __ptext533
__ptext533:

;; *************** function ___ftadd *****************
;; Defined at:
;;		line 87 in file "C:\Program Files (x86)\HI-TECH Software\PICC\9.82\sources\ftadd.c"
;; Parameters:    Size  Location     Type
;;  f1              3   28[BANK0 ] float 
;;  f2              3   31[BANK0 ] float 
;; Auto vars:     Size  Location     Type
;;  exp1            1   39[BANK0 ] unsigned char 
;;  exp2            1   38[BANK0 ] unsigned char 
;;  sign            1   37[BANK0 ] unsigned char 
;; Return value:  Size  Location     Type
;;                  3   28[BANK0 ] float 
;; Registers used:
;;		wreg, status,2, status,0, pclath, cstack
;; Tracked objects:
;;		On entry : 60/0
;;		On exit  : 60/0
;;		Unchanged: FFF9F/0
;; Data sizes:     COMMON   BANK0   BANK1   BANK3   BANK2
;;      Params:         0       6       0       0       0
;;      Locals:         0       3       0       0       0
;;      Temps:          0       3       0       0       0
;;      Totals:         0      12       0       0       0
;;Total ram usage:       12 bytes
;; Hardware stack levels used:    1
;; Hardware stack levels required when called:    1
;; This function calls:
;;		___ftpack
;; This function is called by:
;;		_sprintf
;;		___ftsub
;; This function uses a non-reentrant model
;;
psect	text533
	file	"C:\Program Files (x86)\HI-TECH Software\PICC\9.82\sources\ftadd.c"
	line	87
	global	__size_of___ftadd
	__size_of___ftadd	equ	__end_of___ftadd-___ftadd
	
___ftadd:	
	opt	stack 4
; Regs used in ___ftadd: [wreg+status,2+status,0+pclath+cstack]
	line	90
	
l5167:	
	movf	(___ftadd@f1),w
	movwf	((??___ftadd+0)+0)
	movf	(___ftadd@f1+1),w
	movwf	((??___ftadd+0)+0+1)
	movf	(___ftadd@f1+2),w
	movwf	((??___ftadd+0)+0+2)
	clrc
	rlf	(??___ftadd+0)+1,w
	rlf	(??___ftadd+0)+2,w
	movwf	(___ftadd@exp1)
	line	91
	movf	(___ftadd@f2),w
	movwf	((??___ftadd+0)+0)
	movf	(___ftadd@f2+1),w
	movwf	((??___ftadd+0)+0+1)
	movf	(___ftadd@f2+2),w
	movwf	((??___ftadd+0)+0+2)
	clrc
	rlf	(??___ftadd+0)+1,w
	rlf	(??___ftadd+0)+2,w
	movwf	(___ftadd@exp2)
	line	92
	
l5169:	
	movf	(___ftadd@exp1),w
	skipz
	goto	u2340
	goto	l5175
u2340:
	
l5171:	
	movf	(___ftadd@exp2),w
	subwf	(___ftadd@exp1),w
	skipnc
	goto	u2351
	goto	u2350
u2351:
	goto	l5179
u2350:
	
l5173:	
	movf	(___ftadd@exp2),w
	movwf	(??___ftadd+0)+0
	movf	(___ftadd@exp1),w
	subwf	(??___ftadd+0)+0,f
	movlw	(019h)
	subwf	0+(??___ftadd+0)+0,w
	skipc
	goto	u2361
	goto	u2360
u2361:
	goto	l5179
u2360:
	line	93
	
l5175:	
	movf	(___ftadd@f2),w
	movwf	(?___ftadd)
	movf	(___ftadd@f2+1),w
	movwf	(?___ftadd+1)
	movf	(___ftadd@f2+2),w
	movwf	(?___ftadd+2)
	goto	l2254
	line	94
	
l5179:	
	movf	(___ftadd@exp2),w
	skipz
	goto	u2370
	goto	l2257
u2370:
	
l5181:	
	movf	(___ftadd@exp1),w
	subwf	(___ftadd@exp2),w
	skipnc
	goto	u2381
	goto	u2380
u2381:
	goto	l5185
u2380:
	
l5183:	
	movf	(___ftadd@exp1),w
	movwf	(??___ftadd+0)+0
	movf	(___ftadd@exp2),w
	subwf	(??___ftadd+0)+0,f
	movlw	(019h)
	subwf	0+(??___ftadd+0)+0,w
	skipc
	goto	u2391
	goto	u2390
u2391:
	goto	l5185
u2390:
	
l2257:	
	line	95
	goto	l2254
	line	96
	
l5185:	
	movlw	(06h)
	movwf	(___ftadd@sign)
	line	97
	
l5187:	
	btfss	(___ftadd@f1+2),(23)&7
	goto	u2401
	goto	u2400
u2401:
	goto	l2258
u2400:
	line	98
	
l5189:	
	bsf	(___ftadd@sign)+(7/8),(7)&7
	
l2258:	
	line	99
	btfss	(___ftadd@f2+2),(23)&7
	goto	u2411
	goto	u2410
u2411:
	goto	l2259
u2410:
	line	100
	
l5191:	
	bsf	(___ftadd@sign)+(6/8),(6)&7
	
l2259:	
	line	101
	bsf	(___ftadd@f1)+(15/8),(15)&7
	line	102
	
l5193:	
	movlw	0FFh
	andwf	(___ftadd@f1),f
	movlw	0FFh
	andwf	(___ftadd@f1+1),f
	movlw	0
	andwf	(___ftadd@f1+2),f
	line	103
	
l5195:	
	bsf	(___ftadd@f2)+(15/8),(15)&7
	line	104
	movlw	0FFh
	andwf	(___ftadd@f2),f
	movlw	0FFh
	andwf	(___ftadd@f2+1),f
	movlw	0
	andwf	(___ftadd@f2+2),f
	line	106
	movf	(___ftadd@exp2),w
	subwf	(___ftadd@exp1),w
	skipnc
	goto	u2421
	goto	u2420
u2421:
	goto	l5207
u2420:
	line	110
	
l5197:	
	clrc
	rlf	(___ftadd@f2),f
	rlf	(___ftadd@f2+1),f
	rlf	(___ftadd@f2+2),f
	line	111
	decf	(___ftadd@exp2),f
	line	112
	
l5199:	
	movf	(___ftadd@exp2),w
	xorwf	(___ftadd@exp1),w
	skipnz
	goto	u2431
	goto	u2430
u2431:
	goto	l5205
u2430:
	
l5201:	
	decf	(___ftadd@sign),f
	movf	((___ftadd@sign)),w
	andlw	07h
	btfss	status,2
	goto	u2441
	goto	u2440
u2441:
	goto	l5197
u2440:
	goto	l5205
	line	114
	
l5203:	
	clrc
	rrf	(___ftadd@f1+2),f
	rrf	(___ftadd@f1+1),f
	rrf	(___ftadd@f1),f
	line	115
	incf	(___ftadd@exp1),f
	line	113
	
l5205:	
	movf	(___ftadd@exp1),w
	xorwf	(___ftadd@exp2),w
	skipz
	goto	u2451
	goto	u2450
u2451:
	goto	l5203
u2450:
	goto	l2268
	line	117
	
l5207:	
	movf	(___ftadd@exp1),w
	subwf	(___ftadd@exp2),w
	skipnc
	goto	u2461
	goto	u2460
u2461:
	goto	l2268
u2460:
	line	121
	
l5209:	
	clrc
	rlf	(___ftadd@f1),f
	rlf	(___ftadd@f1+1),f
	rlf	(___ftadd@f1+2),f
	line	122
	decf	(___ftadd@exp1),f
	line	123
	
l5211:	
	movf	(___ftadd@exp2),w
	xorwf	(___ftadd@exp1),w
	skipnz
	goto	u2471
	goto	u2470
u2471:
	goto	l5217
u2470:
	
l5213:	
	decf	(___ftadd@sign),f
	movf	((___ftadd@sign)),w
	andlw	07h
	btfss	status,2
	goto	u2481
	goto	u2480
u2481:
	goto	l5209
u2480:
	goto	l5217
	line	125
	
l5215:	
	clrc
	rrf	(___ftadd@f2+2),f
	rrf	(___ftadd@f2+1),f
	rrf	(___ftadd@f2),f
	line	126
	incf	(___ftadd@exp2),f
	line	124
	
l5217:	
	movf	(___ftadd@exp1),w
	xorwf	(___ftadd@exp2),w
	skipz
	goto	u2491
	goto	u2490
u2491:
	goto	l5215
u2490:
	line	129
	
l2268:	
	btfss	(___ftadd@sign),(7)&7
	goto	u2501
	goto	u2500
u2501:
	goto	l5223
u2500:
	line	131
	
l5219:	
	movlw	0FFh
	xorwf	(___ftadd@f1),f
	movlw	0FFh
	xorwf	(___ftadd@f1+1),f
	movlw	0FFh
	xorwf	(___ftadd@f1+2),f
	line	132
	
l5221:	
	incf	(___ftadd@f1),f
	skipnz
	incf	(___ftadd@f1+1),f
	skipnz
	incf	(___ftadd@f1+2),f
	line	134
	
l5223:	
	btfss	(___ftadd@sign),(6)&7
	goto	u2511
	goto	u2510
u2511:
	goto	l5229
u2510:
	line	136
	
l5225:	
	movlw	0FFh
	xorwf	(___ftadd@f2),f
	movlw	0FFh
	xorwf	(___ftadd@f2+1),f
	movlw	0FFh
	xorwf	(___ftadd@f2+2),f
	line	137
	
l5227:	
	incf	(___ftadd@f2),f
	skipnz
	incf	(___ftadd@f2+1),f
	skipnz
	incf	(___ftadd@f2+2),f
	line	139
	
l5229:	
	clrf	(___ftadd@sign)
	line	140
	
l5231:	
	movf	(___ftadd@f1),w
	addwf	(___ftadd@f2),f
	movf	(___ftadd@f1+1),w
	clrz
	skipnc
	incf	(___ftadd@f1+1),w
	skipnz
	goto	u2521
	addwf	(___ftadd@f2+1),f
u2521:
	movf	(___ftadd@f1+2),w
	clrz
	skipnc
	incf	(___ftadd@f1+2),w
	skipnz
	goto	u2522
	addwf	(___ftadd@f2+2),f
u2522:

	line	141
	
l5233:	
	btfss	(___ftadd@f2+2),(23)&7
	goto	u2531
	goto	u2530
u2531:
	goto	l5241
u2530:
	line	142
	
l5235:	
	movlw	0FFh
	xorwf	(___ftadd@f2),f
	movlw	0FFh
	xorwf	(___ftadd@f2+1),f
	movlw	0FFh
	xorwf	(___ftadd@f2+2),f
	line	143
	
l5237:	
	incf	(___ftadd@f2),f
	skipnz
	incf	(___ftadd@f2+1),f
	skipnz
	incf	(___ftadd@f2+2),f
	line	144
	
l5239:	
	clrf	(___ftadd@sign)
	incf	(___ftadd@sign),f
	line	146
	
l5241:	
	movf	(___ftadd@f2),w
	movwf	(?___ftpack)
	movf	(___ftadd@f2+1),w
	movwf	(?___ftpack+1)
	movf	(___ftadd@f2+2),w
	movwf	(?___ftpack+2)
	movf	(___ftadd@exp1),w
	movwf	0+(?___ftpack)+03h
	movf	(___ftadd@sign),w
	movwf	0+(?___ftpack)+04h
	fcall	___ftpack
	movf	(0+(?___ftpack)),w
	movwf	(?___ftadd)
	movf	(1+(?___ftpack)),w
	movwf	(?___ftadd+1)
	movf	(2+(?___ftpack)),w
	movwf	(?___ftadd+2)
	line	148
	
l2254:	
	return
	opt stack 0
GLOBAL	__end_of___ftadd
	__end_of___ftadd:
;; =============== function ___ftadd ends ============

	signat	___ftadd,8315
	global	_pause
psect	text534,local,class=CODE,delta=2
global __ptext534
__ptext534:

;; *************** function _pause *****************
;; Defined at:
;;		line 183 in file "C:\Users\Jorge\OneDrive\Escritorio\Microcontroladores\Proyectos\LCD1\LCD1.c"
;; Parameters:    Size  Location     Type
;;  usvalue         2    0[COMMON] unsigned short 
;; Auto vars:     Size  Location     Type
;;  x               2    2[COMMON] unsigned short 
;; Return value:  Size  Location     Type
;;		None               void
;; Registers used:
;;		wreg, status,2, status,0, pclath, cstack
;; Tracked objects:
;;		On entry : 0/0
;;		On exit  : 0/0
;;		Unchanged: FFF9F/0
;; Data sizes:     COMMON   BANK0   BANK1   BANK3   BANK2
;;      Params:         2       0       0       0       0
;;      Locals:         2       0       0       0       0
;;      Temps:          0       0       0       0       0
;;      Totals:         4       0       0       0       0
;;Total ram usage:        4 bytes
;; Hardware stack levels used:    1
;; Hardware stack levels required when called:    1
;; This function calls:
;;		_msecbase
;; This function is called by:
;;		_main
;;		_lcd_write
;;		_lcd_clear
;;		_lcd_init
;; This function uses a non-reentrant model
;;
psect	text534
	file	"C:\Users\Jorge\OneDrive\Escritorio\Microcontroladores\Proyectos\LCD1\LCD1.c"
	line	183
	global	__size_of_pause
	__size_of_pause	equ	__end_of_pause-_pause
	
_pause:	
	opt	stack 6
; Regs used in _pause: [wreg+status,2+status,0+pclath+cstack]
	line	186
	
l5159:	
;LCD1.c: 184: unsigned short x;
;LCD1.c: 186: for (x=0; x<=usvalue; x++)
	clrf	(pause@x)
	clrf	(pause@x+1)
	goto	l5165
	line	188
	
l5161:	
;LCD1.c: 187: {
;LCD1.c: 188: msecbase();
	fcall	_msecbase
	line	186
	
l5163:	
	incf	(pause@x),f
	skipnz
	incf	(pause@x+1),f
	
l5165:	
	movf	(pause@x+1),w
	subwf	(pause@usvalue+1),w
	skipz
	goto	u2335
	movf	(pause@x),w
	subwf	(pause@usvalue),w
u2335:
	skipnc
	goto	u2331
	goto	u2330
u2331:
	goto	l5161
u2330:
	line	190
	
l1093:	
	return
	opt stack 0
GLOBAL	__end_of_pause
	__end_of_pause:
;; =============== function _pause ends ============

	signat	_pause,4216
	global	___awmod
psect	text535,local,class=CODE,delta=2
global __ptext535
__ptext535:

;; *************** function ___awmod *****************
;; Defined at:
;;		line 5 in file "C:\Program Files (x86)\HI-TECH Software\PICC\9.82\sources\awmod.c"
;; Parameters:    Size  Location     Type
;;  divisor         2    0[COMMON] int 
;;  dividend        2    2[COMMON] int 
;; Auto vars:     Size  Location     Type
;;  sign            1    5[COMMON] unsigned char 
;;  counter         1    4[COMMON] unsigned char 
;; Return value:  Size  Location     Type
;;                  2    0[COMMON] int 
;; Registers used:
;;		wreg, status,2, status,0
;; Tracked objects:
;;		On entry : 60/0
;;		On exit  : 60/0
;;		Unchanged: FFF9F/0
;; Data sizes:     COMMON   BANK0   BANK1   BANK3   BANK2
;;      Params:         4       0       0       0       0
;;      Locals:         2       0       0       0       0
;;      Temps:          0       0       0       0       0
;;      Totals:         6       0       0       0       0
;;Total ram usage:        6 bytes
;; Hardware stack levels used:    1
;; This function calls:
;;		Nothing
;; This function is called by:
;;		_scale
;; This function uses a non-reentrant model
;;
psect	text535
	file	"C:\Program Files (x86)\HI-TECH Software\PICC\9.82\sources\awmod.c"
	line	5
	global	__size_of___awmod
	__size_of___awmod	equ	__end_of___awmod-___awmod
	
___awmod:	
	opt	stack 5
; Regs used in ___awmod: [wreg+status,2+status,0]
	line	8
	
l5123:	
	clrf	(___awmod@sign)
	line	9
	
l5125:	
	btfss	(___awmod@dividend+1),7
	goto	u2261
	goto	u2260
u2261:
	goto	l5131
u2260:
	line	10
	
l5127:	
	comf	(___awmod@dividend),f
	comf	(___awmod@dividend+1),f
	incf	(___awmod@dividend),f
	skipnz
	incf	(___awmod@dividend+1),f
	line	11
	
l5129:	
	clrf	(___awmod@sign)
	incf	(___awmod@sign),f
	line	13
	
l5131:	
	btfss	(___awmod@divisor+1),7
	goto	u2271
	goto	u2270
u2271:
	goto	l5135
u2270:
	line	14
	
l5133:	
	comf	(___awmod@divisor),f
	comf	(___awmod@divisor+1),f
	incf	(___awmod@divisor),f
	skipnz
	incf	(___awmod@divisor+1),f
	line	15
	
l5135:	
	movf	(___awmod@divisor+1),w
	iorwf	(___awmod@divisor),w
	skipnz
	goto	u2281
	goto	u2280
u2281:
	goto	l5151
u2280:
	line	16
	
l5137:	
	clrf	(___awmod@counter)
	incf	(___awmod@counter),f
	line	17
	goto	l5141
	line	18
	
l5139:	
	clrc
	rlf	(___awmod@divisor),f
	rlf	(___awmod@divisor+1),f
	line	19
	incf	(___awmod@counter),f
	line	17
	
l5141:	
	btfss	(___awmod@divisor+1),(15)&7
	goto	u2291
	goto	u2290
u2291:
	goto	l5139
u2290:
	line	22
	
l5143:	
	movf	(___awmod@divisor+1),w
	subwf	(___awmod@dividend+1),w
	skipz
	goto	u2305
	movf	(___awmod@divisor),w
	subwf	(___awmod@dividend),w
u2305:
	skipc
	goto	u2301
	goto	u2300
u2301:
	goto	l5147
u2300:
	line	23
	
l5145:	
	movf	(___awmod@divisor),w
	subwf	(___awmod@dividend),f
	movf	(___awmod@divisor+1),w
	skipc
	decf	(___awmod@dividend+1),f
	subwf	(___awmod@dividend+1),f
	line	24
	
l5147:	
	clrc
	rrf	(___awmod@divisor+1),f
	rrf	(___awmod@divisor),f
	line	25
	
l5149:	
	decfsz	(___awmod@counter),f
	goto	u2311
	goto	u2310
u2311:
	goto	l5143
u2310:
	line	27
	
l5151:	
	movf	(___awmod@sign),w
	skipz
	goto	u2320
	goto	l5155
u2320:
	line	28
	
l5153:	
	comf	(___awmod@dividend),f
	comf	(___awmod@dividend+1),f
	incf	(___awmod@dividend),f
	skipnz
	incf	(___awmod@dividend+1),f
	line	29
	
l5155:	
	movf	(___awmod@dividend+1),w
	movwf	(?___awmod+1)
	movf	(___awmod@dividend),w
	movwf	(?___awmod)
	line	30
	
l2425:	
	return
	opt stack 0
GLOBAL	__end_of___awmod
	__end_of___awmod:
;; =============== function ___awmod ends ============

	signat	___awmod,8314
	global	___lldiv
psect	text536,local,class=CODE,delta=2
global __ptext536
__ptext536:

;; *************** function ___lldiv *****************
;; Defined at:
;;		line 5 in file "C:\Program Files (x86)\HI-TECH Software\PICC\9.82\sources\lldiv.c"
;; Parameters:    Size  Location     Type
;;  divisor         4    0[COMMON] unsigned long 
;;  dividend        4    4[COMMON] unsigned long 
;; Auto vars:     Size  Location     Type
;;  quotient        4    8[COMMON] unsigned long 
;;  counter         1   12[COMMON] unsigned char 
;; Return value:  Size  Location     Type
;;                  4    0[COMMON] unsigned long 
;; Registers used:
;;		wreg, status,2, status,0
;; Tracked objects:
;;		On entry : 60/20
;;		On exit  : 60/20
;;		Unchanged: FFF9F/0
;; Data sizes:     COMMON   BANK0   BANK1   BANK3   BANK2
;;      Params:         8       0       0       0       0
;;      Locals:         5       0       0       0       0
;;      Temps:          0       0       0       0       0
;;      Totals:        13       0       0       0       0
;;Total ram usage:       13 bytes
;; Hardware stack levels used:    1
;; This function calls:
;;		Nothing
;; This function is called by:
;;		_sprintf
;; This function uses a non-reentrant model
;;
psect	text536
	file	"C:\Program Files (x86)\HI-TECH Software\PICC\9.82\sources\lldiv.c"
	line	5
	global	__size_of___lldiv
	__size_of___lldiv	equ	__end_of___lldiv-___lldiv
	
___lldiv:	
	opt	stack 6
; Regs used in ___lldiv: [wreg+status,2+status,0]
	line	9
	
l5097:	
	clrf	(___lldiv@quotient)
	clrf	(___lldiv@quotient+1)
	clrf	(___lldiv@quotient+2)
	clrf	(___lldiv@quotient+3)
	line	10
	
l5099:	
	movf	(___lldiv@divisor+3),w
	iorwf	(___lldiv@divisor+2),w
	iorwf	(___lldiv@divisor+1),w
	iorwf	(___lldiv@divisor),w
	skipnz
	goto	u2221
	goto	u2220
u2221:
	goto	l5119
u2220:
	line	11
	
l5101:	
	clrf	(___lldiv@counter)
	incf	(___lldiv@counter),f
	line	12
	goto	l5105
	line	13
	
l5103:	
	clrc
	rlf	(___lldiv@divisor),f
	rlf	(___lldiv@divisor+1),f
	rlf	(___lldiv@divisor+2),f
	rlf	(___lldiv@divisor+3),f
	line	14
	incf	(___lldiv@counter),f
	line	12
	
l5105:	
	btfss	(___lldiv@divisor+3),(31)&7
	goto	u2231
	goto	u2230
u2231:
	goto	l5103
u2230:
	line	17
	
l5107:	
	clrc
	rlf	(___lldiv@quotient),f
	rlf	(___lldiv@quotient+1),f
	rlf	(___lldiv@quotient+2),f
	rlf	(___lldiv@quotient+3),f
	line	18
	
l5109:	
	movf	(___lldiv@divisor+3),w
	subwf	(___lldiv@dividend+3),w
	skipz
	goto	u2245
	movf	(___lldiv@divisor+2),w
	subwf	(___lldiv@dividend+2),w
	skipz
	goto	u2245
	movf	(___lldiv@divisor+1),w
	subwf	(___lldiv@dividend+1),w
	skipz
	goto	u2245
	movf	(___lldiv@divisor),w
	subwf	(___lldiv@dividend),w
u2245:
	skipc
	goto	u2241
	goto	u2240
u2241:
	goto	l5115
u2240:
	line	19
	
l5111:	
	movf	(___lldiv@divisor),w
	subwf	(___lldiv@dividend),f
	movf	(___lldiv@divisor+1),w
	skipc
	incfsz	(___lldiv@divisor+1),w
	subwf	(___lldiv@dividend+1),f
	movf	(___lldiv@divisor+2),w
	skipc
	incfsz	(___lldiv@divisor+2),w
	subwf	(___lldiv@dividend+2),f
	movf	(___lldiv@divisor+3),w
	skipc
	incfsz	(___lldiv@divisor+3),w
	subwf	(___lldiv@dividend+3),f
	line	20
	
l5113:	
	bsf	(___lldiv@quotient)+(0/8),(0)&7
	line	22
	
l5115:	
	clrc
	rrf	(___lldiv@divisor+3),f
	rrf	(___lldiv@divisor+2),f
	rrf	(___lldiv@divisor+1),f
	rrf	(___lldiv@divisor),f
	line	23
	
l5117:	
	decfsz	(___lldiv@counter),f
	goto	u2251
	goto	u2250
u2251:
	goto	l5107
u2250:
	line	25
	
l5119:	
	movf	(___lldiv@quotient+3),w
	movwf	(?___lldiv+3)
	movf	(___lldiv@quotient+2),w
	movwf	(?___lldiv+2)
	movf	(___lldiv@quotient+1),w
	movwf	(?___lldiv+1)
	movf	(___lldiv@quotient),w
	movwf	(?___lldiv)

	line	26
	
l2386:	
	return
	opt stack 0
GLOBAL	__end_of___lldiv
	__end_of___lldiv:
;; =============== function ___lldiv ends ============

	signat	___lldiv,8316
	global	___ftge
psect	text537,local,class=CODE,delta=2
global __ptext537
__ptext537:

;; *************** function ___ftge *****************
;; Defined at:
;;		line 5 in file "C:\Program Files (x86)\HI-TECH Software\PICC\9.82\sources\ftge.c"
;; Parameters:    Size  Location     Type
;;  ff1             3    0[COMMON] float 
;;  ff2             3    3[COMMON] float 
;; Auto vars:     Size  Location     Type
;;		None
;; Return value:  Size  Location     Type
;;		None               void
;; Registers used:
;;		wreg, status,2, status,0
;; Tracked objects:
;;		On entry : 60/20
;;		On exit  : 60/20
;;		Unchanged: FFF9F/0
;; Data sizes:     COMMON   BANK0   BANK1   BANK3   BANK2
;;      Params:         6       0       0       0       0
;;      Locals:         0       0       0       0       0
;;      Temps:          0       0       0       0       0
;;      Totals:         6       0       0       0       0
;;Total ram usage:        6 bytes
;; Hardware stack levels used:    1
;; This function calls:
;;		Nothing
;; This function is called by:
;;		_sprintf
;; This function uses a non-reentrant model
;;
psect	text537
	file	"C:\Program Files (x86)\HI-TECH Software\PICC\9.82\sources\ftge.c"
	line	5
	global	__size_of___ftge
	__size_of___ftge	equ	__end_of___ftge-___ftge
	
___ftge:	
	opt	stack 6
; Regs used in ___ftge: [wreg+status,2+status,0]
	line	6
	
l5077:	
	btfss	(___ftge@ff1+2),(23)&7
	goto	u2191
	goto	u2190
u2191:
	goto	l5081
u2190:
	line	7
	
l5079:	
	movf	(___ftge@ff1),w
	sublw	0
	movwf	(___ftge@ff1)
	movf	(___ftge@ff1+1),w
	skipc
	incfsz	(___ftge@ff1+1),w
	sublw	0
	movwf	1+(___ftge@ff1)
	movf	(___ftge@ff1+2),w
	skipc
	incfsz	(___ftge@ff1+2),w
	sublw	080h
	movwf	2+(___ftge@ff1)
	line	8
	
l5081:	
	btfss	(___ftge@ff2+2),(23)&7
	goto	u2201
	goto	u2200
u2201:
	goto	l5085
u2200:
	line	9
	
l5083:	
	movf	(___ftge@ff2),w
	sublw	0
	movwf	(___ftge@ff2)
	movf	(___ftge@ff2+1),w
	skipc
	incfsz	(___ftge@ff2+1),w
	sublw	0
	movwf	1+(___ftge@ff2)
	movf	(___ftge@ff2+2),w
	skipc
	incfsz	(___ftge@ff2+2),w
	sublw	080h
	movwf	2+(___ftge@ff2)
	line	10
	
l5085:	
	movlw	080h
	xorwf	(___ftge@ff1+2),f
	line	11
	
l5087:	
	movlw	080h
	xorwf	(___ftge@ff2+2),f
	line	12
	
l5089:	
	movf	(___ftge@ff2+2),w
	subwf	(___ftge@ff1+2),w
	skipz
	goto	u2215
	movf	(___ftge@ff2+1),w
	subwf	(___ftge@ff1+1),w
	skipz
	goto	u2215
	movf	(___ftge@ff2),w
	subwf	(___ftge@ff1),w
u2215:
	skipnc
	goto	u2211
	goto	u2210
u2211:
	goto	l5093
u2210:
	
l5091:	
	clrc
	
	goto	l2376
	
l5093:	
	setc
	
	line	13
	
l2376:	
	return
	opt stack 0
GLOBAL	__end_of___ftge
	__end_of___ftge:
;; =============== function ___ftge ends ============

	signat	___ftge,8312
	global	___ftneg
psect	text538,local,class=CODE,delta=2
global __ptext538
__ptext538:

;; *************** function ___ftneg *****************
;; Defined at:
;;		line 16 in file "C:\Program Files (x86)\HI-TECH Software\PICC\9.82\sources\ftneg.c"
;; Parameters:    Size  Location     Type
;;  f1              3    0[COMMON] float 
;; Auto vars:     Size  Location     Type
;;		None
;; Return value:  Size  Location     Type
;;                  3    0[COMMON] float 
;; Registers used:
;;		wreg
;; Tracked objects:
;;		On entry : 160/20
;;		On exit  : 160/20
;;		Unchanged: FFE9F/0
;; Data sizes:     COMMON   BANK0   BANK1   BANK3   BANK2
;;      Params:         3       0       0       0       0
;;      Locals:         0       0       0       0       0
;;      Temps:          0       0       0       0       0
;;      Totals:         3       0       0       0       0
;;Total ram usage:        3 bytes
;; Hardware stack levels used:    1
;; This function calls:
;;		Nothing
;; This function is called by:
;;		_sprintf
;; This function uses a non-reentrant model
;;
psect	text538
	file	"C:\Program Files (x86)\HI-TECH Software\PICC\9.82\sources\ftneg.c"
	line	16
	global	__size_of___ftneg
	__size_of___ftneg	equ	__end_of___ftneg-___ftneg
	
___ftneg:	
	opt	stack 6
; Regs used in ___ftneg: [wreg]
	line	17
	
l5069:	
	movf	(___ftneg@f1+2),w
	iorwf	(___ftneg@f1+1),w
	iorwf	(___ftneg@f1),w
	skipnz
	goto	u2181
	goto	u2180
u2181:
	goto	l5073
u2180:
	line	18
	
l5071:	
	movlw	080h
	xorwf	(___ftneg@f1+2),f
	line	19
	
l5073:	
	line	20
	
l2371:	
	return
	opt stack 0
GLOBAL	__end_of___ftneg
	__end_of___ftneg:
;; =============== function ___ftneg ends ============

	signat	___ftneg,4219
	global	___llmod
psect	text539,local,class=CODE,delta=2
global __ptext539
__ptext539:

;; *************** function ___llmod *****************
;; Defined at:
;;		line 5 in file "C:\Program Files (x86)\HI-TECH Software\PICC\9.82\sources\llmod.c"
;; Parameters:    Size  Location     Type
;;  divisor         4    0[BANK0 ] unsigned long 
;;  dividend        4    4[BANK0 ] unsigned long 
;; Auto vars:     Size  Location     Type
;;  counter         1   13[COMMON] unsigned char 
;; Return value:  Size  Location     Type
;;                  4    0[BANK0 ] unsigned long 
;; Registers used:
;;		wreg, status,2, status,0
;; Tracked objects:
;;		On entry : 60/0
;;		On exit  : 60/0
;;		Unchanged: FFF9F/0
;; Data sizes:     COMMON   BANK0   BANK1   BANK3   BANK2
;;      Params:         0       8       0       0       0
;;      Locals:         1       0       0       0       0
;;      Temps:          0       0       0       0       0
;;      Totals:         1       8       0       0       0
;;Total ram usage:        9 bytes
;; Hardware stack levels used:    1
;; This function calls:
;;		Nothing
;; This function is called by:
;;		_sprintf
;; This function uses a non-reentrant model
;;
psect	text539
	file	"C:\Program Files (x86)\HI-TECH Software\PICC\9.82\sources\llmod.c"
	line	5
	global	__size_of___llmod
	__size_of___llmod	equ	__end_of___llmod-___llmod
	
___llmod:	
	opt	stack 6
; Regs used in ___llmod: [wreg+status,2+status,0]
	line	8
	
l5049:	
	movf	(___llmod@divisor+3),w
	iorwf	(___llmod@divisor+2),w
	iorwf	(___llmod@divisor+1),w
	iorwf	(___llmod@divisor),w
	skipnz
	goto	u2141
	goto	u2140
u2141:
	goto	l5065
u2140:
	line	9
	
l5051:	
	clrf	(___llmod@counter)
	incf	(___llmod@counter),f
	line	10
	goto	l5055
	line	11
	
l5053:	
	clrc
	rlf	(___llmod@divisor),f
	rlf	(___llmod@divisor+1),f
	rlf	(___llmod@divisor+2),f
	rlf	(___llmod@divisor+3),f
	line	12
	incf	(___llmod@counter),f
	line	10
	
l5055:	
	btfss	(___llmod@divisor+3),(31)&7
	goto	u2151
	goto	u2150
u2151:
	goto	l5053
u2150:
	line	15
	
l5057:	
	movf	(___llmod@divisor+3),w
	subwf	(___llmod@dividend+3),w
	skipz
	goto	u2165
	movf	(___llmod@divisor+2),w
	subwf	(___llmod@dividend+2),w
	skipz
	goto	u2165
	movf	(___llmod@divisor+1),w
	subwf	(___llmod@dividend+1),w
	skipz
	goto	u2165
	movf	(___llmod@divisor),w
	subwf	(___llmod@dividend),w
u2165:
	skipc
	goto	u2161
	goto	u2160
u2161:
	goto	l5061
u2160:
	line	16
	
l5059:	
	movf	(___llmod@divisor),w
	subwf	(___llmod@dividend),f
	movf	(___llmod@divisor+1),w
	skipc
	incfsz	(___llmod@divisor+1),w
	subwf	(___llmod@dividend+1),f
	movf	(___llmod@divisor+2),w
	skipc
	incfsz	(___llmod@divisor+2),w
	subwf	(___llmod@dividend+2),f
	movf	(___llmod@divisor+3),w
	skipc
	incfsz	(___llmod@divisor+3),w
	subwf	(___llmod@dividend+3),f
	line	17
	
l5061:	
	clrc
	rrf	(___llmod@divisor+3),f
	rrf	(___llmod@divisor+2),f
	rrf	(___llmod@divisor+1),f
	rrf	(___llmod@divisor),f
	line	18
	
l5063:	
	decfsz	(___llmod@counter),f
	goto	u2171
	goto	u2170
u2171:
	goto	l5057
u2170:
	line	20
	
l5065:	
	movf	(___llmod@dividend+3),w
	movwf	(?___llmod+3)
	movf	(___llmod@dividend+2),w
	movwf	(?___llmod+2)
	movf	(___llmod@dividend+1),w
	movwf	(?___llmod+1)
	movf	(___llmod@dividend),w
	movwf	(?___llmod)

	line	21
	
l2367:	
	return
	opt stack 0
GLOBAL	__end_of___llmod
	__end_of___llmod:
;; =============== function ___llmod ends ============

	signat	___llmod,8316
	global	___awdiv
psect	text540,local,class=CODE,delta=2
global __ptext540
__ptext540:

;; *************** function ___awdiv *****************
;; Defined at:
;;		line 5 in file "C:\Program Files (x86)\HI-TECH Software\PICC\9.82\sources\awdiv.c"
;; Parameters:    Size  Location     Type
;;  divisor         2    6[COMMON] int 
;;  dividend        2    8[COMMON] int 
;; Auto vars:     Size  Location     Type
;;  quotient        2   12[COMMON] int 
;;  sign            1   11[COMMON] unsigned char 
;;  counter         1   10[COMMON] unsigned char 
;; Return value:  Size  Location     Type
;;                  2    6[COMMON] int 
;; Registers used:
;;		wreg, status,2, status,0
;; Tracked objects:
;;		On entry : 40/20
;;		On exit  : 40/20
;;		Unchanged: FFFBF/0
;; Data sizes:     COMMON   BANK0   BANK1   BANK3   BANK2
;;      Params:         4       0       0       0       0
;;      Locals:         4       0       0       0       0
;;      Temps:          0       0       0       0       0
;;      Totals:         8       0       0       0       0
;;Total ram usage:        8 bytes
;; Hardware stack levels used:    1
;; This function calls:
;;		Nothing
;; This function is called by:
;;		_scale
;;		_sprintf
;; This function uses a non-reentrant model
;;
psect	text540
	file	"C:\Program Files (x86)\HI-TECH Software\PICC\9.82\sources\awdiv.c"
	line	5
	global	__size_of___awdiv
	__size_of___awdiv	equ	__end_of___awdiv-___awdiv
	
___awdiv:	
	opt	stack 5
; Regs used in ___awdiv: [wreg+status,2+status,0]
	line	9
	
l5005:	
	clrf	(___awdiv@sign)
	line	10
	
l5007:	
	btfss	(___awdiv@divisor+1),7
	goto	u2071
	goto	u2070
u2071:
	goto	l5013
u2070:
	line	11
	
l5009:	
	comf	(___awdiv@divisor),f
	comf	(___awdiv@divisor+1),f
	incf	(___awdiv@divisor),f
	skipnz
	incf	(___awdiv@divisor+1),f
	line	12
	
l5011:	
	clrf	(___awdiv@sign)
	incf	(___awdiv@sign),f
	line	14
	
l5013:	
	btfss	(___awdiv@dividend+1),7
	goto	u2081
	goto	u2080
u2081:
	goto	l5019
u2080:
	line	15
	
l5015:	
	comf	(___awdiv@dividend),f
	comf	(___awdiv@dividend+1),f
	incf	(___awdiv@dividend),f
	skipnz
	incf	(___awdiv@dividend+1),f
	line	16
	
l5017:	
	movlw	(01h)
	xorwf	(___awdiv@sign),f
	line	18
	
l5019:	
	clrf	(___awdiv@quotient)
	clrf	(___awdiv@quotient+1)
	line	19
	
l5021:	
	movf	(___awdiv@divisor+1),w
	iorwf	(___awdiv@divisor),w
	skipnz
	goto	u2091
	goto	u2090
u2091:
	goto	l5041
u2090:
	line	20
	
l5023:	
	clrf	(___awdiv@counter)
	incf	(___awdiv@counter),f
	line	21
	goto	l5027
	line	22
	
l5025:	
	clrc
	rlf	(___awdiv@divisor),f
	rlf	(___awdiv@divisor+1),f
	line	23
	incf	(___awdiv@counter),f
	line	21
	
l5027:	
	btfss	(___awdiv@divisor+1),(15)&7
	goto	u2101
	goto	u2100
u2101:
	goto	l5025
u2100:
	line	26
	
l5029:	
	clrc
	rlf	(___awdiv@quotient),f
	rlf	(___awdiv@quotient+1),f
	line	27
	
l5031:	
	movf	(___awdiv@divisor+1),w
	subwf	(___awdiv@dividend+1),w
	skipz
	goto	u2115
	movf	(___awdiv@divisor),w
	subwf	(___awdiv@dividend),w
u2115:
	skipc
	goto	u2111
	goto	u2110
u2111:
	goto	l5037
u2110:
	line	28
	
l5033:	
	movf	(___awdiv@divisor),w
	subwf	(___awdiv@dividend),f
	movf	(___awdiv@divisor+1),w
	skipc
	decf	(___awdiv@dividend+1),f
	subwf	(___awdiv@dividend+1),f
	line	29
	
l5035:	
	bsf	(___awdiv@quotient)+(0/8),(0)&7
	line	31
	
l5037:	
	clrc
	rrf	(___awdiv@divisor+1),f
	rrf	(___awdiv@divisor),f
	line	32
	
l5039:	
	decfsz	(___awdiv@counter),f
	goto	u2121
	goto	u2120
u2121:
	goto	l5029
u2120:
	line	34
	
l5041:	
	movf	(___awdiv@sign),w
	skipz
	goto	u2130
	goto	l5045
u2130:
	line	35
	
l5043:	
	comf	(___awdiv@quotient),f
	comf	(___awdiv@quotient+1),f
	incf	(___awdiv@quotient),f
	skipnz
	incf	(___awdiv@quotient+1),f
	line	36
	
l5045:	
	movf	(___awdiv@quotient+1),w
	movwf	(?___awdiv+1)
	movf	(___awdiv@quotient),w
	movwf	(?___awdiv)
	line	37
	
l2357:	
	return
	opt stack 0
GLOBAL	__end_of___awdiv
	__end_of___awdiv:
;; =============== function ___awdiv ends ============

	signat	___awdiv,8314
	global	___fttol
psect	text541,local,class=CODE,delta=2
global __ptext541
__ptext541:

;; *************** function ___fttol *****************
;; Defined at:
;;		line 45 in file "C:\Program Files (x86)\HI-TECH Software\PICC\9.82\sources\fttol.c"
;; Parameters:    Size  Location     Type
;;  f1              3    0[BANK0 ] float 
;; Auto vars:     Size  Location     Type
;;  lval            4    8[BANK0 ] unsigned long 
;;  exp1            1   12[BANK0 ] unsigned char 
;;  sign1           1    7[BANK0 ] unsigned char 
;; Return value:  Size  Location     Type
;;                  4    0[BANK0 ] long 
;; Registers used:
;;		wreg, status,2, status,0
;; Tracked objects:
;;		On entry : 60/0
;;		On exit  : 60/0
;;		Unchanged: FFF9F/0
;; Data sizes:     COMMON   BANK0   BANK1   BANK3   BANK2
;;      Params:         0       4       0       0       0
;;      Locals:         0       6       0       0       0
;;      Temps:          0       3       0       0       0
;;      Totals:         0      13       0       0       0
;;Total ram usage:       13 bytes
;; Hardware stack levels used:    1
;; This function calls:
;;		Nothing
;; This function is called by:
;;		_sprintf
;; This function uses a non-reentrant model
;;
psect	text541
	file	"C:\Program Files (x86)\HI-TECH Software\PICC\9.82\sources\fttol.c"
	line	45
	global	__size_of___fttol
	__size_of___fttol	equ	__end_of___fttol-___fttol
	
___fttol:	
	opt	stack 6
; Regs used in ___fttol: [wreg+status,2+status,0]
	line	49
	
l4967:	
	movf	(___fttol@f1),w
	movwf	((??___fttol+0)+0)
	movf	(___fttol@f1+1),w
	movwf	((??___fttol+0)+0+1)
	movf	(___fttol@f1+2),w
	movwf	((??___fttol+0)+0+2)
	clrc
	rlf	(??___fttol+0)+1,w
	rlf	(??___fttol+0)+2,w
	movwf	(___fttol@exp1)
	movf	((___fttol@exp1)),f
	skipz
	goto	u1991
	goto	u1990
u1991:
	goto	l4971
u1990:
	line	50
	
l4969:	
	clrf	(?___fttol)
	clrf	(?___fttol+1)
	clrf	(?___fttol+2)
	clrf	(?___fttol+3)
	goto	l2317
	line	51
	
l4971:	
	movf	(___fttol@f1),w
	movwf	((??___fttol+0)+0)
	movf	(___fttol@f1+1),w
	movwf	((??___fttol+0)+0+1)
	movf	(___fttol@f1+2),w
	movwf	((??___fttol+0)+0+2)
	movlw	017h
u2005:
	clrc
	rrf	(??___fttol+0)+2,f
	rrf	(??___fttol+0)+1,f
	rrf	(??___fttol+0)+0,f
u2000:
	addlw	-1
	skipz
	goto	u2005
	movf	0+(??___fttol+0)+0,w
	movwf	(___fttol@sign1)
	line	52
	
l4973:	
	bsf	(___fttol@f1)+(15/8),(15)&7
	line	53
	
l4975:	
	movlw	0FFh
	andwf	(___fttol@f1),f
	movlw	0FFh
	andwf	(___fttol@f1+1),f
	movlw	0
	andwf	(___fttol@f1+2),f
	line	54
	
l4977:	
	movf	(___fttol@f1),w
	movwf	(___fttol@lval)
	movf	(___fttol@f1+1),w
	movwf	((___fttol@lval))+1
	movf	(___fttol@f1+2),w
	movwf	((___fttol@lval))+2
	clrf	((___fttol@lval))+3
	line	55
	
l4979:	
	movlw	low(08Eh)
	subwf	(___fttol@exp1),f
	line	56
	
l4981:	
	btfss	(___fttol@exp1),7
	goto	u2011
	goto	u2010
u2011:
	goto	l4991
u2010:
	line	57
	
l4983:	
	movf	(___fttol@exp1),w
	xorlw	80h
	addlw	-((-15)^80h)
	skipnc
	goto	u2021
	goto	u2020
u2021:
	goto	l4987
u2020:
	goto	l4969
	line	60
	
l4987:	
	clrc
	rrf	(___fttol@lval+3),f
	rrf	(___fttol@lval+2),f
	rrf	(___fttol@lval+1),f
	rrf	(___fttol@lval),f
	line	61
	
l4989:	
	incfsz	(___fttol@exp1),f
	goto	u2031
	goto	u2030
u2031:
	goto	l4987
u2030:
	goto	l4997
	line	63
	
l4991:	
	movlw	(018h)
	subwf	(___fttol@exp1),w
	skipc
	goto	u2041
	goto	u2040
u2041:
	goto	l2324
u2040:
	goto	l4969
	line	66
	
l4995:	
	clrc
	rlf	(___fttol@lval),f
	rlf	(___fttol@lval+1),f
	rlf	(___fttol@lval+2),f
	rlf	(___fttol@lval+3),f
	line	67
	decf	(___fttol@exp1),f
	line	68
	
l2324:	
	line	65
	movf	(___fttol@exp1),f
	skipz
	goto	u2051
	goto	u2050
u2051:
	goto	l4995
u2050:
	line	70
	
l4997:	
	movf	(___fttol@sign1),w
	skipz
	goto	u2060
	goto	l5001
u2060:
	line	71
	
l4999:	
	comf	(___fttol@lval),f
	comf	(___fttol@lval+1),f
	comf	(___fttol@lval+2),f
	comf	(___fttol@lval+3),f
	incf	(___fttol@lval),f
	skipnz
	incf	(___fttol@lval+1),f
	skipnz
	incf	(___fttol@lval+2),f
	skipnz
	incf	(___fttol@lval+3),f
	line	72
	
l5001:	
	movf	(___fttol@lval+3),w
	movwf	(?___fttol+3)
	movf	(___fttol@lval+2),w
	movwf	(?___fttol+2)
	movf	(___fttol@lval+1),w
	movwf	(?___fttol+1)
	movf	(___fttol@lval),w
	movwf	(?___fttol)

	line	73
	
l2317:	
	return
	opt stack 0
GLOBAL	__end_of___fttol
	__end_of___fttol:
;; =============== function ___fttol ends ============

	signat	___fttol,4220
	global	___ftpack
psect	text542,local,class=CODE,delta=2
global __ptext542
__ptext542:

;; *************** function ___ftpack *****************
;; Defined at:
;;		line 63 in file "C:\Program Files (x86)\HI-TECH Software\PICC\9.82\sources\float.c"
;; Parameters:    Size  Location     Type
;;  arg             3    0[COMMON] unsigned um
;;  exp             1    3[COMMON] unsigned char 
;;  sign            1    4[COMMON] unsigned char 
;; Auto vars:     Size  Location     Type
;;		None
;; Return value:  Size  Location     Type
;;                  3    0[COMMON] float 
;; Registers used:
;;		wreg, status,2, status,0
;; Tracked objects:
;;		On entry : 40/20
;;		On exit  : 40/20
;;		Unchanged: FFFBF/0
;; Data sizes:     COMMON   BANK0   BANK1   BANK3   BANK2
;;      Params:         5       0       0       0       0
;;      Locals:         0       0       0       0       0
;;      Temps:          3       0       0       0       0
;;      Totals:         8       0       0       0       0
;;Total ram usage:        8 bytes
;; Hardware stack levels used:    1
;; This function calls:
;;		Nothing
;; This function is called by:
;;		___ftadd
;;		___ftmul
;;		___awtoft
;;		___lltoft
;; This function uses a non-reentrant model
;;
psect	text542
	file	"C:\Program Files (x86)\HI-TECH Software\PICC\9.82\sources\float.c"
	line	63
	global	__size_of___ftpack
	__size_of___ftpack	equ	__end_of___ftpack-___ftpack
	
___ftpack:	
	opt	stack 4
; Regs used in ___ftpack: [wreg+status,2+status,0]
	line	64
	
l4939:	
	movf	(___ftpack@exp),w
	skipz
	goto	u1920
	goto	l4943
u1920:
	
l4941:	
	movf	(___ftpack@arg+2),w
	iorwf	(___ftpack@arg+1),w
	iorwf	(___ftpack@arg),w
	skipz
	goto	u1931
	goto	u1930
u1931:
	goto	l4949
u1930:
	line	65
	
l4943:	
	clrf	(?___ftpack)
	clrf	(?___ftpack+1)
	clrf	(?___ftpack+2)
	goto	l2576
	line	67
	
l4947:	
	incf	(___ftpack@exp),f
	line	68
	clrc
	rrf	(___ftpack@arg+2),f
	rrf	(___ftpack@arg+1),f
	rrf	(___ftpack@arg),f
	line	66
	
l4949:	
	movlw	low highword(0FE0000h)
	andwf	(___ftpack@arg+2),w
	btfss	status,2
	goto	u1941
	goto	u1940
u1941:
	goto	l4947
u1940:
	goto	l4953
	line	71
	
l4951:	
	incf	(___ftpack@exp),f
	line	72
	incf	(___ftpack@arg),f
	skipnz
	incf	(___ftpack@arg+1),f
	skipnz
	incf	(___ftpack@arg+2),f
	line	73
	clrc
	rrf	(___ftpack@arg+2),f
	rrf	(___ftpack@arg+1),f
	rrf	(___ftpack@arg),f
	line	70
	
l4953:	
	movlw	low highword(0FF0000h)
	andwf	(___ftpack@arg+2),w
	btfss	status,2
	goto	u1951
	goto	u1950
u1951:
	goto	l4951
u1950:
	goto	l4957
	line	76
	
l4955:	
	decf	(___ftpack@exp),f
	line	77
	clrc
	rlf	(___ftpack@arg),f
	rlf	(___ftpack@arg+1),f
	rlf	(___ftpack@arg+2),f
	line	75
	
l4957:	
	btfss	(___ftpack@arg+1),(15)&7
	goto	u1961
	goto	u1960
u1961:
	goto	l4955
u1960:
	
l2585:	
	line	79
	btfsc	(___ftpack@exp),(0)&7
	goto	u1971
	goto	u1970
u1971:
	goto	l2586
u1970:
	line	80
	
l4959:	
	bcf	(___ftpack@arg)+(15/8),(15)&7
	
l2586:	
	line	81
	clrc
	rrf	(___ftpack@exp),f
	line	82
	
l4961:	
	movf	(___ftpack@exp),w
	movwf	((??___ftpack+0)+0+2)
	clrf	((??___ftpack+0)+0+1)
	clrf	((??___ftpack+0)+0+0)
	movf	0+(??___ftpack+0)+0,w
	iorwf	(___ftpack@arg),f
	movf	1+(??___ftpack+0)+0,w
	iorwf	(___ftpack@arg+1),f
	movf	2+(??___ftpack+0)+0,w
	iorwf	(___ftpack@arg+2),f
	line	83
	
l4963:	
	movf	(___ftpack@sign),w
	skipz
	goto	u1980
	goto	l2587
u1980:
	line	84
	
l4965:	
	bsf	(___ftpack@arg)+(23/8),(23)&7
	
l2587:	
	line	85
	line	86
	
l2576:	
	return
	opt stack 0
GLOBAL	__end_of___ftpack
	__end_of___ftpack:
;; =============== function ___ftpack ends ============

	signat	___ftpack,12411
	global	___lbmod
psect	text543,local,class=CODE,delta=2
global __ptext543
__ptext543:

;; *************** function ___lbmod *****************
;; Defined at:
;;		line 5 in file "C:\Program Files (x86)\HI-TECH Software\PICC\9.82\sources\lbmod.c"
;; Parameters:    Size  Location     Type
;;  dividend        1    wreg     unsigned char 
;;  divisor         1    0[COMMON] unsigned char 
;; Auto vars:     Size  Location     Type
;;  dividend        1    2[COMMON] unsigned char 
;;  rem             1    4[COMMON] unsigned char 
;;  counter         1    3[COMMON] unsigned char 
;; Return value:  Size  Location     Type
;;                  1    wreg      unsigned char 
;; Registers used:
;;		wreg, status,2, status,0
;; Tracked objects:
;;		On entry : 60/0
;;		On exit  : 60/0
;;		Unchanged: FFF9F/0
;; Data sizes:     COMMON   BANK0   BANK1   BANK3   BANK2
;;      Params:         1       0       0       0       0
;;      Locals:         3       0       0       0       0
;;      Temps:          1       0       0       0       0
;;      Totals:         5       0       0       0       0
;;Total ram usage:        5 bytes
;; Hardware stack levels used:    1
;; This function calls:
;;		Nothing
;; This function is called by:
;;		_fround
;; This function uses a non-reentrant model
;;
psect	text543
	file	"C:\Program Files (x86)\HI-TECH Software\PICC\9.82\sources\lbmod.c"
	line	5
	global	__size_of___lbmod
	__size_of___lbmod	equ	__end_of___lbmod-___lbmod
	
___lbmod:	
	opt	stack 5
; Regs used in ___lbmod: [wreg+status,2+status,0]
;___lbmod@dividend stored from wreg
	line	9
	movwf	(___lbmod@dividend)
	
l4921:	
	movlw	(08h)
	movwf	(___lbmod@counter)
	line	10
	
l4923:	
	clrf	(___lbmod@rem)
	line	12
	
l4925:	
	movf	(___lbmod@dividend),w
	movwf	(??___lbmod+0)+0
	movlw	07h
u1895:
	clrc
	rrf	(??___lbmod+0)+0,f
	addlw	-1
	skipz
	goto	u1895
	clrc
	rlf	(___lbmod@rem),w
	iorwf	0+(??___lbmod+0)+0,w
	movwf	(___lbmod@rem)
	line	13
	
l4927:	
	clrc
	rlf	(___lbmod@dividend),f
	line	14
	
l4929:	
	movf	(___lbmod@divisor),w
	subwf	(___lbmod@rem),w
	skipc
	goto	u1901
	goto	u1900
u1901:
	goto	l4933
u1900:
	line	15
	
l4931:	
	movf	(___lbmod@divisor),w
	subwf	(___lbmod@rem),f
	line	16
	
l4933:	
	decfsz	(___lbmod@counter),f
	goto	u1911
	goto	u1910
u1911:
	goto	l4925
u1910:
	line	17
	
l4935:	
	movf	(___lbmod@rem),w
	line	18
	
l2246:	
	return
	opt stack 0
GLOBAL	__end_of___lbmod
	__end_of___lbmod:
;; =============== function ___lbmod ends ============

	signat	___lbmod,8313
	global	___lbdiv
psect	text544,local,class=CODE,delta=2
global __ptext544
__ptext544:

;; *************** function ___lbdiv *****************
;; Defined at:
;;		line 5 in file "C:\Program Files (x86)\HI-TECH Software\PICC\9.82\sources\lbdiv.c"
;; Parameters:    Size  Location     Type
;;  dividend        1    wreg     unsigned char 
;;  divisor         1    5[COMMON] unsigned char 
;; Auto vars:     Size  Location     Type
;;  dividend        1    6[COMMON] unsigned char 
;;  quotient        1    8[COMMON] unsigned char 
;;  counter         1    7[COMMON] unsigned char 
;; Return value:  Size  Location     Type
;;                  1    wreg      unsigned char 
;; Registers used:
;;		wreg, status,2, status,0
;; Tracked objects:
;;		On entry : 60/0
;;		On exit  : 60/0
;;		Unchanged: FFF9F/0
;; Data sizes:     COMMON   BANK0   BANK1   BANK3   BANK2
;;      Params:         1       0       0       0       0
;;      Locals:         3       0       0       0       0
;;      Temps:          0       0       0       0       0
;;      Totals:         4       0       0       0       0
;;Total ram usage:        4 bytes
;; Hardware stack levels used:    1
;; This function calls:
;;		Nothing
;; This function is called by:
;;		_fround
;; This function uses a non-reentrant model
;;
psect	text544
	file	"C:\Program Files (x86)\HI-TECH Software\PICC\9.82\sources\lbdiv.c"
	line	5
	global	__size_of___lbdiv
	__size_of___lbdiv	equ	__end_of___lbdiv-___lbdiv
	
___lbdiv:	
	opt	stack 5
; Regs used in ___lbdiv: [wreg+status,2+status,0]
;___lbdiv@dividend stored from wreg
	line	9
	movwf	(___lbdiv@dividend)
	
l4897:	
	clrf	(___lbdiv@quotient)
	line	10
	
l4899:	
	movf	(___lbdiv@divisor),w
	skipz
	goto	u1850
	goto	l4917
u1850:
	line	11
	
l4901:	
	clrf	(___lbdiv@counter)
	incf	(___lbdiv@counter),f
	line	12
	goto	l4905
	
l2235:	
	line	13
	clrc
	rlf	(___lbdiv@divisor),f
	line	14
	
l4903:	
	incf	(___lbdiv@counter),f
	line	12
	
l4905:	
	btfss	(___lbdiv@divisor),(7)&7
	goto	u1861
	goto	u1860
u1861:
	goto	l2235
u1860:
	line	16
	
l2237:	
	line	17
	clrc
	rlf	(___lbdiv@quotient),f
	line	18
	
l4907:	
	movf	(___lbdiv@divisor),w
	subwf	(___lbdiv@dividend),w
	skipc
	goto	u1871
	goto	u1870
u1871:
	goto	l4913
u1870:
	line	19
	
l4909:	
	movf	(___lbdiv@divisor),w
	subwf	(___lbdiv@dividend),f
	line	20
	
l4911:	
	bsf	(___lbdiv@quotient)+(0/8),(0)&7
	line	22
	
l4913:	
	clrc
	rrf	(___lbdiv@divisor),f
	line	23
	
l4915:	
	decfsz	(___lbdiv@counter),f
	goto	u1881
	goto	u1880
u1881:
	goto	l2237
u1880:
	line	25
	
l4917:	
	movf	(___lbdiv@quotient),w
	line	26
	
l2240:	
	return
	opt stack 0
GLOBAL	__end_of___lbdiv
	__end_of___lbdiv:
;; =============== function ___lbdiv ends ============

	signat	___lbdiv,8313
	global	___wmul
psect	text545,local,class=CODE,delta=2
global __ptext545
__ptext545:

;; *************** function ___wmul *****************
;; Defined at:
;;		line 3 in file "C:\Program Files (x86)\HI-TECH Software\PICC\9.82\sources\wmul.c"
;; Parameters:    Size  Location     Type
;;  multiplier      2    0[COMMON] unsigned int 
;;  multiplicand    2    2[COMMON] unsigned int 
;; Auto vars:     Size  Location     Type
;;  product         2    4[COMMON] unsigned int 
;; Return value:  Size  Location     Type
;;                  2    0[COMMON] unsigned int 
;; Registers used:
;;		wreg, status,2, status,0
;; Tracked objects:
;;		On entry : 60/20
;;		On exit  : 60/20
;;		Unchanged: FFF9F/0
;; Data sizes:     COMMON   BANK0   BANK1   BANK3   BANK2
;;      Params:         4       0       0       0       0
;;      Locals:         2       0       0       0       0
;;      Temps:          0       0       0       0       0
;;      Totals:         6       0       0       0       0
;;Total ram usage:        6 bytes
;; Hardware stack levels used:    1
;; This function calls:
;;		Nothing
;; This function is called by:
;;		_fround
;;		_scale
;;		_sprintf
;; This function uses a non-reentrant model
;;
psect	text545
	file	"C:\Program Files (x86)\HI-TECH Software\PICC\9.82\sources\wmul.c"
	line	3
	global	__size_of___wmul
	__size_of___wmul	equ	__end_of___wmul-___wmul
	
___wmul:	
	opt	stack 6
; Regs used in ___wmul: [wreg+status,2+status,0]
	line	4
	
l4881:	
	clrf	(___wmul@product)
	clrf	(___wmul@product+1)
	line	7
	
l4883:	
	btfss	(___wmul@multiplier),(0)&7
	goto	u1831
	goto	u1830
u1831:
	goto	l4887
u1830:
	line	8
	
l4885:	
	movf	(___wmul@multiplicand),w
	addwf	(___wmul@product),f
	skipnc
	incf	(___wmul@product+1),f
	movf	(___wmul@multiplicand+1),w
	addwf	(___wmul@product+1),f
	line	9
	
l4887:	
	clrc
	rlf	(___wmul@multiplicand),f
	rlf	(___wmul@multiplicand+1),f
	line	10
	
l4889:	
	clrc
	rrf	(___wmul@multiplier+1),f
	rrf	(___wmul@multiplier),f
	line	11
	
l4891:	
	movf	((___wmul@multiplier+1)),w
	iorwf	((___wmul@multiplier)),w
	skipz
	goto	u1841
	goto	u1840
u1841:
	goto	l4883
u1840:
	line	12
	
l4893:	
	movf	(___wmul@product+1),w
	movwf	(?___wmul+1)
	movf	(___wmul@product),w
	movwf	(?___wmul)
	line	13
	
l2210:	
	return
	opt stack 0
GLOBAL	__end_of___wmul
	__end_of___wmul:
;; =============== function ___wmul ends ============

	signat	___wmul,8314
	global	___bmul
psect	text546,local,class=CODE,delta=2
global __ptext546
__ptext546:

;; *************** function ___bmul *****************
;; Defined at:
;;		line 3 in file "C:\Program Files (x86)\HI-TECH Software\PICC\9.82\sources\bmul.c"
;; Parameters:    Size  Location     Type
;;  multiplier      1    wreg     unsigned char 
;;  multiplicand    1    9[COMMON] unsigned char 
;; Auto vars:     Size  Location     Type
;;  multiplier      1   11[COMMON] unsigned char 
;;  product         1   10[COMMON] unsigned char 
;; Return value:  Size  Location     Type
;;                  1    wreg      unsigned char 
;; Registers used:
;;		wreg, status,2, status,0
;; Tracked objects:
;;		On entry : 60/0
;;		On exit  : 60/0
;;		Unchanged: FFF9F/0
;; Data sizes:     COMMON   BANK0   BANK1   BANK3   BANK2
;;      Params:         1       0       0       0       0
;;      Locals:         2       0       0       0       0
;;      Temps:          0       0       0       0       0
;;      Totals:         3       0       0       0       0
;;Total ram usage:        3 bytes
;; Hardware stack levels used:    1
;; This function calls:
;;		Nothing
;; This function is called by:
;;		_fround
;;		_scale
;; This function uses a non-reentrant model
;;
psect	text546
	file	"C:\Program Files (x86)\HI-TECH Software\PICC\9.82\sources\bmul.c"
	line	3
	global	__size_of___bmul
	__size_of___bmul	equ	__end_of___bmul-___bmul
	
___bmul:	
	opt	stack 5
; Regs used in ___bmul: [wreg+status,2+status,0]
;___bmul@multiplier stored from wreg
	movwf	(___bmul@multiplier)
	line	4
	
l4865:	
	clrf	(___bmul@product)
	line	7
	
l4867:	
	btfss	(___bmul@multiplier),(0)&7
	goto	u1811
	goto	u1810
u1811:
	goto	l4871
u1810:
	line	8
	
l4869:	
	movf	(___bmul@multiplicand),w
	addwf	(___bmul@product),f
	line	9
	
l4871:	
	clrc
	rlf	(___bmul@multiplicand),f
	line	10
	
l4873:	
	clrc
	rrf	(___bmul@multiplier),f
	line	11
	
l4875:	
	movf	(___bmul@multiplier),f
	skipz
	goto	u1821
	goto	u1820
u1821:
	goto	l4867
u1820:
	line	12
	
l4877:	
	movf	(___bmul@product),w
	line	13
	
l2204:	
	return
	opt stack 0
GLOBAL	__end_of___bmul
	__end_of___bmul:
;; =============== function ___bmul ends ============

	signat	___bmul,8313
	global	__div_to_l_
psect	text547,local,class=CODE,delta=2
global __ptext547
__ptext547:

;; *************** function __div_to_l_ *****************
;; Defined at:
;;		line 61 in file "C:\Program Files (x86)\HI-TECH Software\PICC\9.82\sources\fldivl.c"
;; Parameters:    Size  Location     Type
;;  f1              3    0[COMMON] unsigned char 
;;  f2              3    3[COMMON] unsigned char 
;; Auto vars:     Size  Location     Type
;;  quot            4    0[BANK0 ] unsigned long 
;;  exp1            1    5[BANK0 ] unsigned char 
;;  cntr            1    4[BANK0 ] unsigned char 
;; Return value:  Size  Location     Type
;;                  4    0[COMMON] unsigned long 
;; Registers used:
;;		wreg, fsr0l, fsr0h, status,2, status,0
;; Tracked objects:
;;		On entry : 0/0
;;		On exit  : 60/0
;;		Unchanged: FFF9F/0
;; Data sizes:     COMMON   BANK0   BANK1   BANK3   BANK2
;;      Params:         6       0       0       0       0
;;      Locals:         0       6       0       0       0
;;      Temps:          8       0       0       0       0
;;      Totals:        14       6       0       0       0
;;Total ram usage:       20 bytes
;; Hardware stack levels used:    1
;; This function calls:
;;		Nothing
;; This function is called by:
;;		_sprintf
;; This function uses a non-reentrant model
;;
psect	text547
	file	"C:\Program Files (x86)\HI-TECH Software\PICC\9.82\sources\fldivl.c"
	line	61
	global	__size_of__div_to_l_
	__size_of__div_to_l_	equ	__end_of__div_to_l_-__div_to_l_
	
__div_to_l_:	
	opt	stack 6
; Regs used in __div_to_l_: [wreg-fsr0h+status,2+status,0]
	line	66
	
l4819:	
	movlw	low(__div_to_l_@f1)
	movwf	fsr0
	movf	indf,w
	movwf	(??__div_to_l_+0)+0+0
	incf	fsr0,f
	movf	indf,w
	movwf	(??__div_to_l_+0)+0+1
	incf	fsr0,f
	movf	indf,w
	movwf	(??__div_to_l_+0)+0+2
	incf	fsr0,f
	movf	indf,w
	movwf	(??__div_to_l_+0)+0+3
	clrc
	rlf	(??__div_to_l_+0)+2,w
	rlf	(??__div_to_l_+0)+3,w
	bcf	status, 5	;RP0=0, select bank0
	bcf	status, 6	;RP1=0, select bank0
	movwf	(__div_to_l_@exp1)
	movf	((__div_to_l_@exp1)),f
	skipz
	goto	u1721
	goto	u1720
u1721:
	goto	l4823
u1720:
	line	67
	
l4821:	
	clrf	(?__div_to_l_)
	clrf	(?__div_to_l_+1)
	clrf	(?__div_to_l_+2)
	clrf	(?__div_to_l_+3)
	goto	l2494
	line	68
	
l4823:	
	movlw	low(__div_to_l_@f2)
	movwf	fsr0
	movf	indf,w
	movwf	(??__div_to_l_+0)+0+0
	incf	fsr0,f
	movf	indf,w
	movwf	(??__div_to_l_+0)+0+1
	incf	fsr0,f
	movf	indf,w
	movwf	(??__div_to_l_+0)+0+2
	incf	fsr0,f
	movf	indf,w
	movwf	(??__div_to_l_+0)+0+3
	clrc
	rlf	(??__div_to_l_+0)+2,w
	rlf	(??__div_to_l_+0)+3,w
	movwf	(__div_to_l_@cntr)
	movf	((__div_to_l_@cntr)),f
	skipz
	goto	u1731
	goto	u1730
u1731:
	goto	l4827
u1730:
	goto	l4821
	line	70
	
l4827:	
	movlw	low(__div_to_l_@f1)
	movwf	fsr0
	movlw	0
	iorwf	indf,f
	incf	fsr0,f
	movlw	0
	iorwf	indf,f
	incf	fsr0,f
	movlw	080h
	iorwf	indf,f
	incf	fsr0,f
	movlw	0
	iorwf	indf,f
	line	71
	movlw	low(__div_to_l_@f1)
	movwf	fsr0
	movlw	0FFh
	andwf	indf,f
	incf	fsr0,f
	movlw	0FFh
	andwf	indf,f
	incf	fsr0,f
	movlw	0FFh
	andwf	indf,f
	incf	fsr0,f
	movlw	0
	andwf	indf,f
	line	72
	movlw	low(__div_to_l_@f2)
	movwf	fsr0
	movlw	0
	iorwf	indf,f
	incf	fsr0,f
	movlw	0
	iorwf	indf,f
	incf	fsr0,f
	movlw	080h
	iorwf	indf,f
	incf	fsr0,f
	movlw	0
	iorwf	indf,f
	line	73
	movlw	low(__div_to_l_@f2)
	movwf	fsr0
	movlw	0FFh
	andwf	indf,f
	incf	fsr0,f
	movlw	0FFh
	andwf	indf,f
	incf	fsr0,f
	movlw	0FFh
	andwf	indf,f
	incf	fsr0,f
	movlw	0
	andwf	indf,f
	line	74
	
l4829:	
	clrf	(__div_to_l_@quot)
	clrf	(__div_to_l_@quot+1)
	clrf	(__div_to_l_@quot+2)
	clrf	(__div_to_l_@quot+3)
	line	75
	
l4831:	
	movlw	low(07Fh)
	subwf	(__div_to_l_@exp1),f
	line	76
	
l4833:	
	movlw	(0A0h)
	addwf	(__div_to_l_@cntr),w
	movwf	(??__div_to_l_+0)+0
	movf	0+(??__div_to_l_+0)+0,w
	subwf	(__div_to_l_@exp1),f
	line	77
	
l4835:	
	movlw	(020h)
	movwf	(__div_to_l_@cntr)
	line	79
	
l4837:	
	clrc
	rlf	(__div_to_l_@quot),f
	rlf	(__div_to_l_@quot+1),f
	rlf	(__div_to_l_@quot+2),f
	rlf	(__div_to_l_@quot+3),f
	line	80
	
l4839:	
	movlw	low(__div_to_l_@f2)
	movwf	fsr0
	movf	indf,w
	movwf	(??__div_to_l_+0)+0+0
	incf	fsr0,f
	movf	indf,w
	movwf	(??__div_to_l_+0)+0+1
	incf	fsr0,f
	movf	indf,w
	movwf	(??__div_to_l_+0)+0+2
	incf	fsr0,f
	movf	indf,w
	movwf	(??__div_to_l_+0)+0+3
	movlw	low(__div_to_l_@f1)
	movwf	fsr0
	movf	indf,w
	movwf	(??__div_to_l_+4)+0+0
	incf	fsr0,f
	movf	indf,w
	movwf	(??__div_to_l_+4)+0+1
	incf	fsr0,f
	movf	indf,w
	movwf	(??__div_to_l_+4)+0+2
	incf	fsr0,f
	movf	indf,w
	movwf	(??__div_to_l_+4)+0+3
	movf	3+(??__div_to_l_+0)+0,w
	subwf	3+(??__div_to_l_+4)+0,w
	skipz
	goto	u1745
	movf	2+(??__div_to_l_+0)+0,w
	subwf	2+(??__div_to_l_+4)+0,w
	skipz
	goto	u1745
	movf	1+(??__div_to_l_+0)+0,w
	subwf	1+(??__div_to_l_+4)+0,w
	skipz
	goto	u1745
	movf	0+(??__div_to_l_+0)+0,w
	subwf	0+(??__div_to_l_+4)+0,w
u1745:
	skipc
	goto	u1741
	goto	u1740
u1741:
	goto	l2497
u1740:
	line	81
	
l4841:	
	movlw	low(__div_to_l_@f2)
	movwf	fsr0
	movf	indf,w
	movwf	(??__div_to_l_+0)+0+0
	incf	fsr0,f
	movf	indf,w
	movwf	(??__div_to_l_+0)+0+1
	incf	fsr0,f
	movf	indf,w
	movwf	(??__div_to_l_+0)+0+2
	incf	fsr0,f
	movf	indf,w
	movwf	(??__div_to_l_+0)+0+3
	movlw	low(__div_to_l_@f1)
	movwf	fsr0
	movf	0+(??__div_to_l_+0)+0,w
	subwf	indf,f
	incf	fsr0
	movf	1+(??__div_to_l_+0)+0,w
	skipc
	incfsz	1+(??__div_to_l_+0)+0,w
	subwf	indf,f
	incf	fsr0
	movf	2+(??__div_to_l_+0)+0,w
	skipc
	incfsz	2+(??__div_to_l_+0)+0,w
	subwf	indf,f
	incf	fsr0
	movf	3+(??__div_to_l_+0)+0,w
	skipc
	incf	3+(??__div_to_l_+0)+0,w
	subwf	indf,f
	movlw	3
	subwf	fsr0
	line	82
	
l4843:	
	bsf	(__div_to_l_@quot)+(0/8),(0)&7
	line	83
	
l2497:	
	line	84
	movlw	low(__div_to_l_@f1)
	movwf	fsr0
	clrc
	rlf	indf,f
	incf	fsr0,f
	rlf	indf,f
	incf	fsr0,f
	rlf	indf,f
	incf	fsr0,f
	rlf	indf,f
	line	85
	
l4845:	
	decfsz	(__div_to_l_@cntr),f
	goto	u1751
	goto	u1750
u1751:
	goto	l4837
u1750:
	
l2498:	
	line	86
	btfss	(__div_to_l_@exp1),7
	goto	u1761
	goto	u1760
u1761:
	goto	l4855
u1760:
	line	87
	
l4847:	
	movf	(__div_to_l_@exp1),w
	xorlw	80h
	addlw	-((-31)^80h)
	skipnc
	goto	u1771
	goto	u1770
u1771:
	goto	l4851
u1770:
	goto	l4821
	line	90
	
l4851:	
	clrc
	rrf	(__div_to_l_@quot+3),f
	rrf	(__div_to_l_@quot+2),f
	rrf	(__div_to_l_@quot+1),f
	rrf	(__div_to_l_@quot),f
	line	91
	
l4853:	
	incfsz	(__div_to_l_@exp1),f
	goto	u1781
	goto	u1780
u1781:
	goto	l4851
u1780:
	goto	l4861
	line	93
	
l4855:	
	movlw	(020h)
	subwf	(__div_to_l_@exp1),w
	skipc
	goto	u1791
	goto	u1790
u1791:
	goto	l2505
u1790:
	goto	l4821
	line	96
	
l4859:	
	clrc
	rlf	(__div_to_l_@quot),f
	rlf	(__div_to_l_@quot+1),f
	rlf	(__div_to_l_@quot+2),f
	rlf	(__div_to_l_@quot+3),f
	line	97
	decf	(__div_to_l_@exp1),f
	line	98
	
l2505:	
	line	95
	movf	(__div_to_l_@exp1),f
	skipz
	goto	u1801
	goto	u1800
u1801:
	goto	l4859
u1800:
	line	100
	
l4861:	
	movf	(__div_to_l_@quot+3),w
	movwf	(?__div_to_l_+3)
	movf	(__div_to_l_@quot+2),w
	movwf	(?__div_to_l_+2)
	movf	(__div_to_l_@quot+1),w
	movwf	(?__div_to_l_+1)
	movf	(__div_to_l_@quot),w
	movwf	(?__div_to_l_)

	line	101
	
l2494:	
	return
	opt stack 0
GLOBAL	__end_of__div_to_l_
	__end_of__div_to_l_:
;; =============== function __div_to_l_ ends ============

	signat	__div_to_l_,8316
	global	__tdiv_to_l_
psect	text548,local,class=CODE,delta=2
global __ptext548
__ptext548:

;; *************** function __tdiv_to_l_ *****************
;; Defined at:
;;		line 61 in file "C:\Program Files (x86)\HI-TECH Software\PICC\9.82\sources\ftdivl.c"
;; Parameters:    Size  Location     Type
;;  f1              3    0[COMMON] float 
;;  f2              3    3[COMMON] float 
;; Auto vars:     Size  Location     Type
;;  quot            4    0[BANK0 ] unsigned long 
;;  exp1            1    5[BANK0 ] unsigned char 
;;  cntr            1    4[BANK0 ] unsigned char 
;; Return value:  Size  Location     Type
;;                  4    0[COMMON] unsigned long 
;; Registers used:
;;		wreg, status,2, status,0
;; Tracked objects:
;;		On entry : 60/20
;;		On exit  : 60/0
;;		Unchanged: FFF9F/0
;; Data sizes:     COMMON   BANK0   BANK1   BANK3   BANK2
;;      Params:         6       0       0       0       0
;;      Locals:         0       6       0       0       0
;;      Temps:          3       0       0       0       0
;;      Totals:         9       6       0       0       0
;;Total ram usage:       15 bytes
;; Hardware stack levels used:    1
;; This function calls:
;;		Nothing
;; This function is called by:
;;		_sprintf
;; This function uses a non-reentrant model
;;
psect	text548
	file	"C:\Program Files (x86)\HI-TECH Software\PICC\9.82\sources\ftdivl.c"
	line	61
	global	__size_of__tdiv_to_l_
	__size_of__tdiv_to_l_	equ	__end_of__tdiv_to_l_-__tdiv_to_l_
	
__tdiv_to_l_:	
	opt	stack 6
; Regs used in __tdiv_to_l_: [wreg+status,2+status,0]
	line	66
	
l4771:	
	movf	(__tdiv_to_l_@f1),w
	movwf	((??__tdiv_to_l_+0)+0)
	movf	(__tdiv_to_l_@f1+1),w
	movwf	((??__tdiv_to_l_+0)+0+1)
	movf	(__tdiv_to_l_@f1+2),w
	movwf	((??__tdiv_to_l_+0)+0+2)
	clrc
	rlf	(??__tdiv_to_l_+0)+1,w
	rlf	(??__tdiv_to_l_+0)+2,w
	bcf	status, 5	;RP0=0, select bank0
	movwf	(__tdiv_to_l_@exp1)
	movf	((__tdiv_to_l_@exp1)),f
	skipz
	goto	u1631
	goto	u1630
u1631:
	goto	l4775
u1630:
	line	67
	
l4773:	
	clrf	(?__tdiv_to_l_)
	clrf	(?__tdiv_to_l_+1)
	clrf	(?__tdiv_to_l_+2)
	clrf	(?__tdiv_to_l_+3)
	goto	l2451
	line	68
	
l4775:	
	movf	(__tdiv_to_l_@f2),w
	movwf	((??__tdiv_to_l_+0)+0)
	movf	(__tdiv_to_l_@f2+1),w
	movwf	((??__tdiv_to_l_+0)+0+1)
	movf	(__tdiv_to_l_@f2+2),w
	movwf	((??__tdiv_to_l_+0)+0+2)
	clrc
	rlf	(??__tdiv_to_l_+0)+1,w
	rlf	(??__tdiv_to_l_+0)+2,w
	movwf	(__tdiv_to_l_@cntr)
	movf	((__tdiv_to_l_@cntr)),f
	skipz
	goto	u1641
	goto	u1640
u1641:
	goto	l2452
u1640:
	goto	l4773
	line	69
	
l2452:	
	line	70
	bsf	(__tdiv_to_l_@f1)+(15/8),(15)&7
	line	71
	
l4779:	
	movlw	0FFh
	andwf	(__tdiv_to_l_@f1),f
	movlw	0FFh
	andwf	(__tdiv_to_l_@f1+1),f
	movlw	0
	andwf	(__tdiv_to_l_@f1+2),f
	line	72
	
l4781:	
	bsf	(__tdiv_to_l_@f2)+(15/8),(15)&7
	line	73
	movlw	0FFh
	andwf	(__tdiv_to_l_@f2),f
	movlw	0FFh
	andwf	(__tdiv_to_l_@f2+1),f
	movlw	0
	andwf	(__tdiv_to_l_@f2+2),f
	line	74
	
l4783:	
	clrf	(__tdiv_to_l_@quot)
	clrf	(__tdiv_to_l_@quot+1)
	clrf	(__tdiv_to_l_@quot+2)
	clrf	(__tdiv_to_l_@quot+3)
	line	75
	
l4785:	
	movlw	low(07Fh)
	subwf	(__tdiv_to_l_@exp1),f
	line	76
	
l4787:	
	movlw	(098h)
	addwf	(__tdiv_to_l_@cntr),w
	movwf	(??__tdiv_to_l_+0)+0
	movf	0+(??__tdiv_to_l_+0)+0,w
	subwf	(__tdiv_to_l_@exp1),f
	line	77
	movlw	(018h)
	movwf	(__tdiv_to_l_@cntr)
	line	79
	
l4789:	
	clrc
	rlf	(__tdiv_to_l_@quot),f
	rlf	(__tdiv_to_l_@quot+1),f
	rlf	(__tdiv_to_l_@quot+2),f
	rlf	(__tdiv_to_l_@quot+3),f
	line	80
	
l4791:	
	movf	(__tdiv_to_l_@f2+2),w
	subwf	(__tdiv_to_l_@f1+2),w
	skipz
	goto	u1655
	movf	(__tdiv_to_l_@f2+1),w
	subwf	(__tdiv_to_l_@f1+1),w
	skipz
	goto	u1655
	movf	(__tdiv_to_l_@f2),w
	subwf	(__tdiv_to_l_@f1),w
u1655:
	skipc
	goto	u1651
	goto	u1650
u1651:
	goto	l4797
u1650:
	line	81
	
l4793:	
	movf	(__tdiv_to_l_@f2),w
	subwf	(__tdiv_to_l_@f1),f
	movf	(__tdiv_to_l_@f2+1),w
	skipc
	incfsz	(__tdiv_to_l_@f2+1),w
	subwf	(__tdiv_to_l_@f1+1),f
	movf	(__tdiv_to_l_@f2+2),w
	skipc
	incf	(__tdiv_to_l_@f2+2),w
	subwf	(__tdiv_to_l_@f1+2),f
	line	82
	
l4795:	
	bsf	(__tdiv_to_l_@quot)+(0/8),(0)&7
	line	84
	
l4797:	
	clrc
	rlf	(__tdiv_to_l_@f1),f
	rlf	(__tdiv_to_l_@f1+1),f
	rlf	(__tdiv_to_l_@f1+2),f
	line	85
	
l4799:	
	decfsz	(__tdiv_to_l_@cntr),f
	goto	u1661
	goto	u1660
u1661:
	goto	l4789
u1660:
	
l2455:	
	line	86
	btfss	(__tdiv_to_l_@exp1),7
	goto	u1671
	goto	u1670
u1671:
	goto	l4809
u1670:
	line	87
	
l4801:	
	movf	(__tdiv_to_l_@exp1),w
	xorlw	80h
	addlw	-((-23)^80h)
	skipnc
	goto	u1681
	goto	u1680
u1681:
	goto	l4805
u1680:
	goto	l4773
	line	90
	
l4805:	
	clrc
	rrf	(__tdiv_to_l_@quot+3),f
	rrf	(__tdiv_to_l_@quot+2),f
	rrf	(__tdiv_to_l_@quot+1),f
	rrf	(__tdiv_to_l_@quot),f
	line	91
	
l4807:	
	incfsz	(__tdiv_to_l_@exp1),f
	goto	u1691
	goto	u1690
u1691:
	goto	l4805
u1690:
	goto	l4815
	line	93
	
l4809:	
	movlw	(018h)
	subwf	(__tdiv_to_l_@exp1),w
	skipc
	goto	u1701
	goto	u1700
u1701:
	goto	l2462
u1700:
	goto	l4773
	line	96
	
l4813:	
	clrc
	rlf	(__tdiv_to_l_@quot),f
	rlf	(__tdiv_to_l_@quot+1),f
	rlf	(__tdiv_to_l_@quot+2),f
	rlf	(__tdiv_to_l_@quot+3),f
	line	97
	decf	(__tdiv_to_l_@exp1),f
	line	98
	
l2462:	
	line	95
	movf	(__tdiv_to_l_@exp1),f
	skipz
	goto	u1711
	goto	u1710
u1711:
	goto	l4813
u1710:
	line	100
	
l4815:	
	movf	(__tdiv_to_l_@quot+3),w
	movwf	(?__tdiv_to_l_+3)
	movf	(__tdiv_to_l_@quot+2),w
	movwf	(?__tdiv_to_l_+2)
	movf	(__tdiv_to_l_@quot+1),w
	movwf	(?__tdiv_to_l_+1)
	movf	(__tdiv_to_l_@quot),w
	movwf	(?__tdiv_to_l_)

	line	101
	
l2451:	
	return
	opt stack 0
GLOBAL	__end_of__tdiv_to_l_
	__end_of__tdiv_to_l_:
;; =============== function __tdiv_to_l_ ends ============

	signat	__tdiv_to_l_,8316
	global	_isdigit
psect	text549,local,class=CODE,delta=2
global __ptext549
__ptext549:

;; *************** function _isdigit *****************
;; Defined at:
;;		line 13 in file "C:\Program Files (x86)\HI-TECH Software\PICC\9.82\sources\isdigit.c"
;; Parameters:    Size  Location     Type
;;  c               1    wreg     unsigned char 
;; Auto vars:     Size  Location     Type
;;  c               1    1[COMMON] unsigned char 
;; Return value:  Size  Location     Type
;;		None               void
;; Registers used:
;;		wreg, status,2, status,0
;; Tracked objects:
;;		On entry : 60/0
;;		On exit  : 60/0
;;		Unchanged: FFF9F/0
;; Data sizes:     COMMON   BANK0   BANK1   BANK3   BANK2
;;      Params:         0       0       0       0       0
;;      Locals:         2       0       0       0       0
;;      Temps:          0       0       0       0       0
;;      Totals:         2       0       0       0       0
;;Total ram usage:        2 bytes
;; Hardware stack levels used:    1
;; This function calls:
;;		Nothing
;; This function is called by:
;;		_sprintf
;; This function uses a non-reentrant model
;;
psect	text549
	file	"C:\Program Files (x86)\HI-TECH Software\PICC\9.82\sources\isdigit.c"
	line	13
	global	__size_of_isdigit
	__size_of_isdigit	equ	__end_of_isdigit-_isdigit
	
_isdigit:	
	opt	stack 6
; Regs used in _isdigit: [wreg+status,2+status,0]
;isdigit@c stored from wreg
	movwf	(isdigit@c)
	line	14
	
l4759:	
	clrf	(_isdigit$2409)
	
l4761:	
	movlw	(03Ah)
	subwf	(isdigit@c),w
	skipnc
	goto	u1611
	goto	u1610
u1611:
	goto	l4767
u1610:
	
l4763:	
	movlw	(030h)
	subwf	(isdigit@c),w
	skipc
	goto	u1621
	goto	u1620
u1621:
	goto	l4767
u1620:
	
l4765:	
	clrf	(_isdigit$2409)
	incf	(_isdigit$2409),f
	
l4767:	
	rrf	(_isdigit$2409),w
	
	line	15
	
l2194:	
	return
	opt stack 0
GLOBAL	__end_of_isdigit
	__end_of_isdigit:
;; =============== function _isdigit ends ============

	signat	_isdigit,4216
	global	_msecbase
psect	text550,local,class=CODE,delta=2
global __ptext550
__ptext550:

;; *************** function _msecbase *****************
;; Defined at:
;;		line 193 in file "C:\Users\Jorge\OneDrive\Escritorio\Microcontroladores\Proyectos\LCD1\LCD1.c"
;; Parameters:    Size  Location     Type
;;		None
;; Auto vars:     Size  Location     Type
;;		None
;; Return value:  Size  Location     Type
;;		None               void
;; Registers used:
;;		wreg
;; Tracked objects:
;;		On entry : 0/0
;;		On exit  : 0/0
;;		Unchanged: FFF9F/0
;; Data sizes:     COMMON   BANK0   BANK1   BANK3   BANK2
;;      Params:         0       0       0       0       0
;;      Locals:         0       0       0       0       0
;;      Temps:          0       0       0       0       0
;;      Totals:         0       0       0       0       0
;;Total ram usage:        0 bytes
;; Hardware stack levels used:    1
;; This function calls:
;;		Nothing
;; This function is called by:
;;		_pause
;; This function uses a non-reentrant model
;;
psect	text550
	file	"C:\Users\Jorge\OneDrive\Escritorio\Microcontroladores\Proyectos\LCD1\LCD1.c"
	line	193
	global	__size_of_msecbase
	__size_of_msecbase	equ	__end_of_msecbase-_msecbase
	
_msecbase:	
	opt	stack 6
; Regs used in _msecbase: [wreg]
	line	194
	
l4757:	
;LCD1.c: 194: OPTION_REG = 0b11010001;
	movlw	(0D1h)
	bsf	status, 5	;RP0=1, select bank1
	bcf	status, 6	;RP1=0, select bank1
	movwf	(129)^080h	;volatile
	line	195
;LCD1.c: 195: TMR0 = 0x0E;
	movlw	(0Eh)
	bcf	status, 5	;RP0=0, select bank0
	movwf	(1)	;volatile
	line	197
;LCD1.c: 197: while(!T0IF);
	
l1096:	
	btfss	(90/8),(90)&7
	goto	u1601
	goto	u1600
u1601:
	goto	l1096
u1600:
	
l1098:	
	line	198
;LCD1.c: 198: T0IF = 0;
	bcf	(90/8),(90)&7
	line	199
	
l1099:	
	return
	opt stack 0
GLOBAL	__end_of_msecbase
	__end_of_msecbase:
;; =============== function _msecbase ends ============

	signat	_msecbase,88
	global	_init_comms
psect	text551,local,class=CODE,delta=2
global __ptext551
__ptext551:

;; *************** function _init_comms *****************
;; Defined at:
;;		line 172 in file "C:\Users\Jorge\OneDrive\Escritorio\Microcontroladores\Proyectos\LCD1\LCD1.c"
;; Parameters:    Size  Location     Type
;;		None
;; Auto vars:     Size  Location     Type
;;		None
;; Return value:  Size  Location     Type
;;		None               void
;; Registers used:
;;		wreg, status,2
;; Tracked objects:
;;		On entry : 11F/0
;;		On exit  : 17F/60
;;		Unchanged: FFE80/0
;; Data sizes:     COMMON   BANK0   BANK1   BANK3   BANK2
;;      Params:         0       0       0       0       0
;;      Locals:         0       0       0       0       0
;;      Temps:          0       0       0       0       0
;;      Totals:         0       0       0       0       0
;;Total ram usage:        0 bytes
;; Hardware stack levels used:    1
;; This function calls:
;;		Nothing
;; This function is called by:
;;		_main
;; This function uses a non-reentrant model
;;
psect	text551
	file	"C:\Users\Jorge\OneDrive\Escritorio\Microcontroladores\Proyectos\LCD1\LCD1.c"
	line	172
	global	__size_of_init_comms
	__size_of_init_comms	equ	__end_of_init_comms-_init_comms
	
_init_comms:	
	opt	stack 7
; Regs used in _init_comms: [wreg+status,2]
	line	173
	
l4751:	
;LCD1.c: 173: TRISC6 = 1;
	bsf	status, 5	;RP0=1, select bank1
	bcf	status, 6	;RP1=0, select bank1
	bsf	(1086/8)^080h,(1086)&7
	line	174
;LCD1.c: 174: TRISC7 = 0;
	bcf	(1087/8)^080h,(1087)&7
	line	175
	
l4753:	
;LCD1.c: 175: SPBRG = ((int)(4000000L/(64UL * 9600) -1));
	movlw	(05h)
	movwf	(153)^080h	;volatile
	line	177
;LCD1.c: 177: RCSTA = 0x90;
	movlw	(090h)
	bcf	status, 5	;RP0=0, select bank0
	movwf	(24)	;volatile
	line	178
;LCD1.c: 178: TXSTA = 0x20;
	movlw	(020h)
	bsf	status, 5	;RP0=1, select bank1
	movwf	(152)^080h	;volatile
	line	179
	
l4755:	
;LCD1.c: 179: BAUDCTL = 0;
	bsf	status, 6	;RP1=1, select bank3
	clrf	(391)^0180h	;volatile
	line	180
	
l1087:	
	return
	opt stack 0
GLOBAL	__end_of_init_comms
	__end_of_init_comms:
;; =============== function _init_comms ends ============

	signat	_init_comms,88
psect	text552,local,class=CODE,delta=2
global __ptext552
__ptext552:
	global	btemp
	btemp set 07Eh

	DABS	1,126,2	;btemp
	global	wtemp0
	wtemp0 set btemp
	end
