

HI-TECH Software PIC PRO Macro Assembler V9.82 build 9453 
                                                                                               Sat May 07 15:51:28 2022

HI-TECH Software Omniscient Code Generator (PRO mode) build 9453
     1                           	processor	16F887
     2                           	opt	pw 120
     3                           	opt	pm
     4                           	psect	config,global,class=CONFIG,delta=2
     5                           	psect	idataCOMMON,global,class=CODE,delta=2
     6                           	psect	nvCOMMON,global,class=COMMON,space=1,delta=1
     7                           	psect	cinit,global,class=CODE,delta=2
     8                           	psect	dataCOMMON,global,class=COMMON,space=1,delta=1
     9                           	psect	cstackCOMMON,global,class=COMMON,space=1,delta=1
    10                           	psect	maintext,global,class=CODE,delta=2
    11                           	psect	text26,local,class=CODE,delta=2
    12                           	psect	text27,local,class=CODE,delta=2
    13                           	psect	text28,local,class=CODE,delta=2
    14                           	psect	pa_nodes,global,class=CODE,delta=2
    15                           	dabs	1,0x7E,2
    16  000A                     	;#
    17                           
    18                           	psect	config
    19  2007  E0D4               	dw	57556	;#
    20  2008  FFFF               	dw	65535	;#
    21                           
    22                           	psect	idataCOMMON
    23  0000                     __pidataCOMMON:	
    24                           
    25                           	psect	nvCOMMON
    26  0070                     __pnvCOMMON:	
    27  0070                     _OP:	
    28  0070                     	ds	1
    29  0071                     _RS:	
    30  0071                     	ds	1
    31  0072                     _VPA:	
    32  0072                     	ds	1
    33  0073                     _VPB:	
    34  0073                     	ds	1
    35  0005                     _PORTA	set	5
    36  0006                     _PORTB	set	6
    37  0007                     _PORTC	set	7
    38  0085                     _TRISA	set	133
    39  0086                     _TRISB	set	134
    40  0087                     _TRISC	set	135
    41  0088                     _TRISD	set	136
    42  0089                     _TRISE	set	137
    43  0188                     _ANSEL	set	392
    44  0189                     _ANSELH	set	393
    45                           
    46                           	psect	cinit
    47  0788                     start_initialization:	
    48                           
    49                           ;initializer for _NA
    50  0788  300F               	movlw	15
    51  0789  00F8               	movwf	__pdataCOMMON& (0+127)
    52                           
    53                           ;initializer for _NB
    54  078A  30F0               	movlw	240
    55  078B  00F9               	movwf	(__pdataCOMMON+1)& (0+127)
    56  078C                     end_of_initialization:	
    57                           ;End of C runtime variable initialization code
    58                           
    59  078C  0183               	clrf	3
    60  078D  120A  118A  2FB9   	ljmp	_main	;jump to C main() function
    61                           
    62                           	psect	dataCOMMON
    63  0078                     __pdataCOMMON:	
    64  0078                     _NA:	
    65  0078                     	ds	1
    66  0079                     _NB:	
    67  0079                     	ds	1
    68                           
    69                           	psect	cstackCOMMON
    70  0074                     __pcstackCOMMON:	
    71  0074                     ?_main:	
    72  0074                     ?___bmul:	
    73                           ; 0 bytes @ 0x0
    74                           
    75  0074                     ?___lbdiv:	
    76                           ; 1 bytes @ 0x0
    77                           
    78  0074                     ___bmul@multiplicand:	
    79                           ; 1 bytes @ 0x0
    80                           
    81  0074                     ___lbdiv@divisor:	
    82                           ; 1 bytes @ 0x0
    83                           
    84                           
    85                           ; 1 bytes @ 0x0
    86  0074                     	ds	1
    87  0075                     ??___bmul:	
    88  0075                     ??___lbdiv:	
    89                           ; 0 bytes @ 0x1
    90                           
    91  0075                     ___bmul@product:	
    92                           ; 0 bytes @ 0x1
    93                           
    94  0075                     ___lbdiv@dividend:	
    95                           ; 1 bytes @ 0x1
    96                           
    97                           
    98                           ; 1 bytes @ 0x1
    99  0075                     	ds	1
   100  0076                     ___bmul@multiplier:	
   101  0076                     ___lbdiv@counter:	
   102                           ; 1 bytes @ 0x2
   103                           
   104                           
   105                           ; 1 bytes @ 0x2
   106  0076                     	ds	1
   107  0077                     ___lbdiv@quotient:	
   108                           
   109                           ; 1 bytes @ 0x3
   110  0077                     	ds	1
   111  0078                     ??_main:	
   112                           
   113                           	psect	maintext
   114  07B9                     __pmaintext:	
   115                           ; 0 bytes @ 0x4
   116 ;;Data sizes: Strings 0, constant 0, data 2, bss 0, persistent 4 stack 0
   117 ;;Auto spaces:   Size  Autos    Used
   118 ;; COMMON          14      4      10
   119 ;; BANK0           80      0       0
   120 ;; BANK1           80      0       0
   121 ;; BANK3           96      0       0
   122 ;; BANK2           96      0       0
   123 ;;
   124 ;; Pointer list with targets:
   125 ;;
   126 ;; Critical Paths under _main in COMMON
   127 ;;
   128 ;;   _main->___lbdiv
   129 ;;
   130 ;; Critical Paths under _main in BANK0
   131 ;;
   132 ;;   None.
   133 ;;
   134 ;; Critical Paths under _main in BANK1
   135 ;;
   136 ;;   None.
   137 ;;
   138 ;; Critical Paths under _main in BANK3
   139 ;;
   140 ;;   None.
   141 ;;
   142 ;; Critical Paths under _main in BANK2
   143 ;;
   144 ;;   None.
   145 ;;
   146 ;;Main: autosize = 0, tempsize = 0, incstack = 0, save=0
   147 ;;
   148 ;;
   149 ;;Call Graph Tables:
   150 ;;
   151 ;; ---------------------------------------------------------------------------------
   152 ;; (Depth) Function   	        Calls       Base Space   Used Autos Params    Refs
   153 ;; ---------------------------------------------------------------------------------
   154 ;; (0) _main                                                 0     0      0     165
   155 ;;                             ___bmul
   156 ;;                            ___lbdiv
   157 ;; ---------------------------------------------------------------------------------
   158 ;; (1) ___lbdiv                                              4     3      1     105
   159 ;;                                              0 COMMON     4     3      1
   160 ;; ---------------------------------------------------------------------------------
   161 ;; (1) ___bmul                                               3     2      1      60
   162 ;;                                              0 COMMON     3     2      1
   163 ;; ---------------------------------------------------------------------------------
   164 ;; Estimated maximum stack depth 1
   165 ;; ---------------------------------------------------------------------------------
   166 ;; Call Graph Graphs:
   167 ;; _main (ROOT)
   168 ;;   ___bmul
   169 ;;   ___lbdiv
   170 ;;
   171 ;; Address spaces:
   172 ;;Name               Size   Autos  Total    Cost      Usage
   173 ;;BANK3               60      0       0       9        0.0%
   174 ;;BITBANK3            60      0       0       8        0.0%
   175 ;;SFR3                 0      0       0       4        0.0%
   176 ;;BITSFR3              0      0       0       4        0.0%
   177 ;;BANK2               60      0       0      11        0.0%
   178 ;;BITBANK2            60      0       0      10        0.0%
   179 ;;SFR2                 0      0       0       5        0.0%
   180 ;;BITSFR2              0      0       0       5        0.0%
   181 ;;SFR1                 0      0       0       2        0.0%
   182 ;;BITSFR1              0      0       0       2        0.0%
   183 ;;BANK1               50      0       0       7        0.0%
   184 ;;BITBANK1            50      0       0       6        0.0%
   185 ;;CODE                 0      0       0       0        0.0%
   186 ;;DATA                 0      0       B      12        0.0%
   187 ;;ABS                  0      0       A       3        0.0%
   188 ;;NULL                 0      0       0       0        0.0%
   189 ;;STACK                0      0       1       2        0.0%
   190 ;;BANK0               50      0       0       5        0.0%
   191 ;;BITBANK0            50      0       0       4        0.0%
   192 ;;SFR0                 0      0       0       1        0.0%
   193 ;;BITSFR0              0      0       0       1        0.0%
   194 ;;COMMON               E      4       A       1       71.4%
   195 ;;BITCOMMON            E      0       0       0        0.0%
   196 ;;EEDATA             100      0       0       0        0.0%
   197                           
   198                           
   199 ;; *************** function _main *****************
   200 ;; Defined at:
   201 ;;		line 18 in file "C:\Users\Jorge\OneDrive\Escritorio\PROGS C\OPERACIONES\OPERACIONES.c"
   202 ;; Parameters:    Size  Location     Type
   203 ;;		None
   204 ;; Auto vars:     Size  Location     Type
   205 ;;		None
   206 ;; Return value:  Size  Location     Type
   207 ;;		None               void
   208 ;; Registers used:
   209 ;;		wreg, fsr0l, fsr0h, status,2, status,0, pclath, cstack
   210 ;; Tracked objects:
   211 ;;		On entry : 17F/0
   212 ;;		On exit  : 17F/0
   213 ;;		Unchanged: FFE80/0
   214 ;; Data sizes:     COMMON   BANK0   BANK1   BANK3   BANK2
   215 ;;      Params:         0       0       0       0       0
   216 ;;      Locals:         0       0       0       0       0
   217 ;;      Temps:          0       0       0       0       0
   218 ;;      Totals:         0       0       0       0       0
   219 ;;Total ram usage:        0 bytes
   220 ;; Hardware stack levels required when called:    1
   221 ;; This function calls:
   222 ;;		___bmul
   223 ;;		___lbdiv
   224 ;; This function is called by:
   225 ;;		Startup code after reset
   226 ;; This function uses a non-reentrant model
   227 ;;
   228  07B9                     _main:	
   229                           
   230                           ;OPERACIONES.c: 20: ANSEL = 0x00;
   231                           
   232                           ; Regs used in _main: [wreg-fsr0h+status,2+status,0+pclath+cstack]
   233  07B9  1683               	bsf	3,5	;RP0=1, select bank3
   234  07BA  1703               	bsf	3,6	;RP1=1, select bank3
   235  07BB  0188               	clrf	8	;volatile
   236                           
   237                           ;OPERACIONES.c: 21: ANSELH = 0x00;
   238  07BC  0189               	clrf	9	;volatile
   239                           
   240                           ;OPERACIONES.c: 23: TRISA = 0x00;
   241  07BD  1303               	bcf	3,6	;RP1=0, select bank1
   242  07BE  0185               	clrf	5	;volatile
   243                           
   244                           ;OPERACIONES.c: 24: TRISB = 0xFF;
   245  07BF  30FF               	movlw	255
   246  07C0  0086               	movwf	6	;volatile
   247                           
   248                           ;OPERACIONES.c: 25: TRISC = 0xFF;
   249  07C1  0087               	movwf	7	;volatile
   250                           
   251                           ;OPERACIONES.c: 26: TRISD = 0x00;
   252  07C2  0188               	clrf	8	;volatile
   253                           
   254                           ;OPERACIONES.c: 27: TRISE = 0x00;
   255  07C3  0189               	clrf	9	;volatile
   256                           
   257                           ;OPERACIONES.c: 42: switch(OP){
   258  07C4  2FE0               	goto	l2488
   259  07C5                     l2500:	
   260                           
   261                           ;OPERACIONES.c: 45: RS = VPA + VPB;
   262  07C5  0873               	movf	_VPB,w
   263  07C6  0772               	addwf	_VPA,w
   264  07C7  2FDE               	goto	L3
   265  07C8                     l2504:	
   266                           ;OPERACIONES.c: 47: break;
   267                           
   268                           ;OPERACIONES.c: 46: PORTA = RS;
   269                           
   270                           
   271                           ;OPERACIONES.c: 50: RS = VPA - VPB;
   272  07C8  0873               	movf	_VPB,w
   273  07C9  0272               	subwf	_VPA,w
   274  07CA  2FDE               	goto	L3
   275  07CB                     l2508:	
   276                           
   277                           ;OPERACIONES.c: 55: RS = VPA * VPB;
   278  07CB  0873               	movf	_VPB,w
   279  07CC  00F4               	movwf	?___bmul
   280  07CD  0872               	movf	_VPA,w
   281  07CE  120A  118A  2790   	fcall	___bmul
      +       120A  118A         
   282  07D3  2FDE               	goto	L3
   283  07D4                     l2512:	
   284                           
   285                           ;OPERACIONES.c: 60: RS = VPB / VPA;
   286  07D4  0872               	movf	_VPA,w
   287  07D5  00F4               	movwf	?___lbdiv
   288  07D6  0873               	movf	_VPB,w
   289  07D7  120A  118A  279E   	fcall	___lbdiv
      +       120A  118A         
   290  07DC  2FDE               	goto	L3
   291  07DD                     l2516:	
   292                           
   293                           ;OPERACIONES.c: 65: RS = 0xFF;
   294  07DD  30FF               	movlw	255
   295  07DE                     L3:	
   296  07DE  00F1               	movwf	_RS
   297                           
   298                           ;OPERACIONES.c: 66: PORTA = RS;
   299  07DF  0085               	movwf	5	;volatile
   300  07E0                     l2488:	
   301                           ;OPERACIONES.c: 67: break;
   302                           
   303                           
   304                           ;OPERACIONES.c: 30: {
   305                           ;OPERACIONES.c: 32: NA = PORTB;
   306  07E0  1283               	bcf	3,5	;RP0=0, select bank0
   307  07E1  0806               	movf	6,w	;volatile
   308  07E2  00F8               	movwf	_NA
   309                           
   310                           ;OPERACIONES.c: 33: NB = PORTB;
   311  07E3  0806               	movf	6,w	;volatile
   312  07E4  00F9               	movwf	_NB
   313                           
   314                           ;OPERACIONES.c: 35: VPA=NA>>4;
   315  07E5  0E78               	swapf	_NA,w
   316  07E6  390F               	andlw	15
   317  07E7  00F2               	movwf	_VPA
   318  07E8  30F0               	movlw	240
   319                           
   320                           ;OPERACIONES.c: 37: NB=NB<<4;
   321  07E9  0EF9               	swapf	_NB,f
   322  07EA  05F9               	andwf	_NB,f
   323                           
   324                           ;OPERACIONES.c: 38: VPB=NB>>4;
   325  07EB  0E79               	swapf	_NB,w
   326  07EC  390F               	andlw	15
   327  07ED  00F3               	movwf	_VPB
   328                           
   329                           ;OPERACIONES.c: 40: OP = PORTC;
   330  07EE  0807               	movf	7,w	;volatile
   331  07EF  00F0               	movwf	_OP
   332                           
   333                           ; Switch size 1, requested type "space"
   334                           ; Number of cases is 4, Range of values is 0 to 3
   335                           ; switch strategies available:
   336                           ; Name         Instructions Cycles
   337                           ; simple_byte           13     7 (average)
   338                           ; direct_byte           20     8 (fixed)
   339                           ; jumptable            260     6 (fixed)
   340                           ; rangetable             8     6 (fixed)
   341                           ; spacedrange           14     9 (fixed)
   342                           ; locatedrange           4     3 (fixed)
   343                           ;	Chosen strategy is simple_byte
   344  07F0  3A00               	xorlw	0	; case 0
   345  07F1  1903               	skipnz
   346  07F2  2FC5               	goto	l2500
   347  07F3  3A01               	xorlw	1	; case 1
   348  07F4  1903               	skipnz
   349  07F5  2FC8               	goto	l2504
   350  07F6  3A03               	xorlw	3	; case 2
   351  07F7  1903               	skipnz
   352  07F8  2FCB               	goto	l2508
   353  07F9  3A01               	xorlw	1	; case 3
   354  07FA  1903               	skipnz
   355  07FB  2FD4               	goto	l2512
   356  07FC  2FDD               	goto	l2516
   357  07FD  120A  118A  2800   	ljmp	start
   358  0800                     __end_of_main:	
   359                           
   360                           	psect	text26
   361  079E                     __ptext26:	
   362 ;; =============== function _main ends ============
   363                           
   364                           
   365 ;; *************** function ___lbdiv *****************
   366 ;; Defined at:
   367 ;;		line 5 in file "C:\Program Files (x86)\HI-TECH Software\PICC\9.82\sources\lbdiv.c"
   368 ;; Parameters:    Size  Location     Type
   369 ;;  dividend        1    wreg     unsigned char 
   370 ;;  divisor         1    0[COMMON] unsigned char 
   371 ;; Auto vars:     Size  Location     Type
   372 ;;  dividend        1    1[COMMON] unsigned char 
   373 ;;  quotient        1    3[COMMON] unsigned char 
   374 ;;  counter         1    2[COMMON] unsigned char 
   375 ;; Return value:  Size  Location     Type
   376 ;;                  1    wreg      unsigned char 
   377 ;; Registers used:
   378 ;;		wreg, status,2, status,0
   379 ;; Tracked objects:
   380 ;;		On entry : 17F/0
   381 ;;		On exit  : 17F/0
   382 ;;		Unchanged: FFE80/0
   383 ;; Data sizes:     COMMON   BANK0   BANK1   BANK3   BANK2
   384 ;;      Params:         1       0       0       0       0
   385 ;;      Locals:         3       0       0       0       0
   386 ;;      Temps:          0       0       0       0       0
   387 ;;      Totals:         4       0       0       0       0
   388 ;;Total ram usage:        4 bytes
   389 ;; Hardware stack levels used:    1
   390 ;; This function calls:
   391 ;;		Nothing
   392 ;; This function is called by:
   393 ;;		_main
   394 ;; This function uses a non-reentrant model
   395 ;;
   396  079E                     ___lbdiv:	
   397                           
   398                           ; Regs used in ___lbdiv: [wreg+status,2+status,0]
   399                           ;___lbdiv@dividend stored from wreg
   400  079E  00F5               	movwf	___lbdiv@dividend
   401  079F  01F7               	clrf	___lbdiv@quotient
   402  07A0  0874               	movf	___lbdiv@divisor,w
   403  07A1  1903               	btfsc	3,2
   404  07A2  2FB7               	goto	l2478
   405  07A3  01F6               	clrf	___lbdiv@counter
   406  07A4                     l2464:	
   407  07A4  0AF6               	incf	___lbdiv@counter,f
   408  07A5  1BF4               	btfsc	___lbdiv@divisor,7
   409  07A6  2FAA               	goto	l2080
   410  07A7  1003               	clrc
   411  07A8  0DF4               	rlf	___lbdiv@divisor,f
   412  07A9  2FA4               	goto	l2464
   413  07AA                     l2080:	
   414  07AA  1003               	clrc
   415  07AB  0DF7               	rlf	___lbdiv@quotient,f
   416  07AC  0874               	movf	___lbdiv@divisor,w
   417  07AD  0275               	subwf	___lbdiv@dividend,w
   418  07AE  1C03               	skipc
   419  07AF  2FB4               	goto	L4
   420  07B0  0874               	movf	___lbdiv@divisor,w
   421  07B1  02F5               	subwf	___lbdiv@dividend,f
   422  07B2  1477               	bsf	___lbdiv@quotient,0
   423  07B3  1003               	clrc
   424  07B4                     L4:	
   425  07B4  0CF4               	rrf	___lbdiv@divisor,f
   426  07B5  0BF6               	decfsz	___lbdiv@counter,f
   427  07B6  2FAA               	goto	l2080
   428  07B7                     l2478:	
   429  07B7  0877               	movf	___lbdiv@quotient,w
   430  07B8  0008               	return
   431  07B9                     __end_of___lbdiv:	
   432                           
   433                           	psect	text27
   434  0790                     __ptext27:	
   435 ;; =============== function ___lbdiv ends ============
   436                           
   437                           
   438 ;; *************** function ___bmul *****************
   439 ;; Defined at:
   440 ;;		line 3 in file "C:\Program Files (x86)\HI-TECH Software\PICC\9.82\sources\bmul.c"
   441 ;; Parameters:    Size  Location     Type
   442 ;;  multiplier      1    wreg     unsigned char 
   443 ;;  multiplicand    1    0[COMMON] unsigned char 
   444 ;; Auto vars:     Size  Location     Type
   445 ;;  multiplier      1    2[COMMON] unsigned char 
   446 ;;  product         1    1[COMMON] unsigned char 
   447 ;; Return value:  Size  Location     Type
   448 ;;                  1    wreg      unsigned char 
   449 ;; Registers used:
   450 ;;		wreg, status,2, status,0
   451 ;; Tracked objects:
   452 ;;		On entry : 17F/0
   453 ;;		On exit  : 17F/0
   454 ;;		Unchanged: FFE80/0
   455 ;; Data sizes:     COMMON   BANK0   BANK1   BANK3   BANK2
   456 ;;      Params:         1       0       0       0       0
   457 ;;      Locals:         2       0       0       0       0
   458 ;;      Temps:          0       0       0       0       0
   459 ;;      Totals:         3       0       0       0       0
   460 ;;Total ram usage:        3 bytes
   461 ;; Hardware stack levels used:    1
   462 ;; This function calls:
   463 ;;		Nothing
   464 ;; This function is called by:
   465 ;;		_main
   466 ;; This function uses a non-reentrant model
   467 ;;
   468  0790                     ___bmul:	
   469                           
   470                           ; Regs used in ___bmul: [wreg+status,2+status,0]
   471                           ;___bmul@multiplier stored from wreg
   472  0790  00F6               	movwf	___bmul@multiplier
   473  0791  01F5               	clrf	___bmul@product
   474  0792                     l2444:	
   475  0792  0874               	movf	___bmul@multiplicand,w
   476  0793  1876               	btfsc	___bmul@multiplier,0
   477  0794  07F5               	addwf	___bmul@product,f
   478  0795  1003               	clrc
   479  0796  0DF4               	rlf	___bmul@multiplicand,f
   480  0797  1003               	clrc
   481  0798  0CF6               	rrf	___bmul@multiplier,f
   482  0799  08F6               	movf	___bmul@multiplier,f
   483  079A  1D03               	skipz
   484  079B  2F92               	goto	l2444
   485  079C  0875               	movf	___bmul@product,w
   486  079D  0008               	return
   487  079E                     __end_of___bmul:	
   488                           
   489                           	psect	text28
   490  0000                     __ptext28:	
   491 ;; =============== function ___bmul ends ============
   492                           
   493  007E                     btemp	set	126	;btemp
   494  007E                     wtemp0	set	126


HI-TECH Software PICC Macro Assembler V9.82 build 9453 
Symbol Table                                                                                   Sat May 07 15:51:28 2022

      ___bmul@product 0075                    _NA 0078                    _NB 0079                    _OP 0070  
                  _RS 0071                   _VPA 0072                   _VPB 0073                  l2047 0000  
                l2080 07AA                  l2083 0000                  l2500 07C5                  l2512 07D4  
                l2504 07C8                  l2450 0000                  l2442 0000                  l2452 0000  
                l2444 0792                  l2460 0000                  l2516 07DD                  l2508 07CB  
                l2462 0000                  l2472 0000                  l2464 07A4                  l2458 0000  
                l2490 0000                  l2482 0000                  l2476 0000                  l2468 0000  
                l2492 0000                  l2484 0000                  l2478 07B7                  l2494 0000  
                l2486 0000                  l2496 0000                  l2488 07E0                  l2498 0000  
                _main 07B9                  btemp 007E                  start 0000     ___bmul@multiplier 0076  
               ?_main 0074       __end_of___lbdiv 07B9                 _ANSEL 0188                 _PORTA 0005  
               _PORTB 0006                 _PORTC 0007                 _TRISA 0085                 _TRISB 0086  
               _TRISC 0087                 _TRISD 0088                 _TRISE 0089                 status 0003  
               wtemp0 007E       ___lbdiv@divisor 0074       ___lbdiv@counter 0076          __end_of_main 0800  
              ??_main 0078                _ANSELH 0189                ___bmul 0790             ??___lbdiv 0075  
        __pdataCOMMON 0078      ___lbdiv@dividend 0075   ___bmul@multiplicand 0074        __pcstackCOMMON 0074  
    ___lbdiv@quotient 0077            __pnvCOMMON 0070            __pmaintext 07B9               ?___bmul 0074  
     __size_of___bmul 000E               ___lbdiv 079E  end_of_initialization 078C        __end_of___bmul 079E  
       __pidataCOMMON 0000   start_initialization 0788              ??___bmul 0075              ?___lbdiv 0074  
    __size_of___lbdiv 001B              __ptext26 079E              __ptext27 0790              __ptext28 0000  
       __size_of_main 0047  
