opt subtitle "HI-TECH Software Omniscient Code Generator (PRO mode) build 9453"

opt pagewidth 120

	opt pm

	processor	16F887
clrc	macro
	bcf	3,0
	endm
clrz	macro
	bcf	3,2
	endm
setc	macro
	bsf	3,0
	endm
setz	macro
	bsf	3,2
	endm
skipc	macro
	btfss	3,0
	endm
skipz	macro
	btfss	3,2
	endm
skipnc	macro
	btfsc	3,0
	endm
skipnz	macro
	btfsc	3,2
	endm
indf	equ	0
indf0	equ	0
pc	equ	2
pcl	equ	2
status	equ	3
fsr	equ	4
fsr0	equ	4
c	equ	1
z	equ	0
pclath	equ	10
# 3 "C:\Users\Jorge\OneDrive\Escritorio\PROGS C\TIMER1\TIMER1.c"
	psect config,class=CONFIG,delta=2 ;#
# 3 "C:\Users\Jorge\OneDrive\Escritorio\PROGS C\TIMER1\TIMER1.c"
	dw 0xFFFC & 0xFFF7 & 0xFFFF & 0xFFDF & 0xFFFF & 0xFFFF & 0xFCFF & 0xFBFF & 0xF7FF & 0xEFFF & 0xFFFF ;#
# 4 "C:\Users\Jorge\OneDrive\Escritorio\PROGS C\TIMER1\TIMER1.c"
	psect config,class=CONFIG,delta=2 ;#
# 4 "C:\Users\Jorge\OneDrive\Escritorio\PROGS C\TIMER1\TIMER1.c"
	dw 0xFFFF & 0xFFFF ;#
	FNROOT	_main
	global	_PORTA
psect	maintext,global,class=CODE,delta=2
global __pmaintext
__pmaintext:
_PORTA	set	5
	global	_TMR0
_TMR0	set	1
	global	_OPTION_REG
_OPTION_REG	set	129
	global	_TRISA
_TRISA	set	133
	global	_TRISB
_TRISB	set	134
	global	_TRISC
_TRISC	set	135
	global	_TRISD
_TRISD	set	136
	global	_TRISE
_TRISE	set	137
	global	_ANSEL
_ANSEL	set	392
	global	_ANSELH
_ANSELH	set	393
	file	"TIMER1.as"
	line	#
psect cinit,class=CODE,delta=2
global start_initialization
start_initialization:

psect cinit,class=CODE,delta=2
global end_of_initialization

;End of C runtime variable initialization code

end_of_initialization:
clrf status
ljmp _main	;jump to C main() function
psect	cstackCOMMON,class=COMMON,space=1
global __pcstackCOMMON
__pcstackCOMMON:
	global	?_main
?_main:	; 0 bytes @ 0x0
	global	??_main
??_main:	; 0 bytes @ 0x0
;;Data sizes: Strings 0, constant 0, data 0, bss 0, persistent 0 stack 0
;;Auto spaces:   Size  Autos    Used
;; COMMON          14      0       0
;; BANK0           80      0       0
;; BANK1           80      0       0
;; BANK3           96      0       0
;; BANK2           96      0       0

;;
;; Pointer list with targets:



;;
;; Critical Paths under _main in COMMON
;;
;;   None.
;;
;; Critical Paths under _main in BANK0
;;
;;   None.
;;
;; Critical Paths under _main in BANK1
;;
;;   None.
;;
;; Critical Paths under _main in BANK3
;;
;;   None.
;;
;; Critical Paths under _main in BANK2
;;
;;   None.

;;
;;Main: autosize = 0, tempsize = 0, incstack = 0, save=0
;;

;;
;;Call Graph Tables:
;;
;; ---------------------------------------------------------------------------------
;; (Depth) Function   	        Calls       Base Space   Used Autos Params    Refs
;; ---------------------------------------------------------------------------------
;; (0) _main                                                 0     0      0       0
;; ---------------------------------------------------------------------------------
;; Estimated maximum stack depth 0
;; ---------------------------------------------------------------------------------

;; Call Graph Graphs:

;; _main (ROOT)
;;

;; Address spaces:

;;Name               Size   Autos  Total    Cost      Usage
;;BITCOMMON            E      0       0       0        0.0%
;;EEDATA             100      0       0       0        0.0%
;;NULL                 0      0       0       0        0.0%
;;CODE                 0      0       0       0        0.0%
;;COMMON               E      0       0       1        0.0%
;;BITSFR0              0      0       0       1        0.0%
;;SFR0                 0      0       0       1        0.0%
;;BITSFR1              0      0       0       2        0.0%
;;SFR1                 0      0       0       2        0.0%
;;STACK                0      0       0       2        0.0%
;;ABS                  0      0       0       3        0.0%
;;BITBANK0            50      0       0       4        0.0%
;;BITSFR3              0      0       0       4        0.0%
;;SFR3                 0      0       0       4        0.0%
;;BANK0               50      0       0       5        0.0%
;;BITSFR2              0      0       0       5        0.0%
;;SFR2                 0      0       0       5        0.0%
;;BITBANK1            50      0       0       6        0.0%
;;BANK1               50      0       0       7        0.0%
;;BITBANK3            60      0       0       8        0.0%
;;BANK3               60      0       0       9        0.0%
;;BITBANK2            60      0       0      10        0.0%
;;BANK2               60      0       0      11        0.0%
;;DATA                 0      0       0      12        0.0%

	global	_main
psect	maintext

;; *************** function _main *****************
;; Defined at:
;;		line 9 in file "C:\Users\Jorge\OneDrive\Escritorio\PROGS C\TIMER1\TIMER1.c"
;; Parameters:    Size  Location     Type
;;		None
;; Auto vars:     Size  Location     Type
;;		None
;; Return value:  Size  Location     Type
;;		None               void
;; Registers used:
;;		wreg, status,2
;; Tracked objects:
;;		On entry : 17F/0
;;		On exit  : 17F/0
;;		Unchanged: FFE80/0
;; Data sizes:     COMMON   BANK0   BANK1   BANK3   BANK2
;;      Params:         0       0       0       0       0
;;      Locals:         0       0       0       0       0
;;      Temps:          0       0       0       0       0
;;      Totals:         0       0       0       0       0
;;Total ram usage:        0 bytes
;; This function calls:
;;		Nothing
;; This function is called by:
;;		Startup code after reset
;; This function uses a non-reentrant model
;;
psect	maintext
	file	"C:\Users\Jorge\OneDrive\Escritorio\PROGS C\TIMER1\TIMER1.c"
	line	9
	global	__size_of_main
	__size_of_main	equ	__end_of_main-_main
	
_main:	
	opt	stack 8
; Regs used in _main: [wreg+status,2]
	line	10
	
l2383:	
;TIMER1.c: 10: ANSEL = 0x00;
	bsf	status, 5	;RP0=1, select bank3
	bsf	status, 6	;RP1=1, select bank3
	clrf	(392)^0180h	;volatile
	line	11
;TIMER1.c: 11: ANSELH = 0x00;
	clrf	(393)^0180h	;volatile
	line	13
;TIMER1.c: 13: TRISA = 0x00;
	bcf	status, 6	;RP1=0, select bank1
	clrf	(133)^080h	;volatile
	line	14
	
l2385:	
;TIMER1.c: 14: TRISB = 0x10;
	movlw	(010h)
	movwf	(134)^080h	;volatile
	line	15
	
l2387:	
;TIMER1.c: 15: TRISC = 0x00;
	clrf	(135)^080h	;volatile
	line	16
	
l2389:	
;TIMER1.c: 16: TRISD = 0x00;
	clrf	(136)^080h	;volatile
	line	17
	
l2391:	
;TIMER1.c: 17: TRISE = 0x00;
	clrf	(137)^080h	;volatile
	line	19
;TIMER1.c: 19: OPTION_REG = 0b11110000;
	movlw	(0F0h)
	movwf	(129)^080h	;volatile
	line	21
;TIMER1.c: 21: while (1)
	
l1027:	
	line	24
;TIMER1.c: 22: {
;TIMER1.c: 24: VPA = TMR0;
	bcf	status, 5	;RP0=0, select bank0
	movf	(1),w	;volatile
	line	25
;TIMER1.c: 25: PORTA = TMR0;
	movf	(1),w	;volatile
	movwf	(5)	;volatile
	goto	l1027
	global	start
	ljmp	start
	opt stack 0
psect	maintext
	line	28
GLOBAL	__end_of_main
	__end_of_main:
;; =============== function _main ends ============

	signat	_main,88
	global	btemp
	btemp set 07Eh

	DABS	1,126,2	;btemp
	global	wtemp0
	wtemp0 set btemp
	end
