MPASM  5.51                          88D4.ASM   3-22-2022  14:00:38         PAGE  1


LOC  OBJECT CODE     LINE SOURCE TEXT
  VALUE

Warning[205]: Found directive in column 1. (PROCESSOR)
Warning[215]: Processor superseded by command line.  Verify processor symbol.
                      00001 PROCESSOR P16F887
                      00002         INCLUDE <P16F887.INC>
                      00001         LIST
                      00002 
                      00003 ;==========================================================================
                      00004 ;  MPASM PIC16F887 processor include
                      00005 ; 
                      00006 ;  (c) Copyright 1999-2013 Microchip Technology, All rights reserved
                      00007 ;==========================================================================
                      00008 
                      00809         LIST
                      00003     
2007   20D4           00004         __CONFIG _CONFIG1, (_INTRC_OSC_NOCLKOUT & _WDT_OFF & _PWRTE_OFF & _MCLRE_OFF & _CP_OFF & _CPD_OF
                            F & _BOR_OFF & _IESO_OFF & _FCMEN_OFF & _LVP_OFF & _DEBUG_OFF)
2008   3FFF           00005         __CONFIG _CONFIG2, (_WRT_OFF & _BOR40V)
                      00006 
0000                  00007                 ORG     0x00    
                      00008 
  00000020            00009 CON             EQU     0x20
                      00010 
0000   1683 1703      00011         BANKSEL ANSEL           ;CAMBIO BANCO 3
Message[302]: Register in operand not in bank 0.  Ensure that bank bits are correct.
0002   0188           00012                 CLRF    ANSEL
Message[302]: Register in operand not in bank 0.  Ensure that bank bits are correct.
0003   0189           00013                 CLRF    ANSELH
                      00014         
0004   1683 1303      00015                 BANKSEL TRISA           ;CAMBIO BANCO 1
Message[302]: Register in operand not in bank 0.  Ensure that bank bits are correct.
0006   0185           00016                 CLRF    TRISA   
Message[302]: Register in operand not in bank 0.  Ensure that bank bits are correct.
0007   0186           00017                 CLRF    TRISB
Message[302]: Register in operand not in bank 0.  Ensure that bank bits are correct.
0008   0187           00018                 CLRF    TRISC
Message[302]: Register in operand not in bank 0.  Ensure that bank bits are correct.
0009   0188           00019                 CLRF    TRISD
Message[302]: Register in operand not in bank 0.  Ensure that bank bits are correct.
000A   0189           00020                 CLRF    TRISE
                      00021 
000B   30D3           00022                 MOVLW   0xD3            ;VELOCIDAD ANIMACION
Message[302]: Register in operand not in bank 0.  Ensure that bank bits are correct.
000C   0081           00023                 MOVWF   OPTION_REG
                      00024                 
                      00025 ;               CLRF    ADRESH          ;LIMPIAR ADRESH Y ADRESL
                      00026 ;       CLRF    ADRESL
                      00027 
                      00028 ;       MOVLW   0xD5            ;ADC1 PARA COORDENADAS PORTA
                      00029 ;       MOVWF   ADCON0
                      00030     
                      00031 ;       MOVLW   0xD5            ;ADC2 PARA COORDENADAS PORTC
                      00032 ;       MOVWF   ADCON1
                      00033 
MPASM  5.51                          88D4.ASM   3-22-2022  14:00:38         PAGE  2


LOC  OBJECT CODE     LINE SOURCE TEXT
  VALUE

000D   1283 1303      00034                 BANKSEL PORTA           ;CAMBIO BANCO 0 
                      00035 
000F   303C           00036 INI             MOVLW   0x3C            ;PRIMER INICIO DE NO. CICLOS PARA VISUALIZAR UN FRAME DE LA IMAG
                            EN
0010   00A0           00037                 MOVWF   CON
0011   2812           00038                 GOTO    FR1                     ;SALTA A LA PRIMER FUNCION DE FRAME PARA INICIAR
                      00039 
0012                  00040 FR1                                                     ;FUNCION DEL FRAME NO. DE LA IMAGEN
0012   3000           00041                 MOVLW   0x00            ;RA0
0013   0085           00042                 MOVWF   PORTA
0014   3001           00043                 MOVLW   0x01
0015   0087           00044                 MOVWF   PORTC           ;LEDS A ENCENDER EN LA FILA C0
0016   2586           00045                 CALL    RET
                      00046 
0017   3016           00047                 MOVLW   0x16            ;RA1
0018   0085           00048                 MOVWF   PORTA
0019   3002           00049                 MOVLW   0x02
001A   0087           00050                 MOVWF   PORTC           ;LEDS A ENCENDER EN LA FILA C1
001B   2586           00051                 CALL    RET
                      00052 
001C   3000           00053                 MOVLW   0x00            ;RA2
001D   0085           00054                 MOVWF   PORTA
001E   3004           00055                 MOVLW   0x04
001F   0087           00056                 MOVWF   PORTC           ;LEDS A ENCENDER EN LA FILA C2
0020   2586           00057                 CALL    RET
                      00058 
0021   3000           00059                 MOVLW   0x00            ;RA3
0022   0085           00060                 MOVWF   PORTA
0023   3008           00061                 MOVLW   0x08
0024   0087           00062                 MOVWF   PORTC           ;LEDS A ENCENDER EN LA FILA C3
0025   2586           00063                 CALL    RET
                      00064 
0026   3000           00065                 MOVLW   0x00            ;RA4
0027   0085           00066                 MOVWF   PORTA
0028   3000           00067                 MOVLW   0x00
0029   0087           00068                 MOVWF   PORTC           ;LEDS A ENCENDER EN LA FILA C4
002A   2586           00069                 CALL    RET
                      00070 
002B   3000           00071                 MOVLW   0x00            ;RA5
002C   0085           00072                 MOVWF   PORTA
002D   3010           00073                 MOVLW   0x10
002E   0087           00074                 MOVWF   PORTC           ;LEDS A ENCENDER EN LA FILA C5
002F   2586           00075                 CALL    RET
                      00076 
0030   3000           00077                 MOVLW   0x00            ;RA6
0031   0085           00078                 MOVWF   PORTA
0032   3020           00079                 MOVLW   0x20
0033   0087           00080                 MOVWF   PORTC           ;LEDS A ENCENDER EN LA FILA C6
0034   2586           00081                 CALL    RET
                      00082 
0035   3000           00083                 MOVLW   0x00            ;RA7
0036   0085           00084                 MOVWF   PORTA
0037   3080           00085                 MOVLW   0x80
MPASM  5.51                          88D4.ASM   3-22-2022  14:00:38         PAGE  3


LOC  OBJECT CODE     LINE SOURCE TEXT
  VALUE

0038   0087           00086                 MOVWF   PORTC           ;LEDS A ENCENDER EN LA FILA C7
0039   2586           00087                 CALL    RET
                      00088                 
003A   0BA0           00089                 DECFSZ  CON,1
003B   2812           00090                 GOTO    FR1
                      00091 
003C   303C           00092         MOVLW   0x3C                    ;NO. CICLOS PARA VISUALIZAR UN FRAME DE LA IMAGEN
003D   00A0           00093         MOVWF   CON
003E   2586           00094         CALL    RET
                      00095 
003F                  00096 FR2                                                     ;FUNCION DEL FRAME NO. DE LA IMAGEN
003F   3000           00097                 MOVLW   0x00            ;RA0
0040   0085           00098                 MOVWF   PORTA
0041   3001           00099                 MOVLW   0x01
0042   0087           00100                 MOVWF   PORTC           ;LEDS A ENCENDER EN LA FILA C0
0043   2586           00101                 CALL    RET
                      00102 
0044   301C           00103                 MOVLW   0x1C            ;RA1
0045   0085           00104                 MOVWF   PORTA
0046   3002           00105                 MOVLW   0x02
0047   0087           00106                 MOVWF   PORTC           ;LEDS A ENCENDER EN LA FILA C1
0048   2586           00107                 CALL    RET
                      00108 
0049   3000           00109                 MOVLW   0x00            ;RA2
004A   0085           00110                 MOVWF   PORTA
004B   3004           00111                 MOVLW   0x04
004C   0087           00112                 MOVWF   PORTC           ;LEDS A ENCENDER EN LA FILA C2
004D   2586           00113                 CALL    RET
                      00114 
004E   3000           00115                 MOVLW   0x00            ;RA3
004F   0085           00116                 MOVWF   PORTA
0050   3008           00117                 MOVLW   0x08
0051   0087           00118                 MOVWF   PORTC           ;LEDS A ENCENDER EN LA FILA C3
0052   2586           00119                 CALL    RET
                      00120 
0053   3000           00121                 MOVLW   0x00            ;RA4
0054   0085           00122                 MOVWF   PORTA
0055   3010           00123                 MOVLW   0x10
0056   0087           00124                 MOVWF   PORTC           ;LEDS A ENCENDER EN LA FILA C4
0057   2586           00125                 CALL    RET
                      00126 
0058   3000           00127                 MOVLW   0x00            ;RA5
0059   0085           00128                 MOVWF   PORTA
005A   3020           00129                 MOVLW   0x20
005B   0087           00130                 MOVWF   PORTC           ;LEDS A ENCENDER EN LA FILA C5
005C   2586           00131                 CALL    RET
                      00132 
005D   3000           00133                 MOVLW   0x00            ;RA6
005E   0085           00134                 MOVWF   PORTA
005F   3040           00135                 MOVLW   0x40
0060   0087           00136                 MOVWF   PORTC           ;LEDS A ENCENDER EN LA FILA C6
0061   2586           00137                 CALL    RET
                      00138 
MPASM  5.51                          88D4.ASM   3-22-2022  14:00:38         PAGE  4


LOC  OBJECT CODE     LINE SOURCE TEXT
  VALUE

0062   3000           00139                 MOVLW   0x00            ;RA7
0063   0085           00140                 MOVWF   PORTA
0064   3080           00141                 MOVLW   0x80
0065   0087           00142                 MOVWF   PORTC           ;LEDS A ENCENDER EN LA FILA C7
0066   2586           00143                 CALL    RET
                      00144                 
0067   0BA0           00145                 DECFSZ  CON,1
0068   283F           00146                 GOTO    FR2
                      00147 
0069   303C           00148         MOVLW   0x3C                    ;NO. CICLOS PARA VISUALIZAR UN FRAME DE LA IMAGEN
006A   00A0           00149         MOVWF   CON
006B   2586           00150         CALL    RET
                      00151         
006C                  00152 FR3                                                     ;FUNCION DEL FRAME NO. DE LA IMAGEN
006C   3000           00153                 MOVLW   0x00            ;RA0
006D   0085           00154                 MOVWF   PORTA
006E   3001           00155                 MOVLW   0x01
006F   0087           00156                 MOVWF   PORTC           ;LEDS A ENCENDER EN LA FILA C0
0070   2586           00157                 CALL    RET
                      00158 
0071   301C           00159                 MOVLW   0x1C            ;RA1
0072   0085           00160                 MOVWF   PORTA
0073   3002           00161                 MOVLW   0x02
0074   0087           00162                 MOVWF   PORTC           ;LEDS A ENCENDER EN LA FILA C1
0075   2586           00163                 CALL    RET
                      00164 
0076   3000           00165                 MOVLW   0x00            ;RA2
0077   0085           00166                 MOVWF   PORTA
0078   3004           00167                 MOVLW   0x04
0079   0087           00168                 MOVWF   PORTC           ;LEDS A ENCENDER EN LA FILA C2
007A   2586           00169                 CALL    RET
                      00170 
007B   3000           00171                 MOVLW   0x00            ;RA3
007C   0085           00172                 MOVWF   PORTA
007D   3008           00173                 MOVLW   0x08
007E   0087           00174                 MOVWF   PORTC           ;LEDS A ENCENDER EN LA FILA C3
007F   2586           00175                 CALL    RET
                      00176 
0080   3040           00177                 MOVLW   0x40            ;RA4
0081   0085           00178                 MOVWF   PORTA
0082   3010           00179                 MOVLW   0x10
0083   0087           00180                 MOVWF   PORTC           ;LEDS A ENCENDER EN LA FILA C4
0084   2586           00181                 CALL    RET
                      00182 
0085   3000           00183                 MOVLW   0x00            ;RA5
0086   0085           00184                 MOVWF   PORTA
0087   3020           00185                 MOVLW   0x20
0088   0087           00186                 MOVWF   PORTC           ;LEDS A ENCENDER EN LA FILA C5
0089   2586           00187                 CALL    RET
                      00188 
008A   3000           00189                 MOVLW   0x00            ;RA6
008B   0085           00190                 MOVWF   PORTA
008C   3040           00191                 MOVLW   0x40
MPASM  5.51                          88D4.ASM   3-22-2022  14:00:38         PAGE  5


LOC  OBJECT CODE     LINE SOURCE TEXT
  VALUE

008D   0087           00192                 MOVWF   PORTC           ;LEDS A ENCENDER EN LA FILA C6
008E   2586           00193                 CALL    RET
                      00194 
008F   3000           00195                 MOVLW   0x00            ;RA7
0090   0085           00196                 MOVWF   PORTA
0091   3080           00197                 MOVLW   0x80
0092   0087           00198                 MOVWF   PORTC           ;LEDS A ENCENDER EN LA FILA C7
0093   2586           00199                 CALL    RET
                      00200                 
0094   0BA0           00201                 DECFSZ  CON,1
0095   286C           00202                 GOTO    FR3
                      00203 
0096   303C           00204         MOVLW   0x3C                    ;NO. CICLOS PARA VISUALIZAR UN FRAME DE LA IMAGEN
0097   00A0           00205         MOVWF   CON
0098   2586           00206         CALL    RET     
                      00207 
0099                  00208 FR4                                                     ;FUNCION DEL FRAME NO. DE LA IMAGEN
0099   3000           00209                 MOVLW   0x00            ;RA0
009A   0085           00210                 MOVWF   PORTA
009B   3001           00211                 MOVLW   0x01
009C   0087           00212                 MOVWF   PORTC           ;LEDS A ENCENDER EN LA FILA C0
009D   2586           00213                 CALL    RET
                      00214 
009E   3038           00215                 MOVLW   0x38            ;RA1
009F   0085           00216                 MOVWF   PORTA
00A0   3002           00217                 MOVLW   0x02
00A1   0087           00218                 MOVWF   PORTC           ;LEDS A ENCENDER EN LA FILA C1
00A2   2586           00219                 CALL    RET
                      00220 
00A3   3000           00221                 MOVLW   0x00            ;RA2
00A4   0085           00222                 MOVWF   PORTA
00A5   3004           00223                 MOVLW   0x04
00A6   0087           00224                 MOVWF   PORTC           ;LEDS A ENCENDER EN LA FILA C2
00A7   2586           00225                 CALL    RET
                      00226 
00A8   3000           00227                 MOVLW   0x00            ;RA3
00A9   0085           00228                 MOVWF   PORTA
00AA   3008           00229                 MOVLW   0x08
00AB   0087           00230                 MOVWF   PORTC           ;LEDS A ENCENDER EN LA FILA C3
00AC   2586           00231                 CALL    RET
                      00232 
00AD   3040           00233                 MOVLW   0x40            ;RA4
00AE   0085           00234                 MOVWF   PORTA
00AF   3010           00235                 MOVLW   0x10
00B0   0087           00236                 MOVWF   PORTC           ;LEDS A ENCENDER EN LA FILA C4
00B1   2586           00237                 CALL    RET
                      00238 
00B2   3000           00239                 MOVLW   0x00            ;RA5
00B3   0085           00240                 MOVWF   PORTA
00B4   3020           00241                 MOVLW   0x20
00B5   0087           00242                 MOVWF   PORTC           ;LEDS A ENCENDER EN LA FILA C5
00B6   2586           00243                 CALL    RET
                      00244 
MPASM  5.51                          88D4.ASM   3-22-2022  14:00:38         PAGE  6


LOC  OBJECT CODE     LINE SOURCE TEXT
  VALUE

00B7   3000           00245                 MOVLW   0x00            ;RA6
00B8   0085           00246                 MOVWF   PORTA
00B9   3040           00247                 MOVLW   0x40
00BA   0087           00248                 MOVWF   PORTC           ;LEDS A ENCENDER EN LA FILA C6
00BB   2586           00249                 CALL    RET
                      00250 
00BC   3000           00251                 MOVLW   0x00            ;RA7
00BD   0085           00252                 MOVWF   PORTA
00BE   3080           00253                 MOVLW   0x80
00BF   0087           00254                 MOVWF   PORTC           ;LEDS A ENCENDER EN LA FILA C7
00C0   2586           00255                 CALL    RET
                      00256                 
00C1   0BA0           00257                 DECFSZ  CON,1
00C2   2899           00258                 GOTO    FR4
                      00259 
00C3   303C           00260         MOVLW   0x3C                    ;NO. CICLOS PARA VISUALIZAR UN FRAME DE LA IMAGEN
00C4   00A0           00261         MOVWF   CON
00C5   2586           00262         CALL    RET
00C6                  00263 FR5                                                     ;FUNCION DEL FRAME NO. DE LA IMAGEN
00C6   3000           00264                 MOVLW   0x00            ;RA0
00C7   0085           00265                 MOVWF   PORTA
00C8   3001           00266                 MOVLW   0x01
00C9   0087           00267                 MOVWF   PORTC           ;LEDS A ENCENDER EN LA FILA C0
00CA   2586           00268                 CALL    RET
                      00269 
00CB   3070           00270                 MOVLW   0x70            ;RA1
00CC   0085           00271                 MOVWF   PORTA
00CD   3002           00272                 MOVLW   0x02
00CE   0087           00273                 MOVWF   PORTC           ;LEDS A ENCENDER EN LA FILA C1
00CF   2586           00274                 CALL    RET
                      00275 
00D0   3000           00276                 MOVLW   0x00            ;RA2
00D1   0085           00277                 MOVWF   PORTA
00D2   3004           00278                 MOVLW   0x04
00D3   0087           00279                 MOVWF   PORTC           ;LEDS A ENCENDER EN LA FILA C2
00D4   2586           00280                 CALL    RET
                      00281 
00D5   3000           00282                 MOVLW   0x00            ;RA3
00D6   0085           00283                 MOVWF   PORTA
00D7   3008           00284                 MOVLW   0x08
00D8   0087           00285                 MOVWF   PORTC           ;LEDS A ENCENDER EN LA FILA C3
00D9   2586           00286                 CALL    RET
                      00287 
00DA   3040           00288                 MOVLW   0x40            ;RA4
00DB   0085           00289                 MOVWF   PORTA
00DC   3010           00290                 MOVLW   0x10
00DD   0087           00291                 MOVWF   PORTC           ;LEDS A ENCENDER EN LA FILA C4
00DE   2586           00292                 CALL    RET
                      00293 
00DF   3000           00294                 MOVLW   0x00            ;RA5
00E0   0085           00295                 MOVWF   PORTA
00E1   3020           00296                 MOVLW   0x20
00E2   0087           00297                 MOVWF   PORTC           ;LEDS A ENCENDER EN LA FILA C5
MPASM  5.51                          88D4.ASM   3-22-2022  14:00:38         PAGE  7


LOC  OBJECT CODE     LINE SOURCE TEXT
  VALUE

00E3   2586           00298                 CALL    RET
                      00299 
00E4   3000           00300                 MOVLW   0x00            ;RA6
00E5   0085           00301                 MOVWF   PORTA
00E6   3040           00302                 MOVLW   0x40
00E7   0087           00303                 MOVWF   PORTC           ;LEDS A ENCENDER EN LA FILA C6
00E8   2586           00304                 CALL    RET
                      00305 
00E9   3000           00306                 MOVLW   0x00            ;RA7
00EA   0085           00307                 MOVWF   PORTA
00EB   3080           00308                 MOVLW   0x80
00EC   0087           00309                 MOVWF   PORTC           ;LEDS A ENCENDER EN LA FILA C7
00ED   2586           00310                 CALL    RET
                      00311                 
00EE   0BA0           00312                 DECFSZ  CON,1
00EF   28C6           00313                 GOTO    FR5
                      00314 
00F0   303C           00315         MOVLW   0x3C                    ;NO. CICLOS PARA VISUALIZAR UN FRAME DE LA IMAGEN
00F1   00A0           00316         MOVWF   CON
00F2   2586           00317         CALL    RET
00F3                  00318 FR6                                                     ;FUNCION DEL FRAME NO. DE LA IMAGEN
00F3   3000           00319                 MOVLW   0x00            ;RA0
00F4   0085           00320                 MOVWF   PORTA
00F5   3001           00321                 MOVLW   0x01
00F6   0087           00322                 MOVWF   PORTC           ;LEDS A ENCENDER EN LA FILA C0
00F7   2586           00323                 CALL    RET
                      00324 
00F8   3060           00325                 MOVLW   0x60            ;RA1
00F9   0085           00326                 MOVWF   PORTA
00FA   3002           00327                 MOVLW   0x02
00FB   0087           00328                 MOVWF   PORTC           ;LEDS A ENCENDER EN LA FILA C1
00FC   2586           00329                 CALL    RET
                      00330 
00FD   3040           00331                 MOVLW   0x40            ;RA2
00FE   0085           00332                 MOVWF   PORTA
00FF   3004           00333                 MOVLW   0x04
0100   0087           00334                 MOVWF   PORTC           ;LEDS A ENCENDER EN LA FILA C2
0101   2586           00335                 CALL    RET
                      00336 
0102   3000           00337                 MOVLW   0x00            ;RA3
0103   0085           00338                 MOVWF   PORTA
0104   3008           00339                 MOVLW   0x08
0105   0087           00340                 MOVWF   PORTC           ;LEDS A ENCENDER EN LA FILA C3
0106   2586           00341                 CALL    RET
                      00342 
0107   3040           00343                 MOVLW   0x40            ;RA4
0108   0085           00344                 MOVWF   PORTA
0109   3010           00345                 MOVLW   0x10
010A   0087           00346                 MOVWF   PORTC           ;LEDS A ENCENDER EN LA FILA C4
010B   2586           00347                 CALL    RET
                      00348 
010C   3000           00349                 MOVLW   0x00            ;RA5
010D   0085           00350                 MOVWF   PORTA
MPASM  5.51                          88D4.ASM   3-22-2022  14:00:38         PAGE  8


LOC  OBJECT CODE     LINE SOURCE TEXT
  VALUE

010E   3020           00351                 MOVLW   0x20
010F   0087           00352                 MOVWF   PORTC           ;LEDS A ENCENDER EN LA FILA C5
0110   2586           00353                 CALL    RET
                      00354 
0111   3000           00355                 MOVLW   0x00            ;RA6
0112   0085           00356                 MOVWF   PORTA
0113   3040           00357                 MOVLW   0x40
0114   0087           00358                 MOVWF   PORTC           ;LEDS A ENCENDER EN LA FILA C6
0115   2586           00359                 CALL    RET
                      00360 
0116   3000           00361                 MOVLW   0x00            ;RA7
0117   0085           00362                 MOVWF   PORTA
0118   3080           00363                 MOVLW   0x80
0119   0087           00364                 MOVWF   PORTC           ;LEDS A ENCENDER EN LA FILA C7
011A   2586           00365                 CALL    RET
                      00366                 
011B   0BA0           00367                 DECFSZ  CON,1
011C   28F3           00368                 GOTO    FR6
                      00369 
011D   303C           00370         MOVLW   0x3C                    ;NO. CICLOS PARA VISUALIZAR UN FRAME DE LA IMAGEN
011E   00A0           00371         MOVWF   CON
011F   2586           00372         CALL    RET
0120                  00373 FR7                                                     ;FUNCION DEL FRAME NO. DE LA IMAGEN
0120   3000           00374                 MOVLW   0x00            ;RA0
0121   0085           00375                 MOVWF   PORTA
0122   3001           00376                 MOVLW   0x01
0123   0087           00377                 MOVWF   PORTC           ;LEDS A ENCENDER EN LA FILA C0
0124   2586           00378                 CALL    RET
                      00379 
0125   3040           00380                 MOVLW   0x40            ;RA1
0126   0085           00381                 MOVWF   PORTA
0127   3002           00382                 MOVLW   0x02
0128   0087           00383                 MOVWF   PORTC           ;LEDS A ENCENDER EN LA FILA C1
0129   2586           00384                 CALL    RET
                      00385 
012A   3040           00386                 MOVLW   0x40            ;RA2
012B   0085           00387                 MOVWF   PORTA
012C   3004           00388                 MOVLW   0x04
012D   0087           00389                 MOVWF   PORTC           ;LEDS A ENCENDER EN LA FILA C2
012E   2586           00390                 CALL    RET
                      00391 
012F   3040           00392                 MOVLW   0x40            ;RA3
0130   0085           00393                 MOVWF   PORTA
0131   3008           00394                 MOVLW   0x08
0132   0087           00395                 MOVWF   PORTC           ;LEDS A ENCENDER EN LA FILA C3
0133   2586           00396                 CALL    RET
                      00397 
0134   3040           00398                 MOVLW   0x40            ;RA4
0135   0085           00399                 MOVWF   PORTA
0136   3010           00400                 MOVLW   0x10
0137   0087           00401                 MOVWF   PORTC           ;LEDS A ENCENDER EN LA FILA C4
0138   2586           00402                 CALL    RET
                      00403 
MPASM  5.51                          88D4.ASM   3-22-2022  14:00:38         PAGE  9


LOC  OBJECT CODE     LINE SOURCE TEXT
  VALUE

0139   3000           00404                 MOVLW   0x00            ;RA5
013A   0085           00405                 MOVWF   PORTA
013B   3020           00406                 MOVLW   0x20
013C   0087           00407                 MOVWF   PORTC           ;LEDS A ENCENDER EN LA FILA C5
013D   2586           00408                 CALL    RET
                      00409 
013E   3000           00410                 MOVLW   0x00            ;RA6
013F   0085           00411                 MOVWF   PORTA
0140   3040           00412                 MOVLW   0x40
0141   0087           00413                 MOVWF   PORTC           ;LEDS A ENCENDER EN LA FILA C6
0142   2586           00414                 CALL    RET
                      00415 
0143   3000           00416                 MOVLW   0x00            ;RA7
0144   0085           00417                 MOVWF   PORTA
0145   3080           00418                 MOVLW   0x80
0146   0087           00419                 MOVWF   PORTC           ;LEDS A ENCENDER EN LA FILA C7
0147   2586           00420                 CALL    RET
                      00421                 
0148   0BA0           00422                 DECFSZ  CON,1
0149   2920           00423                 GOTO    FR7
                      00424 
014A   303C           00425         MOVLW   0x3C                    ;NO. CICLOS PARA VISUALIZAR UN FRAME DE LA IMAGEN
014B   00A0           00426         MOVWF   CON
014C   2586           00427         CALL    RET
014D                  00428 FR8                                                     ;FUNCION DEL FRAME NO. DE LA IMAGEN
014D   3000           00429                 MOVLW   0x00            ;RA0
014E   0085           00430                 MOVWF   PORTA
014F   3001           00431                 MOVLW   0x01
0150   0087           00432                 MOVWF   PORTC           ;LEDS A ENCENDER EN LA FILA C0
0151   2586           00433                 CALL    RET
                      00434 
0152   3040           00435                 MOVLW   0x40            ;RA1
0153   0085           00436                 MOVWF   PORTA
0154   3002           00437                 MOVLW   0x02
0155   0087           00438                 MOVWF   PORTC           ;LEDS A ENCENDER EN LA FILA C1
0156   2586           00439                 CALL    RET
                      00440 
0157   3040           00441                 MOVLW   0x40            ;RA2
0158   0085           00442                 MOVWF   PORTA
0159   3004           00443                 MOVLW   0x04
015A   0087           00444                 MOVWF   PORTC           ;LEDS A ENCENDER EN LA FILA C2
015B   2586           00445                 CALL    RET
                      00446 
015C   3040           00447                 MOVLW   0x40            ;RA3
015D   0085           00448                 MOVWF   PORTA
015E   3008           00449                 MOVLW   0x08
015F   0087           00450                 MOVWF   PORTC           ;LEDS A ENCENDER EN LA FILA C3
0160   2586           00451                 CALL    RET
                      00452 
0161   3040           00453                 MOVLW   0x40            ;RA4
0162   0085           00454                 MOVWF   PORTA
0163   3010           00455                 MOVLW   0x10
0164   0087           00456                 MOVWF   PORTC           ;LEDS A ENCENDER EN LA FILA C4
MPASM  5.51                          88D4.ASM   3-22-2022  14:00:38         PAGE 10


LOC  OBJECT CODE     LINE SOURCE TEXT
  VALUE

0165   2586           00457                 CALL    RET
                      00458 
0166   3000           00459                 MOVLW   0x00            ;RA5
0167   0085           00460                 MOVWF   PORTA
0168   3020           00461                 MOVLW   0x20
0169   0087           00462                 MOVWF   PORTC           ;LEDS A ENCENDER EN LA FILA C5
016A   2586           00463                 CALL    RET
                      00464 
016B   3000           00465                 MOVLW   0x00            ;RA6
016C   0085           00466                 MOVWF   PORTA
016D   3040           00467                 MOVLW   0x40
016E   0087           00468                 MOVWF   PORTC           ;LEDS A ENCENDER EN LA FILA C6
016F   2586           00469                 CALL    RET
                      00470 
0170   3020           00471                 MOVLW   0x20            ;RA7
0171   0085           00472                 MOVWF   PORTA
0172   3080           00473                 MOVLW   0x80
0173   0087           00474                 MOVWF   PORTC           ;LEDS A ENCENDER EN LA FILA C7
0174   2586           00475                 CALL    RET
                      00476                 
0175   0BA0           00477                 DECFSZ  CON,1
0176   294D           00478                 GOTO    FR8
0177   303C           00479         MOVLW   0x3C                    ;NO. CICLOS PARA VISUALIZAR UN FRAME DE LA IMAGEN
0178   00A0           00480         MOVWF   CON
0179   2586           00481         CALL    RET     
017A                  00482 FR9                                                     ;FUNCION DEL FRAME NO. DE LA IMAGEN
017A   3000           00483                 MOVLW   0x00            ;RA0
017B   0085           00484                 MOVWF   PORTA
017C   3001           00485                 MOVLW   0x01
017D   0087           00486                 MOVWF   PORTC           ;LEDS A ENCENDER EN LA FILA C0
017E   2586           00487                 CALL    RET
                      00488 
017F   3000           00489                 MOVLW   0x00            ;RA1
0180   0085           00490                 MOVWF   PORTA
0181   3002           00491                 MOVLW   0x02
0182   0087           00492                 MOVWF   PORTC           ;LEDS A ENCENDER EN LA FILA C1
0183   2586           00493                 CALL    RET
                      00494 
0184   3040           00495                 MOVLW   0x40            ;RA2
0185   0085           00496                 MOVWF   PORTA
0186   3004           00497                 MOVLW   0x04
0187   0087           00498                 MOVWF   PORTC           ;LEDS A ENCENDER EN LA FILA C2
0188   2586           00499                 CALL    RET
                      00500 
0189   3040           00501                 MOVLW   0x40            ;RA3
018A   0085           00502                 MOVWF   PORTA
018B   3008           00503                 MOVLW   0x08
018C   0087           00504                 MOVWF   PORTC           ;LEDS A ENCENDER EN LA FILA C3
018D   2586           00505                 CALL    RET
                      00506 
018E   3040           00507                 MOVLW   0x40            ;RA4
018F   0085           00508                 MOVWF   PORTA
0190   3010           00509                 MOVLW   0x10
MPASM  5.51                          88D4.ASM   3-22-2022  14:00:38         PAGE 11


LOC  OBJECT CODE     LINE SOURCE TEXT
  VALUE

0191   0087           00510                 MOVWF   PORTC           ;LEDS A ENCENDER EN LA FILA C4
0192   2586           00511                 CALL    RET
                      00512 
0193   3040           00513                 MOVLW   0x40            ;RA5
0194   0085           00514                 MOVWF   PORTA
0195   3020           00515                 MOVLW   0x20
0196   0087           00516                 MOVWF   PORTC           ;LEDS A ENCENDER EN LA FILA C5
0197   2586           00517                 CALL    RET
                      00518 
0198   3000           00519                 MOVLW   0x00            ;RA6
0199   0085           00520                 MOVWF   PORTA
019A   3040           00521                 MOVLW   0x40
019B   0087           00522                 MOVWF   PORTC           ;LEDS A ENCENDER EN LA FILA C6
019C   2586           00523                 CALL    RET
                      00524 
019D   3020           00525                 MOVLW   0x20            ;RA7
019E   0085           00526                 MOVWF   PORTA
019F   3080           00527                 MOVLW   0x80
01A0   0087           00528                 MOVWF   PORTC           ;LEDS A ENCENDER EN LA FILA C7
01A1   2586           00529                 CALL    RET
                      00530                 
01A2   0BA0           00531                 DECFSZ  CON,1
01A3   297A           00532                 GOTO    FR9
                      00533 
01A4   303C           00534         MOVLW   0x3C                    ;NO. CICLOS PARA VISUALIZAR UN FRAME DE LA IMAGEN
01A5   00A0           00535         MOVWF   CON
01A6   2586           00536         CALL    RET     
01A7                  00537 FR10                                                    ;FUNCION DEL FRAME NO. DE LA IMAGEN
01A7   3000           00538                 MOVLW   0x00            ;RA0
01A8   0085           00539                 MOVWF   PORTA
01A9   3001           00540                 MOVLW   0x01
01AA   0087           00541                 MOVWF   PORTC           ;LEDS A ENCENDER EN LA FILA C0
01AB   2586           00542                 CALL    RET
                      00543 
01AC   3000           00544                 MOVLW   0x00            ;RA1
01AD   0085           00545                 MOVWF   PORTA
01AE   3002           00546                 MOVLW   0x02
01AF   0087           00547                 MOVWF   PORTC           ;LEDS A ENCENDER EN LA FILA C1
01B0   2586           00548                 CALL    RET
                      00549 
01B1   3000           00550                 MOVLW   0x00            ;RA2
01B2   0085           00551                 MOVWF   PORTA
01B3   3004           00552                 MOVLW   0x04
01B4   0087           00553                 MOVWF   PORTC           ;LEDS A ENCENDER EN LA FILA C2
01B5   2586           00554                 CALL    RET
                      00555 
01B6   3040           00556                 MOVLW   0x40            ;RA3
01B7   0085           00557                 MOVWF   PORTA
01B8   3008           00558                 MOVLW   0x08
01B9   0087           00559                 MOVWF   PORTC           ;LEDS A ENCENDER EN LA FILA C3
01BA   2586           00560                 CALL    RET
                      00561 
01BB   3040           00562                 MOVLW   0x40            ;RA4
MPASM  5.51                          88D4.ASM   3-22-2022  14:00:38         PAGE 12


LOC  OBJECT CODE     LINE SOURCE TEXT
  VALUE

01BC   0085           00563                 MOVWF   PORTA
01BD   3010           00564                 MOVLW   0x10
01BE   0087           00565                 MOVWF   PORTC           ;LEDS A ENCENDER EN LA FILA C4
01BF   2586           00566                 CALL    RET
                      00567 
01C0   3040           00568                 MOVLW   0x40            ;RA5
01C1   0085           00569                 MOVWF   PORTA
01C2   3020           00570                 MOVLW   0x20
01C3   0087           00571                 MOVWF   PORTC           ;LEDS A ENCENDER EN LA FILA C5
01C4   2586           00572                 CALL    RET
                      00573 
01C5   3040           00574                 MOVLW   0x40            ;RA6
01C6   0085           00575                 MOVWF   PORTA
01C7   3040           00576                 MOVLW   0x40
01C8   0087           00577                 MOVWF   PORTC           ;LEDS A ENCENDER EN LA FILA C6
01C9   2586           00578                 CALL    RET
                      00579 
01CA   3020           00580                 MOVLW   0x20            ;RA7
01CB   0085           00581                 MOVWF   PORTA
01CC   3080           00582                 MOVLW   0x80
01CD   0087           00583                 MOVWF   PORTC           ;LEDS A ENCENDER EN LA FILA C7
01CE   2586           00584                 CALL    RET
                      00585                 
01CF   0BA0           00586                 DECFSZ  CON,1
01D0   29A7           00587                 GOTO    FR10
                      00588 
01D1   303C           00589         MOVLW   0x3C                    ;NO. CICLOS PARA VISUALIZAR UN FRAME DE LA IMAGEN
01D2   00A0           00590         MOVWF   CON
01D3   2586           00591         CALL    RET
01D4                  00592 FR11                                                    ;FUNCION DEL FRAME NO. DE LA IMAGEN
01D4   3000           00593                 MOVLW   0x00            ;RA0
01D5   0085           00594                 MOVWF   PORTA
01D6   3001           00595                 MOVLW   0x01
01D7   0087           00596                 MOVWF   PORTC           ;LEDS A ENCENDER EN LA FILA C0
01D8   2586           00597                 CALL    RET
                      00598 
01D9   3000           00599                 MOVLW   0x00            ;RA1
01DA   0085           00600                 MOVWF   PORTA
01DB   3002           00601                 MOVLW   0x02
01DC   0087           00602                 MOVWF   PORTC           ;LEDS A ENCENDER EN LA FILA C1
01DD   2586           00603                 CALL    RET
                      00604 
01DE   3000           00605                 MOVLW   0x00            ;RA2
01DF   0085           00606                 MOVWF   PORTA
01E0   3004           00607                 MOVLW   0x04
01E1   0087           00608                 MOVWF   PORTC           ;LEDS A ENCENDER EN LA FILA C2
01E2   2586           00609                 CALL    RET
                      00610 
01E3   3000           00611                 MOVLW   0x00            ;RA3
01E4   0085           00612                 MOVWF   PORTA
01E5   3008           00613                 MOVLW   0x08
01E6   0087           00614                 MOVWF   PORTC           ;LEDS A ENCENDER EN LA FILA C3
01E7   2586           00615                 CALL    RET
MPASM  5.51                          88D4.ASM   3-22-2022  14:00:38         PAGE 13


LOC  OBJECT CODE     LINE SOURCE TEXT
  VALUE

                      00616 
01E8   3040           00617                 MOVLW   0x40            ;RA4
01E9   0085           00618                 MOVWF   PORTA
01EA   3010           00619                 MOVLW   0x10
01EB   0087           00620                 MOVWF   PORTC           ;LEDS A ENCENDER EN LA FILA C4
01EC   2586           00621                 CALL    RET
                      00622 
01ED   3040           00623                 MOVLW   0x40            ;RA5
01EE   0085           00624                 MOVWF   PORTA
01EF   3020           00625                 MOVLW   0x20
01F0   0087           00626                 MOVWF   PORTC           ;LEDS A ENCENDER EN LA FILA C5
01F1   2586           00627                 CALL    RET
                      00628 
01F2   3060           00629                 MOVLW   0x60            ;RA6
01F3   0085           00630                 MOVWF   PORTA
01F4   3040           00631                 MOVLW   0x40
01F5   0087           00632                 MOVWF   PORTC           ;LEDS A ENCENDER EN LA FILA C6
01F6   2586           00633                 CALL    RET
                      00634 
01F7   3020           00635                 MOVLW   0x20            ;RA7
01F8   0085           00636                 MOVWF   PORTA
01F9   3080           00637                 MOVLW   0x80
01FA   0087           00638                 MOVWF   PORTC           ;LEDS A ENCENDER EN LA FILA C7
01FB   2586           00639                 CALL    RET
                      00640                 
01FC   0BA0           00641                 DECFSZ  CON,1
01FD   29D4           00642                 GOTO    FR11
                      00643 
01FE   303C           00644         MOVLW   0x3C                    ;NO. CICLOS PARA VISUALIZAR UN FRAME DE LA IMAGEN
01FF   00A0           00645         MOVWF   CON
0200   2586           00646         CALL    RET     
0201                  00647 FR12                                                    ;FUNCION DEL FRAME NO. DE LA IMAGEN
0201   3000           00648                 MOVLW   0x00            ;RA0
0202   0085           00649                 MOVWF   PORTA
0203   3001           00650                 MOVLW   0x01
0204   0087           00651                 MOVWF   PORTC           ;LEDS A ENCENDER EN LA FILA C0
0205   2586           00652                 CALL    RET
                      00653 
0206   3000           00654                 MOVLW   0x00            ;RA1
0207   0085           00655                 MOVWF   PORTA
0208   3002           00656                 MOVLW   0x02
0209   0087           00657                 MOVWF   PORTC           ;LEDS A ENCENDER EN LA FILA C1
020A   2586           00658                 CALL    RET
                      00659 
020B   3000           00660                 MOVLW   0x00            ;RA2
020C   0085           00661                 MOVWF   PORTA
020D   3004           00662                 MOVLW   0x04
020E   0087           00663                 MOVWF   PORTC           ;LEDS A ENCENDER EN LA FILA C2
020F   2586           00664                 CALL    RET
                      00665 
0210   3000           00666                 MOVLW   0x00            ;RA3
0211   0085           00667                 MOVWF   PORTA
0212   3008           00668                 MOVLW   0x08
MPASM  5.51                          88D4.ASM   3-22-2022  14:00:38         PAGE 14


LOC  OBJECT CODE     LINE SOURCE TEXT
  VALUE

0213   0087           00669                 MOVWF   PORTC           ;LEDS A ENCENDER EN LA FILA C3
0214   2586           00670                 CALL    RET
                      00671 
0215   3041           00672                 MOVLW   0x41            ;RA4
0216   0085           00673                 MOVWF   PORTA
0217   3010           00674                 MOVLW   0x10
0218   0087           00675                 MOVWF   PORTC           ;LEDS A ENCENDER EN LA FILA C4
0219   2586           00676                 CALL    RET
                      00677 
021A   3040           00678                 MOVLW   0x40            ;RA5
021B   0085           00679                 MOVWF   PORTA
021C   3020           00680                 MOVLW   0x20
021D   0087           00681                 MOVWF   PORTC           ;LEDS A ENCENDER EN LA FILA C5
021E   2586           00682                 CALL    RET
                      00683 
021F   3060           00684                 MOVLW   0x60            ;RA6
0220   0085           00685                 MOVWF   PORTA
0221   3040           00686                 MOVLW   0x40
0222   0087           00687                 MOVWF   PORTC           ;LEDS A ENCENDER EN LA FILA C6
0223   2586           00688                 CALL    RET
                      00689 
0224   3020           00690                 MOVLW   0x20            ;RA7
0225   0085           00691                 MOVWF   PORTA
0226   3080           00692                 MOVLW   0x80
0227   0087           00693                 MOVWF   PORTC           ;LEDS A ENCENDER EN LA FILA C7
0228   2586           00694                 CALL    RET
                      00695                 
0229   0BA0           00696                 DECFSZ  CON,1
022A   2A01           00697                 GOTO    FR12
                      00698 
022B   303C           00699         MOVLW   0x3C                    ;NO. CICLOS PARA VISUALIZAR UN FRAME DE LA IMAGEN
022C   00A0           00700         MOVWF   CON
022D   2586           00701         CALL    RET
022E                  00702 FR13                                                    ;FUNCION DEL FRAME NO. DE LA IMAGEN
022E   3000           00703                 MOVLW   0x00            ;RA0
022F   0085           00704                 MOVWF   PORTA
0230   3001           00705                 MOVLW   0x01
0231   0087           00706                 MOVWF   PORTC           ;LEDS A ENCENDER EN LA FILA C0
0232   2586           00707                 CALL    RET
                      00708 
0233   3000           00709                 MOVLW   0x00            ;RA1
0234   0085           00710                 MOVWF   PORTA
0235   3002           00711                 MOVLW   0x02
0236   0087           00712                 MOVWF   PORTC           ;LEDS A ENCENDER EN LA FILA C1
0237   2586           00713                 CALL    RET
                      00714 
0238   3000           00715                 MOVLW   0x00            ;RA2
0239   0085           00716                 MOVWF   PORTA
023A   3004           00717                 MOVLW   0x04
023B   0087           00718                 MOVWF   PORTC           ;LEDS A ENCENDER EN LA FILA C2
023C   2586           00719                 CALL    RET
                      00720 
023D   3000           00721                 MOVLW   0x00            ;RA3
MPASM  5.51                          88D4.ASM   3-22-2022  14:00:38         PAGE 15


LOC  OBJECT CODE     LINE SOURCE TEXT
  VALUE

023E   0085           00722                 MOVWF   PORTA
023F   3008           00723                 MOVLW   0x08
0240   0087           00724                 MOVWF   PORTC           ;LEDS A ENCENDER EN LA FILA C3
0241   2586           00725                 CALL    RET
                      00726 
0242   3001           00727                 MOVLW   0x01            ;RA4
0243   0085           00728                 MOVWF   PORTA
0244   3010           00729                 MOVLW   0x10
0245   0087           00730                 MOVWF   PORTC           ;LEDS A ENCENDER EN LA FILA C4
0246   2586           00731                 CALL    RET
                      00732 
0247   3040           00733                 MOVLW   0x40            ;RA5
0248   0085           00734                 MOVWF   PORTA
0249   3020           00735                 MOVLW   0x20
024A   0087           00736                 MOVWF   PORTC           ;LEDS A ENCENDER EN LA FILA C5
024B   2586           00737                 CALL    RET
                      00738 
024C   3060           00739                 MOVLW   0x60            ;RA6
024D   0085           00740                 MOVWF   PORTA
024E   3040           00741                 MOVLW   0x40
024F   0087           00742                 MOVWF   PORTC           ;LEDS A ENCENDER EN LA FILA C6
0250   2586           00743                 CALL    RET
                      00744 
0251   3030           00745                 MOVLW   0x30            ;RA7
0252   0085           00746                 MOVWF   PORTA
0253   3080           00747                 MOVLW   0x80
0254   0087           00748                 MOVWF   PORTC           ;LEDS A ENCENDER EN LA FILA C7
0255   2586           00749                 CALL    RET
                      00750                 
0256   0BA0           00751                 DECFSZ  CON,1
0257   2A2E           00752                 GOTO    FR13
                      00753 
0258   303C           00754         MOVLW   0x3C                    ;NO. CICLOS PARA VISUALIZAR UN FRAME DE LA IMAGEN
0259   00A0           00755         MOVWF   CON
025A   2586           00756         CALL    RET
025B                  00757 FR14                                                    ;FUNCION DEL FRAME NO. DE LA IMAGEN
025B   3000           00758                 MOVLW   0x00            ;RA0
025C   0085           00759                 MOVWF   PORTA
025D   3001           00760                 MOVLW   0x01
025E   0087           00761                 MOVWF   PORTC           ;LEDS A ENCENDER EN LA FILA C0
025F   2586           00762                 CALL    RET
                      00763 
0260   3000           00764                 MOVLW   0x00            ;RA1
0261   0085           00765                 MOVWF   PORTA
0262   3002           00766                 MOVLW   0x02
0263   0087           00767                 MOVWF   PORTC           ;LEDS A ENCENDER EN LA FILA C1
0264   2586           00768                 CALL    RET
                      00769 
0265   3000           00770                 MOVLW   0x00            ;RA2
0266   0085           00771                 MOVWF   PORTA
0267   3004           00772                 MOVLW   0x04
0268   0087           00773                 MOVWF   PORTC           ;LEDS A ENCENDER EN LA FILA C2
0269   2586           00774                 CALL    RET
MPASM  5.51                          88D4.ASM   3-22-2022  14:00:38         PAGE 16


LOC  OBJECT CODE     LINE SOURCE TEXT
  VALUE

                      00775 
026A   3000           00776                 MOVLW   0x00            ;RA3
026B   0085           00777                 MOVWF   PORTA
026C   3008           00778                 MOVLW   0x08
026D   0087           00779                 MOVWF   PORTC           ;LEDS A ENCENDER EN LA FILA C3
026E   2586           00780                 CALL    RET
                      00781 
026F   3001           00782                 MOVLW   0x01            ;RA4
0270   0085           00783                 MOVWF   PORTA
0271   3010           00784                 MOVLW   0x10
0272   0087           00785                 MOVWF   PORTC           ;LEDS A ENCENDER EN LA FILA C4
0273   2586           00786                 CALL    RET
                      00787 
0274   3000           00788                 MOVLW   0x00            ;RA5
0275   0085           00789                 MOVWF   PORTA
0276   3020           00790                 MOVLW   0x20
0277   0087           00791                 MOVWF   PORTC           ;LEDS A ENCENDER EN LA FILA C5
0278   2586           00792                 CALL    RET
                      00793 
0279   3060           00794                 MOVLW   0x60            ;RA6
027A   0085           00795                 MOVWF   PORTA
027B   3040           00796                 MOVLW   0x40
027C   0087           00797                 MOVWF   PORTC           ;LEDS A ENCENDER EN LA FILA C6
027D   2586           00798                 CALL    RET
                      00799 
027E   3038           00800                 MOVLW   0x38            ;RA7
027F   0085           00801                 MOVWF   PORTA
0280   3080           00802                 MOVLW   0x80
0281   0087           00803                 MOVWF   PORTC           ;LEDS A ENCENDER EN LA FILA C7
0282   2586           00804                 CALL    RET
                      00805                 
0283   0BA0           00806                 DECFSZ  CON,1
0284   2A5B           00807                 GOTO    FR14
                      00808 
0285   303C           00809         MOVLW   0x3C                    ;NO. CICLOS PARA VISUALIZAR UN FRAME DE LA IMAGEN
0286   00A0           00810         MOVWF   CON
0287   2586           00811         CALL    RET     
0288                  00812 FR15                                                    ;FUNCION DEL FRAME NO. DE LA IMAGEN
0288   3000           00813                 MOVLW   0x00            ;RA0
0289   0085           00814                 MOVWF   PORTA
028A   3001           00815                 MOVLW   0x01
028B   0087           00816                 MOVWF   PORTC           ;LEDS A ENCENDER EN LA FILA C0
028C   2586           00817                 CALL    RET
                      00818 
028D   3000           00819                 MOVLW   0x00            ;RA1
028E   0085           00820                 MOVWF   PORTA
028F   3002           00821                 MOVLW   0x02
0290   0087           00822                 MOVWF   PORTC           ;LEDS A ENCENDER EN LA FILA C1
0291   2586           00823                 CALL    RET
                      00824 
0292   3000           00825                 MOVLW   0x00            ;RA2
0293   0085           00826                 MOVWF   PORTA
0294   3004           00827                 MOVLW   0x04
MPASM  5.51                          88D4.ASM   3-22-2022  14:00:38         PAGE 17


LOC  OBJECT CODE     LINE SOURCE TEXT
  VALUE

0295   0087           00828                 MOVWF   PORTC           ;LEDS A ENCENDER EN LA FILA C2
0296   2586           00829                 CALL    RET
                      00830 
0297   3000           00831                 MOVLW   0x00            ;RA3
0298   0085           00832                 MOVWF   PORTA
0299   3008           00833                 MOVLW   0x08
029A   0087           00834                 MOVWF   PORTC           ;LEDS A ENCENDER EN LA FILA C3
029B   2586           00835                 CALL    RET
                      00836 
029C   3001           00837                 MOVLW   0x01            ;RA4
029D   0085           00838                 MOVWF   PORTA
029E   3010           00839                 MOVLW   0x10
029F   0087           00840                 MOVWF   PORTC           ;LEDS A ENCENDER EN LA FILA C4
02A0   2586           00841                 CALL    RET
                      00842 
02A1   3000           00843                 MOVLW   0x00            ;RA5
02A2   0085           00844                 MOVWF   PORTA
02A3   3020           00845                 MOVLW   0x20
02A4   0087           00846                 MOVWF   PORTC           ;LEDS A ENCENDER EN LA FILA C5
02A5   2586           00847                 CALL    RET
                      00848 
02A6   3020           00849                 MOVLW   0x20            ;RA6
02A7   0085           00850                 MOVWF   PORTA
02A8   3040           00851                 MOVLW   0x40
02A9   0087           00852                 MOVWF   PORTC           ;LEDS A ENCENDER EN LA FILA C6
02AA   2586           00853                 CALL    RET
                      00854 
02AB   303C           00855                 MOVLW   0x3C            ;RA7
02AC   0085           00856                 MOVWF   PORTA
02AD   3080           00857                 MOVLW   0x80
02AE   0087           00858                 MOVWF   PORTC           ;LEDS A ENCENDER EN LA FILA C7
02AF   2586           00859                 CALL    RET
                      00860                 
02B0   0BA0           00861                 DECFSZ  CON,1
02B1   2A88           00862                 GOTO    FR15
                      00863 
02B2   303C           00864         MOVLW   0x3C                    ;NO. CICLOS PARA VISUALIZAR UN FRAME DE LA IMAGEN
02B3   00A0           00865         MOVWF   CON
02B4   2586           00866         CALL    RET     
02B5                  00867 FR16                                                    ;FUNCION DEL FRAME NO. DE LA IMAGEN
02B5   3000           00868                 MOVLW   0x00            ;RA0
02B6   0085           00869                 MOVWF   PORTA
02B7   3001           00870                 MOVLW   0x01
02B8   0087           00871                 MOVWF   PORTC           ;LEDS A ENCENDER EN LA FILA C0
02B9   2586           00872                 CALL    RET
                      00873 
02BA   3000           00874                 MOVLW   0x00            ;RA1
02BB   0085           00875                 MOVWF   PORTA
02BC   3002           00876                 MOVLW   0x02
02BD   0087           00877                 MOVWF   PORTC           ;LEDS A ENCENDER EN LA FILA C1
02BE   2586           00878                 CALL    RET
                      00879 
02BF   3000           00880                 MOVLW   0x00            ;RA2
MPASM  5.51                          88D4.ASM   3-22-2022  14:00:38         PAGE 18


LOC  OBJECT CODE     LINE SOURCE TEXT
  VALUE

02C0   0085           00881                 MOVWF   PORTA
02C1   3004           00882                 MOVLW   0x04
02C2   0087           00883                 MOVWF   PORTC           ;LEDS A ENCENDER EN LA FILA C2
02C3   2586           00884                 CALL    RET
                      00885 
02C4   3000           00886                 MOVLW   0x00            ;RA3
02C5   0085           00887                 MOVWF   PORTA
02C6   3008           00888                 MOVLW   0x08
02C7   0087           00889                 MOVWF   PORTC           ;LEDS A ENCENDER EN LA FILA C3
02C8   2586           00890                 CALL    RET
                      00891 
02C9   3001           00892                 MOVLW   0x01            ;RA4
02CA   0085           00893                 MOVWF   PORTA
02CB   3010           00894                 MOVLW   0x10
02CC   0087           00895                 MOVWF   PORTC           ;LEDS A ENCENDER EN LA FILA C4
02CD   2586           00896                 CALL    RET
                      00897 
02CE   3000           00898                 MOVLW   0x00            ;RA5
02CF   0085           00899                 MOVWF   PORTA
02D0   3020           00900                 MOVLW   0x20
02D1   0087           00901                 MOVWF   PORTC           ;LEDS A ENCENDER EN LA FILA C5
02D2   2586           00902                 CALL    RET
                      00903 
02D3   3004           00904                 MOVLW   0x04            ;RA6
02D4   0085           00905                 MOVWF   PORTA
02D5   3040           00906                 MOVLW   0x40
02D6   0087           00907                 MOVWF   PORTC           ;LEDS A ENCENDER EN LA FILA C6
02D7   2586           00908                 CALL    RET
                      00909 
02D8   303C           00910                 MOVLW   0x3C            ;RA7
02D9   0085           00911                 MOVWF   PORTA
02DA   3080           00912                 MOVLW   0x80
02DB   0087           00913                 MOVWF   PORTC           ;LEDS A ENCENDER EN LA FILA C7
02DC   2586           00914                 CALL    RET
                      00915                 
02DD   0BA0           00916                 DECFSZ  CON,1
02DE   2AB5           00917                 GOTO    FR16
                      00918 
02DF   303C           00919         MOVLW   0x3C                    ;NO. CICLOS PARA VISUALIZAR UN FRAME DE LA IMAGEN
02E0   00A0           00920         MOVWF   CON
02E1   2586           00921         CALL    RET
02E2                  00922 FR17                                                    ;FUNCION DEL FRAME NO. DE LA IMAGEN
02E2   3000           00923                 MOVLW   0x00            ;RA0
02E3   0085           00924                 MOVWF   PORTA
02E4   3001           00925                 MOVLW   0x01
02E5   0087           00926                 MOVWF   PORTC           ;LEDS A ENCENDER EN LA FILA C0
02E6   2586           00927                 CALL    RET
                      00928 
02E7   3000           00929                 MOVLW   0x00            ;RA1
02E8   0085           00930                 MOVWF   PORTA
02E9   3002           00931                 MOVLW   0x02
02EA   0087           00932                 MOVWF   PORTC           ;LEDS A ENCENDER EN LA FILA C1
02EB   2586           00933                 CALL    RET
MPASM  5.51                          88D4.ASM   3-22-2022  14:00:38         PAGE 19


LOC  OBJECT CODE     LINE SOURCE TEXT
  VALUE

                      00934 
02EC   3000           00935                 MOVLW   0x00            ;RA2
02ED   0085           00936                 MOVWF   PORTA
02EE   3004           00937                 MOVLW   0x04
02EF   0087           00938                 MOVWF   PORTC           ;LEDS A ENCENDER EN LA FILA C2
02F0   2586           00939                 CALL    RET
                      00940 
02F1   3000           00941                 MOVLW   0x00            ;RA3
02F2   0085           00942                 MOVWF   PORTA
02F3   3008           00943                 MOVLW   0x08
02F4   0087           00944                 MOVWF   PORTC           ;LEDS A ENCENDER EN LA FILA C3
02F5   2586           00945                 CALL    RET
                      00946 
02F6   3001           00947                 MOVLW   0x01            ;RA4
02F7   0085           00948                 MOVWF   PORTA
02F8   3010           00949                 MOVLW   0x10
02F9   0087           00950                 MOVWF   PORTC           ;LEDS A ENCENDER EN LA FILA C4
02FA   2586           00951                 CALL    RET
                      00952 
02FB   3000           00953                 MOVLW   0x00            ;RA5
02FC   0085           00954                 MOVWF   PORTA
02FD   3020           00955                 MOVLW   0x20
02FE   0087           00956                 MOVWF   PORTC           ;LEDS A ENCENDER EN LA FILA C5
02FF   2586           00957                 CALL    RET
                      00958 
0300   3006           00959                 MOVLW   0x06            ;RA6
0301   0085           00960                 MOVWF   PORTA
0302   3040           00961                 MOVLW   0x40
0303   0087           00962                 MOVWF   PORTC           ;LEDS A ENCENDER EN LA FILA C6
0304   2586           00963                 CALL    RET
                      00964 
0305   301C           00965                 MOVLW   0x1C            ;RA7
0306   0085           00966                 MOVWF   PORTA
0307   3080           00967                 MOVLW   0x80
0308   0087           00968                 MOVWF   PORTC           ;LEDS A ENCENDER EN LA FILA C7
0309   2586           00969                 CALL    RET
                      00970                 
030A   0BA0           00971                 DECFSZ  CON,1
030B   2AE2           00972                 GOTO    FR17
                      00973 
030C   303C           00974         MOVLW   0x3C                    ;NO. CICLOS PARA VISUALIZAR UN FRAME DE LA IMAGEN
030D   00A0           00975         MOVWF   CON
030E   2586           00976         CALL    RET     
030F                  00977 FR18                                                    ;FUNCION DEL FRAME NO. DE LA IMAGEN
030F   3000           00978                 MOVLW   0x00            ;RA0
0310   0085           00979                 MOVWF   PORTA
0311   3001           00980                 MOVLW   0x01
0312   0087           00981                 MOVWF   PORTC           ;LEDS A ENCENDER EN LA FILA C0
0313   2586           00982                 CALL    RET
                      00983 
0314   3000           00984                 MOVLW   0x00            ;RA1
0315   0085           00985                 MOVWF   PORTA
0316   3002           00986                 MOVLW   0x02
MPASM  5.51                          88D4.ASM   3-22-2022  14:00:38         PAGE 20


LOC  OBJECT CODE     LINE SOURCE TEXT
  VALUE

0317   0087           00987                 MOVWF   PORTC           ;LEDS A ENCENDER EN LA FILA C1
0318   2586           00988                 CALL    RET
                      00989 
0319   3000           00990                 MOVLW   0x00            ;RA2
031A   0085           00991                 MOVWF   PORTA
031B   3004           00992                 MOVLW   0x04
031C   0087           00993                 MOVWF   PORTC           ;LEDS A ENCENDER EN LA FILA C2
031D   2586           00994                 CALL    RET
                      00995 
031E   3000           00996                 MOVLW   0x00            ;RA3
031F   0085           00997                 MOVWF   PORTA
0320   3008           00998                 MOVLW   0x08
0321   0087           00999                 MOVWF   PORTC           ;LEDS A ENCENDER EN LA FILA C3
0322   2586           01000                 CALL    RET
                      01001 
0323   3001           01002                 MOVLW   0x01            ;RA4
0324   0085           01003                 MOVWF   PORTA
0325   3010           01004                 MOVLW   0x10
0326   0087           01005                 MOVWF   PORTC           ;LEDS A ENCENDER EN LA FILA C4
0327   2586           01006                 CALL    RET
                      01007 
0328   3000           01008                 MOVLW   0x00            ;RA5
0329   0085           01009                 MOVWF   PORTA
032A   3020           01010                 MOVLW   0x20
032B   0087           01011                 MOVWF   PORTC           ;LEDS A ENCENDER EN LA FILA C5
032C   2586           01012                 CALL    RET
                      01013 
032D   3007           01014                 MOVLW   0x07            ;RA6
032E   0085           01015                 MOVWF   PORTA
032F   3040           01016                 MOVLW   0x40
0330   0087           01017                 MOVWF   PORTC           ;LEDS A ENCENDER EN LA FILA C6
0331   2586           01018                 CALL    RET
                      01019 
0332   300C           01020                 MOVLW   0x0C            ;RA7
0333   0085           01021                 MOVWF   PORTA
0334   3080           01022                 MOVLW   0x80
0335   0087           01023                 MOVWF   PORTC           ;LEDS A ENCENDER EN LA FILA C7
0336   2586           01024                 CALL    RET
                      01025                 
0337   0BA0           01026                 DECFSZ  CON,1
0338   2B0F           01027                 GOTO    FR18
                      01028 
0339   303C           01029         MOVLW   0x3C                    ;NO. CICLOS PARA VISUALIZAR UN FRAME DE LA IMAGEN
033A   00A0           01030         MOVWF   CON
033B   2586           01031         CALL    RET
033C                  01032 FR19                                                    ;FUNCION DEL FRAME NO. DE LA IMAGEN
033C   3000           01033                 MOVLW   0x00            ;RA0
033D   0085           01034                 MOVWF   PORTA
033E   3001           01035                 MOVLW   0x01
033F   0087           01036                 MOVWF   PORTC           ;LEDS A ENCENDER EN LA FILA C0
0340   2586           01037                 CALL    RET
                      01038 
0341   3000           01039                 MOVLW   0x00            ;RA1
MPASM  5.51                          88D4.ASM   3-22-2022  14:00:38         PAGE 21


LOC  OBJECT CODE     LINE SOURCE TEXT
  VALUE

0342   0085           01040                 MOVWF   PORTA
0343   3002           01041                 MOVLW   0x02
0344   0087           01042                 MOVWF   PORTC           ;LEDS A ENCENDER EN LA FILA C1
0345   2586           01043                 CALL    RET
                      01044 
0346   3000           01045                 MOVLW   0x00            ;RA2
0347   0085           01046                 MOVWF   PORTA
0348   3004           01047                 MOVLW   0x04
0349   0087           01048                 MOVWF   PORTC           ;LEDS A ENCENDER EN LA FILA C2
034A   2586           01049                 CALL    RET
                      01050 
034B   3000           01051                 MOVLW   0x00            ;RA3
034C   0085           01052                 MOVWF   PORTA
034D   3008           01053                 MOVLW   0x08
034E   0087           01054                 MOVWF   PORTC           ;LEDS A ENCENDER EN LA FILA C3
034F   2586           01055                 CALL    RET
                      01056 
0350   3001           01057                 MOVLW   0x01            ;RA4
0351   0085           01058                 MOVWF   PORTA
0352   3010           01059                 MOVLW   0x10
0353   0087           01060                 MOVWF   PORTC           ;LEDS A ENCENDER EN LA FILA C4
0354   2586           01061                 CALL    RET
                      01062 
0355   3000           01063                 MOVLW   0x00            ;RA5
0356   0085           01064                 MOVWF   PORTA
0357   3020           01065                 MOVLW   0x20
0358   0087           01066                 MOVWF   PORTC           ;LEDS A ENCENDER EN LA FILA C5
0359   2586           01067                 CALL    RET
                      01068 
035A   3007           01069                 MOVLW   0x07            ;RA6
035B   0085           01070                 MOVWF   PORTA
035C   3040           01071                 MOVLW   0x40
035D   0087           01072                 MOVWF   PORTC           ;LEDS A ENCENDER EN LA FILA C6
035E   2586           01073                 CALL    RET
                      01074 
035F   300C           01075                 MOVLW   0x0C            ;RA7
0360   0085           01076                 MOVWF   PORTA
0361   3080           01077                 MOVLW   0x80
0362   0087           01078                 MOVWF   PORTC           ;LEDS A ENCENDER EN LA FILA C7
0363   2586           01079                 CALL    RET
                      01080                 
0364   0BA0           01081                 DECFSZ  CON,1
0365   2B3C           01082                 GOTO    FR19
                      01083 
0366   303C           01084         MOVLW   0x3C                    ;NO. CICLOS PARA VISUALIZAR UN FRAME DE LA IMAGEN
0367   00A0           01085         MOVWF   CON
0368   2586           01086         CALL    RET     
0369                  01087 FR20                                                    ;FUNCION DEL FRAME NO. DE LA IMAGEN
0369   3000           01088                 MOVLW   0x00            ;RA0
036A   0085           01089                 MOVWF   PORTA
036B   3001           01090                 MOVLW   0x01
036C   0087           01091                 MOVWF   PORTC           ;LEDS A ENCENDER EN LA FILA C0
036D   2586           01092                 CALL    RET
MPASM  5.51                          88D4.ASM   3-22-2022  14:00:38         PAGE 22


LOC  OBJECT CODE     LINE SOURCE TEXT
  VALUE

                      01093 
036E   3000           01094                 MOVLW   0x00            ;RA1
036F   0085           01095                 MOVWF   PORTA
0370   3002           01096                 MOVLW   0x02
0371   0087           01097                 MOVWF   PORTC           ;LEDS A ENCENDER EN LA FILA C1
0372   2586           01098                 CALL    RET
                      01099 
0373   3000           01100                 MOVLW   0x00            ;RA2
0374   0085           01101                 MOVWF   PORTA
0375   3004           01102                 MOVLW   0x04
0376   0087           01103                 MOVWF   PORTC           ;LEDS A ENCENDER EN LA FILA C2
0377   2586           01104                 CALL    RET
                      01105 
0378   3000           01106                 MOVLW   0x00            ;RA3
0379   0085           01107                 MOVWF   PORTA
037A   3008           01108                 MOVLW   0x08
037B   0087           01109                 MOVWF   PORTC           ;LEDS A ENCENDER EN LA FILA C3
037C   2586           01110                 CALL    RET
                      01111 
037D   3001           01112                 MOVLW   0x01            ;RA4
037E   0085           01113                 MOVWF   PORTA
037F   3010           01114                 MOVLW   0x10
0380   0087           01115                 MOVWF   PORTC           ;LEDS A ENCENDER EN LA FILA C4
0381   2586           01116                 CALL    RET
                      01117 
0382   3001           01118                 MOVLW   0x01            ;RA5
0383   0085           01119                 MOVWF   PORTA
0384   3020           01120                 MOVLW   0x20
0385   0087           01121                 MOVWF   PORTC           ;LEDS A ENCENDER EN LA FILA C5
0386   2586           01122                 CALL    RET
                      01123 
0387   3007           01124                 MOVLW   0x07            ;RA6
0388   0085           01125                 MOVWF   PORTA
0389   3040           01126                 MOVLW   0x40
038A   0087           01127                 MOVWF   PORTC           ;LEDS A ENCENDER EN LA FILA C6
038B   2586           01128                 CALL    RET
                      01129 
038C   3004           01130                 MOVLW   0x04            ;RA7
038D   0085           01131                 MOVWF   PORTA
038E   3080           01132                 MOVLW   0x80
038F   0087           01133                 MOVWF   PORTC           ;LEDS A ENCENDER EN LA FILA C7
0390   2586           01134                 CALL    RET
                      01135                 
0391   0BA0           01136                 DECFSZ  CON,1
0392   2B69           01137                 GOTO    FR20
                      01138 
0393   303C           01139         MOVLW   0x3C                    ;NO. CICLOS PARA VISUALIZAR UN FRAME DE LA IMAGEN
0394   00A0           01140         MOVWF   CON
0395   2586           01141         CALL    RET     
0396                  01142 FR21                                                    ;FUNCION DEL FRAME NO. DE LA IMAGEN
0396   3000           01143                 MOVLW   0x00            ;RA0
0397   0085           01144                 MOVWF   PORTA
0398   3001           01145                 MOVLW   0x01
MPASM  5.51                          88D4.ASM   3-22-2022  14:00:38         PAGE 23


LOC  OBJECT CODE     LINE SOURCE TEXT
  VALUE

0399   0087           01146                 MOVWF   PORTC           ;LEDS A ENCENDER EN LA FILA C0
039A   2586           01147                 CALL    RET
                      01148 
039B   3000           01149                 MOVLW   0x00            ;RA1
039C   0085           01150                 MOVWF   PORTA
039D   3002           01151                 MOVLW   0x02
039E   0087           01152                 MOVWF   PORTC           ;LEDS A ENCENDER EN LA FILA C1
039F   2586           01153                 CALL    RET
                      01154 
03A0   3004           01155                 MOVLW   0x04            ;RA2
03A1   0085           01156                 MOVWF   PORTA
03A2   3004           01157                 MOVLW   0x04
03A3   0087           01158                 MOVWF   PORTC           ;LEDS A ENCENDER EN LA FILA C2
03A4   2586           01159                 CALL    RET
                      01160 
03A5   3000           01161                 MOVLW   0x00            ;RA3
03A6   0085           01162                 MOVWF   PORTA
03A7   3008           01163                 MOVLW   0x08
03A8   0087           01164                 MOVWF   PORTC           ;LEDS A ENCENDER EN LA FILA C3
03A9   2586           01165                 CALL    RET
                      01166 
03AA   3001           01167                 MOVLW   0x01            ;RA4
03AB   0085           01168                 MOVWF   PORTA
03AC   3010           01169                 MOVLW   0x10
03AD   0087           01170                 MOVWF   PORTC           ;LEDS A ENCENDER EN LA FILA C4
03AE   2586           01171                 CALL    RET
                      01172 
03AF   3001           01173                 MOVLW   0x01            ;RA5
03B0   0085           01174                 MOVWF   PORTA
03B1   3020           01175                 MOVLW   0x20
03B2   0087           01176                 MOVWF   PORTC           ;LEDS A ENCENDER EN LA FILA C5
03B3   2586           01177                 CALL    RET
                      01178 
03B4   3007           01179                 MOVLW   0x07            ;RA6
03B5   0085           01180                 MOVWF   PORTA
03B6   3040           01181                 MOVLW   0x40
03B7   0087           01182                 MOVWF   PORTC           ;LEDS A ENCENDER EN LA FILA C6
03B8   2586           01183                 CALL    RET
                      01184 
03B9   3004           01185                 MOVLW   0x04            ;RA7
03BA   0085           01186                 MOVWF   PORTA
03BB   3080           01187                 MOVLW   0x80
03BC   0087           01188                 MOVWF   PORTC           ;LEDS A ENCENDER EN LA FILA C7
03BD   2586           01189                 CALL    RET
                      01190                 
03BE   0BA0           01191                 DECFSZ  CON,1
03BF   2B96           01192                 GOTO    FR21
                      01193 
03C0   303C           01194         MOVLW   0x3C                    ;NO. CICLOS PARA VISUALIZAR UN FRAME DE LA IMAGEN
03C1   00A0           01195         MOVWF   CON
03C2   2586           01196         CALL    RET
03C3                  01197 FR22                                                    ;FUNCION DEL FRAME NO. DE LA IMAGEN
03C3   3000           01198                 MOVLW   0x00            ;RA0
MPASM  5.51                          88D4.ASM   3-22-2022  14:00:38         PAGE 24


LOC  OBJECT CODE     LINE SOURCE TEXT
  VALUE

03C4   0085           01199                 MOVWF   PORTA
03C5   3001           01200                 MOVLW   0x01
03C6   0087           01201                 MOVWF   PORTC           ;LEDS A ENCENDER EN LA FILA C0
03C7   2586           01202                 CALL    RET
                      01203 
03C8   3000           01204                 MOVLW   0x00            ;RA1
03C9   0085           01205                 MOVWF   PORTA
03CA   3002           01206                 MOVLW   0x02
03CB   0087           01207                 MOVWF   PORTC           ;LEDS A ENCENDER EN LA FILA C1
03CC   2586           01208                 CALL    RET
                      01209 
03CD   3004           01210                 MOVLW   0x04            ;RA2
03CE   0085           01211                 MOVWF   PORTA
03CF   3004           01212                 MOVLW   0x04
03D0   0087           01213                 MOVWF   PORTC           ;LEDS A ENCENDER EN LA FILA C2
03D1   2586           01214                 CALL    RET
                      01215 
03D2   3001           01216                 MOVLW   0x01            ;RA3
03D3   0085           01217                 MOVWF   PORTA
03D4   3008           01218                 MOVLW   0x08
03D5   0087           01219                 MOVWF   PORTC           ;LEDS A ENCENDER EN LA FILA C3
03D6   2586           01220                 CALL    RET
                      01221 
03D7   3001           01222                 MOVLW   0x01            ;RA4
03D8   0085           01223                 MOVWF   PORTA
03D9   3010           01224                 MOVLW   0x10
03DA   0087           01225                 MOVWF   PORTC           ;LEDS A ENCENDER EN LA FILA C4
03DB   2586           01226                 CALL    RET
                      01227 
03DC   3001           01228                 MOVLW   0x01            ;RA5
03DD   0085           01229                 MOVWF   PORTA
03DE   3020           01230                 MOVLW   0x20
03DF   0087           01231                 MOVWF   PORTC           ;LEDS A ENCENDER EN LA FILA C5
03E0   2586           01232                 CALL    RET
                      01233 
03E1   3007           01234                 MOVLW   0x07            ;RA6
03E2   0085           01235                 MOVWF   PORTA
03E3   3040           01236                 MOVLW   0x40
03E4   0087           01237                 MOVWF   PORTC           ;LEDS A ENCENDER EN LA FILA C6
03E5   2586           01238                 CALL    RET
                      01239 
03E6   3000           01240                 MOVLW   0x00            ;RA7
03E7   0085           01241                 MOVWF   PORTA
03E8   3080           01242                 MOVLW   0x80
03E9   0087           01243                 MOVWF   PORTC           ;LEDS A ENCENDER EN LA FILA C7
03EA   2586           01244                 CALL    RET
                      01245                 
03EB   0BA0           01246                 DECFSZ  CON,1
03EC   2BC3           01247                 GOTO    FR22
                      01248 
03ED   303C           01249         MOVLW   0x3C                    ;NO. CICLOS PARA VISUALIZAR UN FRAME DE LA IMAGEN
03EE   00A0           01250         MOVWF   CON
03EF   2586           01251         CALL    RET     
MPASM  5.51                          88D4.ASM   3-22-2022  14:00:38         PAGE 25


LOC  OBJECT CODE     LINE SOURCE TEXT
  VALUE

03F0                  01252 FR23                                                    ;FUNCION DEL FRAME NO. DE LA IMAGEN
03F0   3000           01253                 MOVLW   0x00            ;RA0
03F1   0085           01254                 MOVWF   PORTA
03F2   3001           01255                 MOVLW   0x01
03F3   0087           01256                 MOVWF   PORTC           ;LEDS A ENCENDER EN LA FILA C0
03F4   2586           01257                 CALL    RET
                      01258 
03F5   3000           01259                 MOVLW   0x00            ;RA1
03F6   0085           01260                 MOVWF   PORTA
03F7   3002           01261                 MOVLW   0x02
03F8   0087           01262                 MOVWF   PORTC           ;LEDS A ENCENDER EN LA FILA C1
03F9   2586           01263                 CALL    RET
                      01264 
03FA   3004           01265                 MOVLW   0x04            ;RA2
03FB   0085           01266                 MOVWF   PORTA
03FC   3004           01267                 MOVLW   0x04
03FD   0087           01268                 MOVWF   PORTC           ;LEDS A ENCENDER EN LA FILA C2
03FE   2586           01269                 CALL    RET
                      01270 
03FF   3003           01271                 MOVLW   0x03            ;RA3
0400   0085           01272                 MOVWF   PORTA
0401   3008           01273                 MOVLW   0x08
0402   0087           01274                 MOVWF   PORTC           ;LEDS A ENCENDER EN LA FILA C3
0403   2586           01275                 CALL    RET
                      01276 
0404   3001           01277                 MOVLW   0x01            ;RA4
0405   0085           01278                 MOVWF   PORTA
0406   3010           01279                 MOVLW   0x10
0407   0087           01280                 MOVWF   PORTC           ;LEDS A ENCENDER EN LA FILA C4
0408   2586           01281                 CALL    RET
                      01282 
0409   3001           01283                 MOVLW   0x01            ;RA5
040A   0085           01284                 MOVWF   PORTA
040B   3020           01285                 MOVLW   0x20
040C   0087           01286                 MOVWF   PORTC           ;LEDS A ENCENDER EN LA FILA C5
040D   2586           01287                 CALL    RET
                      01288 
040E   3003           01289                 MOVLW   0x03            ;RA6
040F   0085           01290                 MOVWF   PORTA
0410   3040           01291                 MOVLW   0x40
0411   0087           01292                 MOVWF   PORTC           ;LEDS A ENCENDER EN LA FILA C6
0412   2586           01293                 CALL    RET
                      01294 
0413   3000           01295                 MOVLW   0x00            ;RA7
0414   0085           01296                 MOVWF   PORTA
0415   3080           01297                 MOVLW   0x80
0416   0087           01298                 MOVWF   PORTC           ;LEDS A ENCENDER EN LA FILA C7
0417   2586           01299                 CALL    RET
                      01300                 
0418   0BA0           01301                 DECFSZ  CON,1
0419   2BF0           01302                 GOTO    FR23
                      01303 
041A   303C           01304         MOVLW   0x3C                    ;NO. CICLOS PARA VISUALIZAR UN FRAME DE LA IMAGEN
MPASM  5.51                          88D4.ASM   3-22-2022  14:00:38         PAGE 26


LOC  OBJECT CODE     LINE SOURCE TEXT
  VALUE

041B   00A0           01305         MOVWF   CON
041C   2586           01306         CALL    RET
041D                  01307 FR24                                                    ;FUNCION DEL FRAME NO. DE LA IMAGEN
041D   3000           01308                 MOVLW   0x00            ;RA0
041E   0085           01309                 MOVWF   PORTA
041F   3001           01310                 MOVLW   0x01
0420   0087           01311                 MOVWF   PORTC           ;LEDS A ENCENDER EN LA FILA C0
0421   2586           01312                 CALL    RET
                      01313 
0422   3000           01314                 MOVLW   0x00            ;RA1
0423   0085           01315                 MOVWF   PORTA
0424   3002           01316                 MOVLW   0x02
0425   0087           01317                 MOVWF   PORTC           ;LEDS A ENCENDER EN LA FILA C1
0426   2586           01318                 CALL    RET
                      01319 
0427   3004           01320                 MOVLW   0x04            ;RA2
0428   0085           01321                 MOVWF   PORTA
0429   3004           01322                 MOVLW   0x04
042A   0087           01323                 MOVWF   PORTC           ;LEDS A ENCENDER EN LA FILA C2
042B   2586           01324                 CALL    RET
                      01325 
042C   3007           01326                 MOVLW   0x07            ;RA3
042D   0085           01327                 MOVWF   PORTA
042E   3008           01328                 MOVLW   0x08
042F   0087           01329                 MOVWF   PORTC           ;LEDS A ENCENDER EN LA FILA C3
0430   2586           01330                 CALL    RET
                      01331 
0431   3001           01332                 MOVLW   0x01            ;RA4
0432   0085           01333                 MOVWF   PORTA
0433   3010           01334                 MOVLW   0x10
0434   0087           01335                 MOVWF   PORTC           ;LEDS A ENCENDER EN LA FILA C4
0435   2586           01336                 CALL    RET
                      01337 
0436   3001           01338                 MOVLW   0x01            ;RA5
0437   0085           01339                 MOVWF   PORTA
0438   3020           01340                 MOVLW   0x20
0439   0087           01341                 MOVWF   PORTC           ;LEDS A ENCENDER EN LA FILA C5
043A   2586           01342                 CALL    RET
                      01343 
043B   3001           01344                 MOVLW   0x01            ;RA6
043C   0085           01345                 MOVWF   PORTA
043D   3040           01346                 MOVLW   0x40
043E   0087           01347                 MOVWF   PORTC           ;LEDS A ENCENDER EN LA FILA C6
043F   2586           01348                 CALL    RET
                      01349 
0440   3000           01350                 MOVLW   0x00            ;RA7
0441   0085           01351                 MOVWF   PORTA
0442   3080           01352                 MOVLW   0x80
0443   0087           01353                 MOVWF   PORTC           ;LEDS A ENCENDER EN LA FILA C7
0444   2586           01354                 CALL    RET
                      01355                 
0445   0BA0           01356                 DECFSZ  CON,1
0446   2C1D           01357                 GOTO    FR24
MPASM  5.51                          88D4.ASM   3-22-2022  14:00:38         PAGE 27


LOC  OBJECT CODE     LINE SOURCE TEXT
  VALUE

                      01358 
0447   303C           01359         MOVLW   0x3C                    ;NO. CICLOS PARA VISUALIZAR UN FRAME DE LA IMAGEN
0448   00A0           01360         MOVWF   CON
0449   2586           01361         CALL    RET     
044A                  01362 FR25                                                    ;FUNCION DEL FRAME NO. DE LA IMAGEN
044A   3020           01363                 MOVLW   0x20            ;RA0
044B   0085           01364                 MOVWF   PORTA
044C   3001           01365                 MOVLW   0x01
044D   0087           01366                 MOVWF   PORTC           ;LEDS A ENCENDER EN LA FILA C0
044E   2586           01367                 CALL    RET
                      01368 
044F   3000           01369                 MOVLW   0x00            ;RA1
0450   0085           01370                 MOVWF   PORTA
0451   3002           01371                 MOVLW   0x02
0452   0087           01372                 MOVWF   PORTC           ;LEDS A ENCENDER EN LA FILA C1
0453   2586           01373                 CALL    RET
                      01374 
0454   3004           01375                 MOVLW   0x04            ;RA2
0455   0085           01376                 MOVWF   PORTA
0456   3004           01377                 MOVLW   0x04
0457   0087           01378                 MOVWF   PORTC           ;LEDS A ENCENDER EN LA FILA C2
0458   2586           01379                 CALL    RET
                      01380 
0459   3007           01381                 MOVLW   0x07            ;RA3
045A   0085           01382                 MOVWF   PORTA
045B   3008           01383                 MOVLW   0x08
045C   0087           01384                 MOVWF   PORTC           ;LEDS A ENCENDER EN LA FILA C3
045D   2586           01385                 CALL    RET
                      01386 
045E   3001           01387                 MOVLW   0x01            ;RA4
045F   0085           01388                 MOVWF   PORTA
0460   3010           01389                 MOVLW   0x10
0461   0087           01390                 MOVWF   PORTC           ;LEDS A ENCENDER EN LA FILA C4
0462   2586           01391                 CALL    RET
                      01392 
0463   3001           01393                 MOVLW   0x01            ;RA5
0464   0085           01394                 MOVWF   PORTA
0465   3020           01395                 MOVLW   0x20
0466   0087           01396                 MOVWF   PORTC           ;LEDS A ENCENDER EN LA FILA C5
0467   2586           01397                 CALL    RET
                      01398 
0468   3001           01399                 MOVLW   0x01            ;RA6
0469   0085           01400                 MOVWF   PORTA
046A   3040           01401                 MOVLW   0x40
046B   0087           01402                 MOVWF   PORTC           ;LEDS A ENCENDER EN LA FILA C6
046C   2586           01403                 CALL    RET
                      01404 
046D   3000           01405                 MOVLW   0x00            ;RA7
046E   0085           01406                 MOVWF   PORTA
046F   3080           01407                 MOVLW   0x80
0470   0087           01408                 MOVWF   PORTC           ;LEDS A ENCENDER EN LA FILA C7
0471   2586           01409                 CALL    RET
                      01410                 
MPASM  5.51                          88D4.ASM   3-22-2022  14:00:38         PAGE 28


LOC  OBJECT CODE     LINE SOURCE TEXT
  VALUE

0472   0BA0           01411                 DECFSZ  CON,1
0473   2C4A           01412                 GOTO    FR25
                      01413 
0474   303C           01414         MOVLW   0x3C                    ;NO. CICLOS PARA VISUALIZAR UN FRAME DE LA IMAGEN
0475   00A0           01415         MOVWF   CON
0476   2586           01416         CALL    RET
0477                  01417 FR26                                                    ;FUNCION DEL FRAME NO. DE LA IMAGEN
0477   3020           01418                 MOVLW   0x20            ;RA0
0478   0085           01419                 MOVWF   PORTA
0479   3001           01420                 MOVLW   0x01
047A   0087           01421                 MOVWF   PORTC           ;LEDS A ENCENDER EN LA FILA C0
047B   2586           01422                 CALL    RET
                      01423 
047C   3000           01424                 MOVLW   0x00            ;RA1
047D   0085           01425                 MOVWF   PORTA
047E   3002           01426                 MOVLW   0x02
047F   0087           01427                 MOVWF   PORTC           ;LEDS A ENCENDER EN LA FILA C1
0480   2586           01428                 CALL    RET
                      01429 
0481   300C           01430                 MOVLW   0x0C            ;RA2
0482   0085           01431                 MOVWF   PORTA
0483   3004           01432                 MOVLW   0x04
0484   0087           01433                 MOVWF   PORTC           ;LEDS A ENCENDER EN LA FILA C2
0485   2586           01434                 CALL    RET
                      01435 
0486   3007           01436                 MOVLW   0x07            ;RA3
0487   0085           01437                 MOVWF   PORTA
0488   3008           01438                 MOVLW   0x08
0489   0087           01439                 MOVWF   PORTC           ;LEDS A ENCENDER EN LA FILA C3
048A   2586           01440                 CALL    RET
                      01441 
048B   3001           01442                 MOVLW   0x01            ;RA4
048C   0085           01443                 MOVWF   PORTA
048D   3010           01444                 MOVLW   0x10
048E   0087           01445                 MOVWF   PORTC           ;LEDS A ENCENDER EN LA FILA C4
048F   2586           01446                 CALL    RET
                      01447 
0490   3001           01448                 MOVLW   0x01            ;RA5
0491   0085           01449                 MOVWF   PORTA
0492   3020           01450                 MOVLW   0x20
0493   0087           01451                 MOVWF   PORTC           ;LEDS A ENCENDER EN LA FILA C5
0494   2586           01452                 CALL    RET
                      01453 
0495   3000           01454                 MOVLW   0x00            ;RA6
0496   0085           01455                 MOVWF   PORTA
0497   3040           01456                 MOVLW   0x40
0498   0087           01457                 MOVWF   PORTC           ;LEDS A ENCENDER EN LA FILA C6
0499   2586           01458                 CALL    RET
                      01459 
049A   3000           01460                 MOVLW   0x00            ;RA7
049B   0085           01461                 MOVWF   PORTA
049C   3080           01462                 MOVLW   0x80
049D   0087           01463                 MOVWF   PORTC           ;LEDS A ENCENDER EN LA FILA C7
MPASM  5.51                          88D4.ASM   3-22-2022  14:00:38         PAGE 29


LOC  OBJECT CODE     LINE SOURCE TEXT
  VALUE

049E   2586           01464                 CALL    RET
                      01465                 
049F   0BA0           01466                 DECFSZ  CON,1
04A0   2C77           01467                 GOTO    FR26
                      01468 
04A1   303C           01469         MOVLW   0x3C                    ;NO. CICLOS PARA VISUALIZAR UN FRAME DE LA IMAGEN
04A2   00A0           01470         MOVWF   CON
04A3   2586           01471         CALL    RET
04A4                  01472 FR27                                                    ;FUNCION DEL FRAME NO. DE LA IMAGEN
04A4   3020           01473                 MOVLW   0x20            ;RA0
04A5   0085           01474                 MOVWF   PORTA
04A6   3001           01475                 MOVLW   0x01
04A7   0087           01476                 MOVWF   PORTC           ;LEDS A ENCENDER EN LA FILA C0
04A8   2586           01477                 CALL    RET
                      01478 
04A9   3008           01479                 MOVLW   0x08            ;RA1
04AA   0085           01480                 MOVWF   PORTA
04AB   3002           01481                 MOVLW   0x02
04AC   0087           01482                 MOVWF   PORTC           ;LEDS A ENCENDER EN LA FILA C1
04AD   2586           01483                 CALL    RET
                      01484 
04AE   300C           01485                 MOVLW   0x0C            ;RA2
04AF   0085           01486                 MOVWF   PORTA
04B0   3004           01487                 MOVLW   0x04
04B1   0087           01488                 MOVWF   PORTC           ;LEDS A ENCENDER EN LA FILA C2
04B2   2586           01489                 CALL    RET
                      01490 
04B3   3007           01491                 MOVLW   0x07            ;RA3
04B4   0085           01492                 MOVWF   PORTA
04B5   3008           01493                 MOVLW   0x08
04B6   0087           01494                 MOVWF   PORTC           ;LEDS A ENCENDER EN LA FILA C3
04B7   2586           01495                 CALL    RET
                      01496 
04B8   3001           01497                 MOVLW   0x01            ;RA4
04B9   0085           01498                 MOVWF   PORTA
04BA   3010           01499                 MOVLW   0x10
04BB   0087           01500                 MOVWF   PORTC           ;LEDS A ENCENDER EN LA FILA C4
04BC   2586           01501                 CALL    RET
                      01502 
04BD   3000           01503                 MOVLW   0x00            ;RA5
04BE   0085           01504                 MOVWF   PORTA
04BF   3020           01505                 MOVLW   0x20
04C0   0087           01506                 MOVWF   PORTC           ;LEDS A ENCENDER EN LA FILA C5
04C1   2586           01507                 CALL    RET
                      01508 
04C2   3000           01509                 MOVLW   0x00            ;RA6
04C3   0085           01510                 MOVWF   PORTA
04C4   3040           01511                 MOVLW   0x40
04C5   0087           01512                 MOVWF   PORTC           ;LEDS A ENCENDER EN LA FILA C6
04C6   2586           01513                 CALL    RET
                      01514 
04C7   3000           01515                 MOVLW   0x00            ;RA7
04C8   0085           01516                 MOVWF   PORTA
MPASM  5.51                          88D4.ASM   3-22-2022  14:00:38         PAGE 30


LOC  OBJECT CODE     LINE SOURCE TEXT
  VALUE

04C9   3080           01517                 MOVLW   0x80
04CA   0087           01518                 MOVWF   PORTC           ;LEDS A ENCENDER EN LA FILA C7
04CB   2586           01519                 CALL    RET
                      01520                 
04CC   0BA0           01521                 DECFSZ  CON,1
04CD   2CA4           01522                 GOTO    FR27
                      01523 
04CE   303C           01524         MOVLW   0x3C                    ;NO. CICLOS PARA VISUALIZAR UN FRAME DE LA IMAGEN
04CF   00A0           01525         MOVWF   CON
04D0   2586           01526         CALL    RET     
04D1                  01527 FR28                                                    ;FUNCION DEL FRAME NO. DE LA IMAGEN
04D1   3028           01528                 MOVLW   0x28            ;RA0
04D2   0085           01529                 MOVWF   PORTA
04D3   3001           01530                 MOVLW   0x01
04D4   0087           01531                 MOVWF   PORTC           ;LEDS A ENCENDER EN LA FILA C0
04D5   2586           01532                 CALL    RET
                      01533 
04D6   3008           01534                 MOVLW   0x08            ;RA1
04D7   0085           01535                 MOVWF   PORTA
04D8   3002           01536                 MOVLW   0x02
04D9   0087           01537                 MOVWF   PORTC           ;LEDS A ENCENDER EN LA FILA C1
04DA   2586           01538                 CALL    RET
                      01539 
04DB   300C           01540                 MOVLW   0x0C            ;RA2
04DC   0085           01541                 MOVWF   PORTA
04DD   3004           01542                 MOVLW   0x04
04DE   0087           01543                 MOVWF   PORTC           ;LEDS A ENCENDER EN LA FILA C2
04DF   2586           01544                 CALL    RET
                      01545 
04E0   3007           01546                 MOVLW   0x07            ;RA3
04E1   0085           01547                 MOVWF   PORTA
04E2   3008           01548                 MOVLW   0x08
04E3   0087           01549                 MOVWF   PORTC           ;LEDS A ENCENDER EN LA FILA C3
04E4   2586           01550                 CALL    RET
                      01551 
04E5   3000           01552                 MOVLW   0x00            ;RA4
04E6   0085           01553                 MOVWF   PORTA
04E7   3010           01554                 MOVLW   0x10
04E8   0087           01555                 MOVWF   PORTC           ;LEDS A ENCENDER EN LA FILA C4
04E9   2586           01556                 CALL    RET
                      01557 
04EA   3000           01558                 MOVLW   0x00            ;RA5
04EB   0085           01559                 MOVWF   PORTA
04EC   3020           01560                 MOVLW   0x20
04ED   0087           01561                 MOVWF   PORTC           ;LEDS A ENCENDER EN LA FILA C5
04EE   2586           01562                 CALL    RET
                      01563 
04EF   3000           01564                 MOVLW   0x00            ;RA6
04F0   0085           01565                 MOVWF   PORTA
04F1   3040           01566                 MOVLW   0x40
04F2   0087           01567                 MOVWF   PORTC           ;LEDS A ENCENDER EN LA FILA C6
04F3   2586           01568                 CALL    RET
                      01569 
MPASM  5.51                          88D4.ASM   3-22-2022  14:00:38         PAGE 31


LOC  OBJECT CODE     LINE SOURCE TEXT
  VALUE

04F4   3000           01570                 MOVLW   0x00            ;RA7
04F5   0085           01571                 MOVWF   PORTA
04F6   3080           01572                 MOVLW   0x80
04F7   0087           01573                 MOVWF   PORTC           ;LEDS A ENCENDER EN LA FILA C7
04F8   2586           01574                 CALL    RET
                      01575                 
04F9   0BA0           01576                 DECFSZ  CON,1
04FA   2CD1           01577                 GOTO    FR28
                      01578 
04FB   303C           01579         MOVLW   0x3C                    ;NO. CICLOS PARA VISUALIZAR UN FRAME DE LA IMAGEN
04FC   00A0           01580         MOVWF   CON
04FD   2586           01581         CALL    RET
04FE                  01582 FR29                                                    ;FUNCION DEL FRAME NO. DE LA IMAGEN
04FE   3028           01583                 MOVLW   0x28            ;RA0
04FF   0085           01584                 MOVWF   PORTA
0500   3001           01585                 MOVLW   0x01
0501   0087           01586                 MOVWF   PORTC           ;LEDS A ENCENDER EN LA FILA C0
0502   2586           01587                 CALL    RET
                      01588 
0503   3008           01589                 MOVLW   0x08            ;RA1
0504   0085           01590                 MOVWF   PORTA
0505   3002           01591                 MOVLW   0x02
0506   0087           01592                 MOVWF   PORTC           ;LEDS A ENCENDER EN LA FILA C1
0507   2586           01593                 CALL    RET
                      01594 
0508   300C           01595                 MOVLW   0x0C            ;RA2
0509   0085           01596                 MOVWF   PORTA
050A   3004           01597                 MOVLW   0x04
050B   0087           01598                 MOVWF   PORTC           ;LEDS A ENCENDER EN LA FILA C2
050C   2586           01599                 CALL    RET
                      01600 
050D   3007           01601                 MOVLW   0x07            ;RA3
050E   0085           01602                 MOVWF   PORTA
050F   3008           01603                 MOVLW   0x08
0510   0087           01604                 MOVWF   PORTC           ;LEDS A ENCENDER EN LA FILA C3
0511   2586           01605                 CALL    RET
                      01606 
0512   30B0           01607                 MOVLW   0xB0            ;RA4
0513   0085           01608                 MOVWF   PORTA
0514   3010           01609                 MOVLW   0x10
0515   0087           01610                 MOVWF   PORTC           ;LEDS A ENCENDER EN LA FILA C4
0516   2586           01611                 CALL    RET
                      01612 
0517   3020           01613                 MOVLW   0x20            ;RA5
0518   0085           01614                 MOVWF   PORTA
0519   3020           01615                 MOVLW   0x20
051A   0087           01616                 MOVWF   PORTC           ;LEDS A ENCENDER EN LA FILA C5
051B   2586           01617                 CALL    RET
                      01618 
051C   30B0           01619                 MOVLW   0xB0            ;RA6
051D   0085           01620                 MOVWF   PORTA
051E   3040           01621                 MOVLW   0x40
051F   0087           01622                 MOVWF   PORTC           ;LEDS A ENCENDER EN LA FILA C6
MPASM  5.51                          88D4.ASM   3-22-2022  14:00:38         PAGE 32


LOC  OBJECT CODE     LINE SOURCE TEXT
  VALUE

0520   2586           01623                 CALL    RET
                      01624 
0521   3000           01625                 MOVLW   0x00            ;RA7
0522   0085           01626                 MOVWF   PORTA
0523   3080           01627                 MOVLW   0x80
0524   0087           01628                 MOVWF   PORTC           ;LEDS A ENCENDER EN LA FILA C7
0525   2586           01629                 CALL    RET
                      01630                 
0526   0BA0           01631                 DECFSZ  CON,1
0527   2CFE           01632                 GOTO    FR29
                      01633 
0528   303C           01634         MOVLW   0x3C                    ;NO. CICLOS PARA VISUALIZAR UN FRAME DE LA IMAGEN
0529   00A0           01635         MOVWF   CON
052A   2586           01636         CALL    RET
052B                  01637 FR30                                                    ;FUNCION DEL FRAME NO. DE LA IMAGEN
052B   307F           01638                 MOVLW   0x7F            ;RA0
052C   0085           01639                 MOVWF   PORTA
052D   3001           01640                 MOVLW   0x01
052E   0087           01641                 MOVWF   PORTC           ;LEDS A ENCENDER EN LA FILA C0
052F   2586           01642                 CALL    RET
                      01643 
0530   3041           01644                 MOVLW   0x41            ;RA1
0531   0085           01645                 MOVWF   PORTA
0532   3002           01646                 MOVLW   0x02
0533   0087           01647                 MOVWF   PORTC           ;LEDS A ENCENDER EN LA FILA C1
0534   2586           01648                 CALL    RET
                      01649 
0535   3045           01650                 MOVLW   0x45            ;RA2
0536   0085           01651                 MOVWF   PORTA
0537   3004           01652                 MOVLW   0x04
0538   0087           01653                 MOVWF   PORTC           ;LEDS A ENCENDER EN LA FILA C2
0539   2586           01654                 CALL    RET
                      01655 
053A   3077           01656                 MOVLW   0x77            ;RA3
053B   0085           01657                 MOVWF   PORTA
053C   3008           01658                 MOVLW   0x08
053D   0087           01659                 MOVWF   PORTC           ;LEDS A ENCENDER EN LA FILA C3
053E   2586           01660                 CALL    RET
                      01661 
053F   3000           01662                 MOVLW   0x00            ;RA4
0540   0085           01663                 MOVWF   PORTA
0541   3010           01664                 MOVLW   0x10
0542   0087           01665                 MOVWF   PORTC           ;LEDS A ENCENDER EN LA FILA C4
0543   2586           01666                 CALL    RET
                      01667 
0544   307F           01668                 MOVLW   0x7F            ;RA5
0545   0085           01669                 MOVWF   PORTA
0546   3020           01670                 MOVLW   0x20
0547   0087           01671                 MOVWF   PORTC           ;LEDS A ENCENDER EN LA FILA C5
0548   2586           01672                 CALL    RET
                      01673 
0549   3041           01674                 MOVLW   0x41            ;RA6
054A   0085           01675                 MOVWF   PORTA
MPASM  5.51                          88D4.ASM   3-22-2022  14:00:38         PAGE 33


LOC  OBJECT CODE     LINE SOURCE TEXT
  VALUE

054B   3040           01676                 MOVLW   0x40
054C   0087           01677                 MOVWF   PORTC           ;LEDS A ENCENDER EN LA FILA C6
054D   2586           01678                 CALL    RET
                      01679 
054E   307F           01680                 MOVLW   0x7F            ;RA7
054F   0085           01681                 MOVWF   PORTA
0550   3080           01682                 MOVLW   0x80
0551   0087           01683                 MOVWF   PORTC           ;LEDS A ENCENDER EN LA FILA C7
0552   2586           01684                 CALL    RET
                      01685                 
0553   0BA0           01686                 DECFSZ  CON,1
0554   2D2B           01687                 GOTO    FR30
                      01688 
0555   303C           01689         MOVLW   0x3C                    ;NO. CICLOS PARA VISUALIZAR UN FRAME DE LA IMAGEN
0556   00A0           01690         MOVWF   CON
0557   2586           01691         CALL    RET
0558                  01692 FR31                                                    ;FUNCION DEL FRAME NO. DE LA IMAGEN
0558   3000           01693                 MOVLW   0x00            ;RA0
0559   0085           01694                 MOVWF   PORTA
055A   3000           01695                 MOVLW   0x00
055B   0087           01696                 MOVWF   PORTC           ;LEDS A ENCENDER EN LA FILA C0
055C   2586           01697                 CALL    RET
                      01698 
055D   3000           01699                 MOVLW   0x00            ;RA1
055E   0085           01700                 MOVWF   PORTA
055F   3000           01701                 MOVLW   0x00
0560   0087           01702                 MOVWF   PORTC           ;LEDS A ENCENDER EN LA FILA C1
0561   2586           01703                 CALL    RET
                      01704 
0562   3000           01705                 MOVLW   0x00            ;RA2
0563   0085           01706                 MOVWF   PORTA
0564   3000           01707                 MOVLW   0x00
0565   0087           01708                 MOVWF   PORTC           ;LEDS A ENCENDER EN LA FILA C2
0566   2586           01709                 CALL    RET
                      01710 
0567   3000           01711                 MOVLW   0x00            ;RA3
0568   0085           01712                 MOVWF   PORTA
0569   3000           01713                 MOVLW   0x00
056A   0087           01714                 MOVWF   PORTC           ;LEDS A ENCENDER EN LA FILA C3
056B   2586           01715                 CALL    RET
                      01716 
056C   3000           01717                 MOVLW   0x00            ;RA4
056D   0085           01718                 MOVWF   PORTA
056E   3000           01719                 MOVLW   0x00
056F   0087           01720                 MOVWF   PORTC           ;LEDS A ENCENDER EN LA FILA C4
0570   2586           01721                 CALL    RET
                      01722 
0571   3000           01723                 MOVLW   0x00            ;RA5
0572   0085           01724                 MOVWF   PORTA
0573   3000           01725                 MOVLW   0x00
0574   0087           01726                 MOVWF   PORTC           ;LEDS A ENCENDER EN LA FILA C5
0575   2586           01727                 CALL    RET
                      01728 
MPASM  5.51                          88D4.ASM   3-22-2022  14:00:38         PAGE 34


LOC  OBJECT CODE     LINE SOURCE TEXT
  VALUE

0576   3000           01729                 MOVLW   0x00            ;RA6
0577   0085           01730                 MOVWF   PORTA
0578   3000           01731                 MOVLW   0x00
0579   0087           01732                 MOVWF   PORTC           ;LEDS A ENCENDER EN LA FILA C6
057A   2586           01733                 CALL    RET
                      01734 
057B   3000           01735                 MOVLW   0x00            ;RA7
057C   0085           01736                 MOVWF   PORTA
057D   3000           01737                 MOVLW   0x00
057E   0087           01738                 MOVWF   PORTC           ;LEDS A ENCENDER EN LA FILA C7
057F   2586           01739                 CALL    RET
                      01740                 
0580   0BA0           01741                 DECFSZ  CON,1
0581   2D58           01742                 GOTO    FR31
                      01743 
0582   303C           01744         MOVLW   0x3C                    ;NO. CICLOS PARA VISUALIZAR UN FRAME DE LA IMAGEN
0583   00A0           01745         MOVWF   CON
0584   2586           01746         CALL    RET
                      01747         
Warning[203]: Found opcode in column 1. (GOTO)
0585   280F           01748 GOTO    INI
                      01749 
0586   307F           01750 RET             MOVLW   0x7F            ;RETARDO Y VELOCIDAD ENTRE COORDENADA DE UN FRAME
0587   0081           01751                 MOVWF   TMR0
0588   1D0B           01752 ET0IFX  BTFSS   INTCON,T0IF
0589   2D88           01753                 GOTO    ET0IFX
058A   110B           01754                 BCF             INTCON,T0IF
058B   0008           01755                 RETURN
                      01756 
                      01757                 END
MPASM  5.51                          88D4.ASM   3-22-2022  14:00:38         PAGE 35


SYMBOL TABLE
  LABEL                             VALUE 

ABDEN                             00000000
ABDOVF                            00000007
ACKDT                             00000005
ACKEN                             00000004
ACKSTAT                           00000006
ADCON0                            0000001F
ADCON1                            0000009F
ADCS0                             00000006
ADCS1                             00000007
ADDEN                             00000003
ADFM                              00000007
ADIE                              00000006
ADIF                              00000006
ADON                              00000000
ADRESH                            0000001E
ADRESL                            0000009E
ANS0                              00000000
ANS1                              00000001
ANS10                             00000002
ANS11                             00000003
ANS12                             00000004
ANS13                             00000005
ANS2                              00000002
ANS3                              00000003
ANS4                              00000004
ANS5                              00000005
ANS6                              00000006
ANS7                              00000007
ANS8                              00000000
ANS9                              00000001
ANSEL                             00000188
ANSELH                            00000189
BAUDCTL                           00000187
BCLIE                             00000003
BCLIF                             00000003
BF                                00000000
BRG0                              00000000
BRG1                              00000001
BRG10                             00000002
BRG11                             00000003
BRG12                             00000004
BRG13                             00000005
BRG14                             00000006
BRG15                             00000007
BRG16                             00000003
BRG2                              00000002
BRG3                              00000003
BRG4                              00000004
BRG5                              00000005
BRG6                              00000006
BRG7                              00000007
BRG8                              00000000
BRG9                              00000001
MPASM  5.51                          88D4.ASM   3-22-2022  14:00:38         PAGE 36


SYMBOL TABLE
  LABEL                             VALUE 

BRGH                              00000002
C                                 00000000
C1CH0                             00000000
C1CH1                             00000001
C1IE                              00000005
C1IF                              00000005
C1OE                              00000005
C1ON                              00000007
C1OUT                             00000006
C1POL                             00000004
C1R                               00000002
C1RSEL                            00000005
C1SEN                             00000005
C2CH0                             00000000
C2CH1                             00000001
C2IE                              00000006
C2IF                              00000006
C2OE                              00000005
C2ON                              00000007
C2OUT                             00000006
C2POL                             00000004
C2R                               00000002
C2REN                             00000004
C2RSEL                            00000004
C2SYNC                            00000000
CCP1CON                           00000017
CCP1IE                            00000002
CCP1IF                            00000002
CCP1M0                            00000000
CCP1M1                            00000001
CCP1M2                            00000002
CCP1M3                            00000003
CCP1X                             00000005
CCP1Y                             00000004
CCP2CON                           0000001D
CCP2IE                            00000000
CCP2IF                            00000000
CCP2M0                            00000000
CCP2M1                            00000001
CCP2M2                            00000002
CCP2M3                            00000003
CCP2X                             00000005
CCP2Y                             00000004
CCPR1                             00000015
CCPR1H                            00000016
CCPR1L                            00000015
CCPR2                             0000001B
CCPR2H                            0000001C
CCPR2L                            0000001B
CHS0                              00000002
CHS1                              00000003
CHS2                              00000004
CHS3                              00000005
MPASM  5.51                          88D4.ASM   3-22-2022  14:00:38         PAGE 37


SYMBOL TABLE
  LABEL                             VALUE 

CKE                               00000006
CKP                               00000004
CM1CON0                           00000107
CM2CON0                           00000108
CM2CON1                           00000109
CON                               00000020
CREN                              00000004
CSRC                              00000007
D                                 00000005
DATA_ADDRESS                      00000005
DC                                00000001
DC1B0                             00000004
DC1B1                             00000005
DC2B0                             00000004
DC2B1                             00000005
D_A                               00000005
D_NOT_A                           00000005
ECCPAS                            0000009C
ECCPAS0                           00000004
ECCPAS1                           00000005
ECCPAS2                           00000006
ECCPASE                           00000007
EEADR                             0000010D
EEADRH                            0000010F
EECON1                            0000018C
EECON2                            0000018D
EEDAT                             0000010C
EEDATA                            0000010C
EEDATH                            0000010E
EEIE                              00000004
EEIF                              00000004
EEPGD                             00000007
ET0IFX                            00000588
F                                 00000001
FERR                              00000002
FR1                               00000012
FR10                              000001A7
FR11                              000001D4
FR12                              00000201
FR13                              0000022E
FR14                              0000025B
FR15                              00000288
FR16                              000002B5
FR17                              000002E2
FR18                              0000030F
FR19                              0000033C
FR2                               0000003F
FR20                              00000369
FR21                              00000396
FR22                              000003C3
FR23                              000003F0
FR24                              0000041D
FR25                              0000044A
MPASM  5.51                          88D4.ASM   3-22-2022  14:00:38         PAGE 38


SYMBOL TABLE
  LABEL                             VALUE 

FR26                              00000477
FR27                              000004A4
FR28                              000004D1
FR29                              000004FE
FR3                               0000006C
FR30                              0000052B
FR31                              00000558
FR4                               00000099
FR5                               000000C6
FR6                               000000F3
FR7                               00000120
FR8                               0000014D
FR9                               0000017A
FSR                               00000004
FVREN                             00000000
GCEN                              00000007
GIE                               00000007
GO                                00000001
GO_DONE                           00000001
GO_NOT_DONE                       00000001
HTS                               00000002
I2C_DATA                          00000005
I2C_READ                          00000002
I2C_START                         00000003
I2C_STOP                          00000004
INDF                              00000000
INI                               0000000F
INTCON                            0000000B
INTE                              00000004
INTEDG                            00000006
INTF                              00000001
IOCB                              00000096
IOCB0                             00000000
IOCB1                             00000001
IOCB2                             00000002
IOCB3                             00000003
IOCB4                             00000004
IOCB5                             00000005
IOCB6                             00000006
IOCB7                             00000007
IRCF0                             00000004
IRCF1                             00000005
IRCF2                             00000006
IRP                               00000007
LTS                               00000001
MC1OUT                            00000007
MC2OUT                            00000006
MSK                               00000093
MSK0                              00000000
MSK1                              00000001
MSK2                              00000002
MSK3                              00000003
MSK4                              00000004
MPASM  5.51                          88D4.ASM   3-22-2022  14:00:38         PAGE 39


SYMBOL TABLE
  LABEL                             VALUE 

MSK5                              00000005
MSK6                              00000006
MSK7                              00000007
NOT_A                             00000005
NOT_ADDRESS                       00000005
NOT_BO                            00000000
NOT_BOR                           00000000
NOT_DONE                          00000001
NOT_PD                            00000003
NOT_POR                           00000001
NOT_RBPU                          00000007
NOT_RC8                           00000006
NOT_T1SYNC                        00000002
NOT_TO                            00000004
NOT_TX8                           00000006
NOT_W                             00000002
NOT_WRITE                         00000002
OERR                              00000001
OPTION_REG                        00000081
OSCCON                            0000008F
OSCTUNE                           00000090
OSFIE                             00000007
OSFIF                             00000007
OSTS                              00000003
P                                 00000004
P1M0                              00000006
P1M1                              00000007
PCL                               00000002
PCLATH                            0000000A
PCON                              0000008E
PDC0                              00000000
PDC1                              00000001
PDC2                              00000002
PDC3                              00000003
PDC4                              00000004
PDC5                              00000005
PDC6                              00000006
PEIE                              00000006
PEN                               00000002
PIE1                              0000008C
PIE2                              0000008D
PIR1                              0000000C
PIR2                              0000000D
PORTA                             00000005
PORTB                             00000006
PORTC                             00000007
PORTD                             00000008
PORTE                             00000009
PR2                               00000092
PRSEN                             00000007
PS0                               00000000
PS1                               00000001
PS2                               00000002
MPASM  5.51                          88D4.ASM   3-22-2022  14:00:38         PAGE 40


SYMBOL TABLE
  LABEL                             VALUE 

PSA                               00000003
PSSAC0                            00000002
PSSAC1                            00000003
PSSBD0                            00000000
PSSBD1                            00000001
PSTRCON                           0000009D
PULSR                             00000002
PULSS                             00000003
PWM1CON                           0000009B
R                                 00000002
RA0                               00000000
RA1                               00000001
RA2                               00000002
RA3                               00000003
RA4                               00000004
RA5                               00000005
RA6                               00000006
RA7                               00000007
RB0                               00000000
RB1                               00000001
RB2                               00000002
RB3                               00000003
RB4                               00000004
RB5                               00000005
RB6                               00000006
RB7                               00000007
RBIE                              00000003
RBIF                              00000000
RC0                               00000000
RC1                               00000001
RC2                               00000002
RC3                               00000003
RC4                               00000004
RC5                               00000005
RC6                               00000006
RC7                               00000007
RC8_9                             00000006
RC9                               00000006
RCD8                              00000000
RCEN                              00000003
RCIDL                             00000006
RCIE                              00000005
RCIF                              00000005
RCREG                             0000001A
RCSTA                             00000018
RD                                00000000
RD0                               00000000
RD1                               00000001
RD2                               00000002
RD3                               00000003
RD4                               00000004
RD5                               00000005
RD6                               00000006
MPASM  5.51                          88D4.ASM   3-22-2022  14:00:38         PAGE 41


SYMBOL TABLE
  LABEL                             VALUE 

RD7                               00000007
RE0                               00000000
RE1                               00000001
RE2                               00000002
RE3                               00000003
READ_WRITE                        00000002
RET                               00000586
RP0                               00000005
RP1                               00000006
RSEN                              00000001
RX9                               00000006
RX9D                              00000000
R_NOT_W                           00000002
R_W                               00000002
S                                 00000003
SBOREN                            00000004
SCKP                              00000004
SCS                               00000000
SEN                               00000000
SENDB                             00000003
SMP                               00000007
SPBRG                             00000099
SPBRGH                            0000009A
SPEN                              00000007
SR0                               00000006
SR1                               00000007
SRCON                             00000185
SREN                              00000005
SSPADD                            00000093
SSPBUF                            00000013
SSPCON                            00000014
SSPCON2                           00000091
SSPEN                             00000005
SSPIE                             00000003
SSPIF                             00000003
SSPM0                             00000000
SSPM1                             00000001
SSPM2                             00000002
SSPM3                             00000003
SSPMSK                            00000093
SSPOV                             00000006
SSPSTAT                           00000094
STATUS                            00000003
STRA                              00000000
STRB                              00000001
STRC                              00000002
STRD                              00000003
STRSYNC                           00000004
SWDTEN                            00000000
SYNC                              00000004
T0CS                              00000005
T0IE                              00000005
T0IF                              00000002
MPASM  5.51                          88D4.ASM   3-22-2022  14:00:38         PAGE 42


SYMBOL TABLE
  LABEL                             VALUE 

T0SE                              00000004
T1CKPS0                           00000004
T1CKPS1                           00000005
T1CON                             00000010
T1GINV                            00000007
T1GIV                             00000007
T1GSS                             00000001
T1INSYNC                          00000002
T1OSCEN                           00000003
T1SYNC                            00000002
T2CKPS0                           00000000
T2CKPS1                           00000001
T2CON                             00000012
TMR0                              00000001
TMR0IE                            00000005
TMR0IF                            00000002
TMR1                              0000000E
TMR1CS                            00000001
TMR1GE                            00000006
TMR1H                             0000000F
TMR1IE                            00000000
TMR1IF                            00000000
TMR1L                             0000000E
TMR1ON                            00000000
TMR2                              00000011
TMR2IE                            00000001
TMR2IF                            00000001
TMR2ON                            00000002
TOUTPS0                           00000003
TOUTPS1                           00000004
TOUTPS2                           00000005
TOUTPS3                           00000006
TRISA                             00000085
TRISA0                            00000000
TRISA1                            00000001
TRISA2                            00000002
TRISA3                            00000003
TRISA4                            00000004
TRISA5                            00000005
TRISA6                            00000006
TRISA7                            00000007
TRISB                             00000086
TRISB0                            00000000
TRISB1                            00000001
TRISB2                            00000002
TRISB3                            00000003
TRISB4                            00000004
TRISB5                            00000005
TRISB6                            00000006
TRISB7                            00000007
TRISC                             00000087
TRISC0                            00000000
TRISC1                            00000001
MPASM  5.51                          88D4.ASM   3-22-2022  14:00:38         PAGE 43


SYMBOL TABLE
  LABEL                             VALUE 

TRISC2                            00000002
TRISC3                            00000003
TRISC4                            00000004
TRISC5                            00000005
TRISC6                            00000006
TRISC7                            00000007
TRISD                             00000088
TRISD0                            00000000
TRISD1                            00000001
TRISD2                            00000002
TRISD3                            00000003
TRISD4                            00000004
TRISD5                            00000005
TRISD6                            00000006
TRISD7                            00000007
TRISE                             00000089
TRISE0                            00000000
TRISE1                            00000001
TRISE2                            00000002
TRISE3                            00000003
TRMT                              00000001
TUN0                              00000000
TUN1                              00000001
TUN2                              00000002
TUN3                              00000003
TUN4                              00000004
TX8_9                             00000006
TX9                               00000006
TX9D                              00000000
TXD8                              00000000
TXEN                              00000005
TXIE                              00000004
TXIF                              00000004
TXREG                             00000019
TXSTA                             00000098
UA                                00000001
ULPWUE                            00000005
ULPWUIE                           00000002
ULPWUIF                           00000002
VCFG0                             00000004
VCFG1                             00000005
VR0                               00000000
VR1                               00000001
VR2                               00000002
VR3                               00000003
VRCON                             00000097
VREN                              00000007
VROE                              00000006
VRR                               00000005
VRSS                              00000004
W                                 00000000
WCOL                              00000007
WDTCON                            00000105
MPASM  5.51                          88D4.ASM   3-22-2022  14:00:38         PAGE 44


SYMBOL TABLE
  LABEL                             VALUE 

WDTPS0                            00000001
WDTPS1                            00000002
WDTPS2                            00000003
WDTPS3                            00000004
WPUB                              00000095
WPUB0                             00000000
WPUB1                             00000001
WPUB2                             00000002
WPUB3                             00000003
WPUB4                             00000004
WPUB5                             00000005
WPUB6                             00000006
WPUB7                             00000007
WR                                00000001
WREN                              00000002
WRERR                             00000003
WUE                               00000001
Z                                 00000002
_BOR21V                           00003EFF
_BOR40V                           00003FFF
_BOR4V_BOR21V                     00003EFF
_BOR4V_BOR40V                     00003FFF
_BOREN_NSLEEP                     00003EFF
_BOREN_OFF                        00003CFF
_BOREN_ON                         00003FFF
_BOREN_SBODEN                     00003DFF
_BOR_NSLEEP                       00003EFF
_BOR_OFF                          00003CFF
_BOR_ON                           00003FFF
_BOR_SBODEN                       00003DFF
_CONFIG1                          00002007
_CONFIG2                          00002008
_CPD_OFF                          00003FFF
_CPD_ON                           00003F7F
_CP_OFF                           00003FFF
_CP_ON                            00003FBF
_DEBUG_OFF                        00003FFF
_DEBUG_ON                         00001FFF
_DEVID1                           00002006
_EC_OSC                           00003FFB
_EXTRC                            00003FFF
_EXTRCIO                          00003FFE
_EXTRC_OSC_CLKOUT                 00003FFF
_EXTRC_OSC_NOCLKOUT               00003FFE
_FCMEN_OFF                        000037FF
_FCMEN_ON                         00003FFF
_FOSC_EC                          00003FFB
_FOSC_EXTRC_CLKOUT                00003FFF
_FOSC_EXTRC_NOCLKOUT              00003FFE
_FOSC_HS                          00003FFA
_FOSC_INTRC_CLKOUT                00003FFD
_FOSC_INTRC_NOCLKOUT              00003FFC
_FOSC_LP                          00003FF8
MPASM  5.51                          88D4.ASM   3-22-2022  14:00:38         PAGE 45


SYMBOL TABLE
  LABEL                             VALUE 

_FOSC_XT                          00003FF9
_HS_OSC                           00003FFA
_IDLOC0                           00002000
_IDLOC1                           00002001
_IDLOC2                           00002002
_IDLOC3                           00002003
_IESO_OFF                         00003BFF
_IESO_ON                          00003FFF
_INTOSC                           00003FFD
_INTOSCIO                         00003FFC
_INTRC_OSC_CLKOUT                 00003FFD
_INTRC_OSC_NOCLKOUT               00003FFC
_LP_OSC                           00003FF8
_LVP_OFF                          00002FFF
_LVP_ON                           00003FFF
_MCLRE_OFF                        00003FDF
_MCLRE_ON                         00003FFF
_PWRTE_OFF                        00003FFF
_PWRTE_ON                         00003FEF
_WDTE_OFF                         00003FF7
_WDTE_ON                          00003FFF
_WDT_OFF                          00003FF7
_WDT_ON                           00003FFF
_WRT_1FOURTH                      00003BFF
_WRT_256                          00003DFF
_WRT_HALF                         000039FF
_WRT_OFF                          00003FFF
_XT_OSC                           00003FF9
__16F887                          00000001


MEMORY USAGE MAP ('X' = Used,  '-' = Unused)

0000 : XXXXXXXXXXXXXXXX XXXXXXXXXXXXXXXX XXXXXXXXXXXXXXXX XXXXXXXXXXXXXXXX
0040 : XXXXXXXXXXXXXXXX XXXXXXXXXXXXXXXX XXXXXXXXXXXXXXXX XXXXXXXXXXXXXXXX
0080 : XXXXXXXXXXXXXXXX XXXXXXXXXXXXXXXX XXXXXXXXXXXXXXXX XXXXXXXXXXXXXXXX
00C0 : XXXXXXXXXXXXXXXX XXXXXXXXXXXXXXXX XXXXXXXXXXXXXXXX XXXXXXXXXXXXXXXX
0100 : XXXXXXXXXXXXXXXX XXXXXXXXXXXXXXXX XXXXXXXXXXXXXXXX XXXXXXXXXXXXXXXX
0140 : XXXXXXXXXXXXXXXX XXXXXXXXXXXXXXXX XXXXXXXXXXXXXXXX XXXXXXXXXXXXXXXX
0180 : XXXXXXXXXXXXXXXX XXXXXXXXXXXXXXXX XXXXXXXXXXXXXXXX XXXXXXXXXXXXXXXX
01C0 : XXXXXXXXXXXXXXXX XXXXXXXXXXXXXXXX XXXXXXXXXXXXXXXX XXXXXXXXXXXXXXXX
0200 : XXXXXXXXXXXXXXXX XXXXXXXXXXXXXXXX XXXXXXXXXXXXXXXX XXXXXXXXXXXXXXXX
0240 : XXXXXXXXXXXXXXXX XXXXXXXXXXXXXXXX XXXXXXXXXXXXXXXX XXXXXXXXXXXXXXXX
0280 : XXXXXXXXXXXXXXXX XXXXXXXXXXXXXXXX XXXXXXXXXXXXXXXX XXXXXXXXXXXXXXXX
02C0 : XXXXXXXXXXXXXXXX XXXXXXXXXXXXXXXX XXXXXXXXXXXXXXXX XXXXXXXXXXXXXXXX
0300 : XXXXXXXXXXXXXXXX XXXXXXXXXXXXXXXX XXXXXXXXXXXXXXXX XXXXXXXXXXXXXXXX
MPASM  5.51                          88D4.ASM   3-22-2022  14:00:38         PAGE 46


MEMORY USAGE MAP ('X' = Used,  '-' = Unused)


0340 : XXXXXXXXXXXXXXXX XXXXXXXXXXXXXXXX XXXXXXXXXXXXXXXX XXXXXXXXXXXXXXXX
0380 : XXXXXXXXXXXXXXXX XXXXXXXXXXXXXXXX XXXXXXXXXXXXXXXX XXXXXXXXXXXXXXXX
03C0 : XXXXXXXXXXXXXXXX XXXXXXXXXXXXXXXX XXXXXXXXXXXXXXXX XXXXXXXXXXXXXXXX
0400 : XXXXXXXXXXXXXXXX XXXXXXXXXXXXXXXX XXXXXXXXXXXXXXXX XXXXXXXXXXXXXXXX
0440 : XXXXXXXXXXXXXXXX XXXXXXXXXXXXXXXX XXXXXXXXXXXXXXXX XXXXXXXXXXXXXXXX
0480 : XXXXXXXXXXXXXXXX XXXXXXXXXXXXXXXX XXXXXXXXXXXXXXXX XXXXXXXXXXXXXXXX
04C0 : XXXXXXXXXXXXXXXX XXXXXXXXXXXXXXXX XXXXXXXXXXXXXXXX XXXXXXXXXXXXXXXX
0500 : XXXXXXXXXXXXXXXX XXXXXXXXXXXXXXXX XXXXXXXXXXXXXXXX XXXXXXXXXXXXXXXX
0540 : XXXXXXXXXXXXXXXX XXXXXXXXXXXXXXXX XXXXXXXXXXXXXXXX XXXXXXXXXXXXXXXX
0580 : XXXXXXXXXXXX---- ---------------- ---------------- ----------------
2000 : -------XX------- ---------------- ---------------- ----------------

All other memory blocks unused.

Program Memory Words Used:  1420
Program Memory Words Free:  6772


Errors   :     0
Warnings :     3 reported,     0 suppressed
Messages :     8 reported,     0 suppressed

